
stm32g031f6p6-led-lent-screen-controller.elf:     file format elf32-littlearm

Sections:
Idx Name          Size      VMA       LMA       File off  Algn
  0 .isr_vector   000000bc  08000000  08000000  00001000  2**0
                  CONTENTS, ALLOC, LOAD, READONLY, DATA
  1 .text         0000671c  080000bc  080000bc  000010bc  2**2
                  CONTENTS, ALLOC, LOAD, READONLY, CODE
  2 .rodata       00001408  080067d8  080067d8  000077d8  2**2
                  CONTENTS, ALLOC, LOAD, READONLY, DATA
  3 .ARM.extab    00000000  08007be0  08007be0  000090f4  2**0
                  CONTENTS
  4 .ARM          00000000  08007be0  08007be0  000090f4  2**0
                  CONTENTS
  5 .preinit_array 00000000  08007be0  08007be0  000090f4  2**0
                  CONTENTS, ALLOC, LOAD, DATA
  6 .init_array   00000004  08007be0  08007be0  00008be0  2**2
                  CONTENTS, ALLOC, LOAD, READONLY, DATA
  7 .fini_array   00000004  08007be4  08007be4  00008be4  2**2
                  CONTENTS, ALLOC, LOAD, READONLY, DATA
  8 .data         000000f4  20000000  08007be8  00009000  2**2
                  CONTENTS, ALLOC, LOAD, DATA
  9 .bss          00000458  200000f4  08007cdc  000090f4  2**2
                  ALLOC
 10 ._user_heap_stack 00000604  2000054c  08007cdc  0000954c  2**0
                  ALLOC
 11 .ARM.attributes 00000028  00000000  00000000  000090f4  2**0
                  CONTENTS, READONLY
 12 .comment      00000043  00000000  00000000  0000911c  2**0
                  CONTENTS, READONLY
 13 .debug_frame  00000554  00000000  00000000  00009160  2**2
                  CONTENTS, READONLY, DEBUGGING, OCTETS

Disassembly of section .text:

080000bc <__do_global_dtors_aux>:
 80000bc:	b510      	push	{r4, lr}
 80000be:	4c06      	ldr	r4, [pc, #24]	@ (80000d8 <__do_global_dtors_aux+0x1c>)
 80000c0:	7823      	ldrb	r3, [r4, #0]
 80000c2:	2b00      	cmp	r3, #0
 80000c4:	d107      	bne.n	80000d6 <__do_global_dtors_aux+0x1a>
 80000c6:	4b05      	ldr	r3, [pc, #20]	@ (80000dc <__do_global_dtors_aux+0x20>)
 80000c8:	2b00      	cmp	r3, #0
 80000ca:	d002      	beq.n	80000d2 <__do_global_dtors_aux+0x16>
 80000cc:	4804      	ldr	r0, [pc, #16]	@ (80000e0 <__do_global_dtors_aux+0x24>)
 80000ce:	e000      	b.n	80000d2 <__do_global_dtors_aux+0x16>
 80000d0:	bf00      	nop
 80000d2:	2301      	movs	r3, #1
 80000d4:	7023      	strb	r3, [r4, #0]
 80000d6:	bd10      	pop	{r4, pc}
 80000d8:	200000f4 	.word	0x200000f4
 80000dc:	00000000 	.word	0x00000000
 80000e0:	080067c0 	.word	0x080067c0

080000e4 <frame_dummy>:
 80000e4:	4b04      	ldr	r3, [pc, #16]	@ (80000f8 <frame_dummy+0x14>)
 80000e6:	b510      	push	{r4, lr}
 80000e8:	2b00      	cmp	r3, #0
 80000ea:	d003      	beq.n	80000f4 <frame_dummy+0x10>
 80000ec:	4903      	ldr	r1, [pc, #12]	@ (80000fc <frame_dummy+0x18>)
 80000ee:	4804      	ldr	r0, [pc, #16]	@ (8000100 <frame_dummy+0x1c>)
 80000f0:	e000      	b.n	80000f4 <frame_dummy+0x10>
 80000f2:	bf00      	nop
 80000f4:	bd10      	pop	{r4, pc}
 80000f6:	46c0      	nop			@ (mov r8, r8)
 80000f8:	00000000 	.word	0x00000000
 80000fc:	200000f8 	.word	0x200000f8
 8000100:	080067c0 	.word	0x080067c0

08000104 <strlen>:
 8000104:	2300      	movs	r3, #0
 8000106:	5cc2      	ldrb	r2, [r0, r3]
 8000108:	3301      	adds	r3, #1
 800010a:	2a00      	cmp	r2, #0
 800010c:	d1fb      	bne.n	8000106 <strlen+0x2>
 800010e:	1e58      	subs	r0, r3, #1
 8000110:	4770      	bx	lr
	...

08000114 <__udivsi3>:
 8000114:	2200      	movs	r2, #0
 8000116:	0843      	lsrs	r3, r0, #1
 8000118:	428b      	cmp	r3, r1
 800011a:	d374      	bcc.n	8000206 <__udivsi3+0xf2>
 800011c:	0903      	lsrs	r3, r0, #4
 800011e:	428b      	cmp	r3, r1
 8000120:	d35f      	bcc.n	80001e2 <__udivsi3+0xce>
 8000122:	0a03      	lsrs	r3, r0, #8
 8000124:	428b      	cmp	r3, r1
 8000126:	d344      	bcc.n	80001b2 <__udivsi3+0x9e>
 8000128:	0b03      	lsrs	r3, r0, #12
 800012a:	428b      	cmp	r3, r1
 800012c:	d328      	bcc.n	8000180 <__udivsi3+0x6c>
 800012e:	0c03      	lsrs	r3, r0, #16
 8000130:	428b      	cmp	r3, r1
 8000132:	d30d      	bcc.n	8000150 <__udivsi3+0x3c>
 8000134:	22ff      	movs	r2, #255	@ 0xff
 8000136:	0209      	lsls	r1, r1, #8
 8000138:	ba12      	rev	r2, r2
 800013a:	0c03      	lsrs	r3, r0, #16
 800013c:	428b      	cmp	r3, r1
 800013e:	d302      	bcc.n	8000146 <__udivsi3+0x32>
 8000140:	1212      	asrs	r2, r2, #8
 8000142:	0209      	lsls	r1, r1, #8
 8000144:	d065      	beq.n	8000212 <__udivsi3+0xfe>
 8000146:	0b03      	lsrs	r3, r0, #12
 8000148:	428b      	cmp	r3, r1
 800014a:	d319      	bcc.n	8000180 <__udivsi3+0x6c>
 800014c:	e000      	b.n	8000150 <__udivsi3+0x3c>
 800014e:	0a09      	lsrs	r1, r1, #8
 8000150:	0bc3      	lsrs	r3, r0, #15
 8000152:	428b      	cmp	r3, r1
 8000154:	d301      	bcc.n	800015a <__udivsi3+0x46>
 8000156:	03cb      	lsls	r3, r1, #15
 8000158:	1ac0      	subs	r0, r0, r3
 800015a:	4152      	adcs	r2, r2
 800015c:	0b83      	lsrs	r3, r0, #14
 800015e:	428b      	cmp	r3, r1
 8000160:	d301      	bcc.n	8000166 <__udivsi3+0x52>
 8000162:	038b      	lsls	r3, r1, #14
 8000164:	1ac0      	subs	r0, r0, r3
 8000166:	4152      	adcs	r2, r2
 8000168:	0b43      	lsrs	r3, r0, #13
 800016a:	428b      	cmp	r3, r1
 800016c:	d301      	bcc.n	8000172 <__udivsi3+0x5e>
 800016e:	034b      	lsls	r3, r1, #13
 8000170:	1ac0      	subs	r0, r0, r3
 8000172:	4152      	adcs	r2, r2
 8000174:	0b03      	lsrs	r3, r0, #12
 8000176:	428b      	cmp	r3, r1
 8000178:	d301      	bcc.n	800017e <__udivsi3+0x6a>
 800017a:	030b      	lsls	r3, r1, #12
 800017c:	1ac0      	subs	r0, r0, r3
 800017e:	4152      	adcs	r2, r2
 8000180:	0ac3      	lsrs	r3, r0, #11
 8000182:	428b      	cmp	r3, r1
 8000184:	d301      	bcc.n	800018a <__udivsi3+0x76>
 8000186:	02cb      	lsls	r3, r1, #11
 8000188:	1ac0      	subs	r0, r0, r3
 800018a:	4152      	adcs	r2, r2
 800018c:	0a83      	lsrs	r3, r0, #10
 800018e:	428b      	cmp	r3, r1
 8000190:	d301      	bcc.n	8000196 <__udivsi3+0x82>
 8000192:	028b      	lsls	r3, r1, #10
 8000194:	1ac0      	subs	r0, r0, r3
 8000196:	4152      	adcs	r2, r2
 8000198:	0a43      	lsrs	r3, r0, #9
 800019a:	428b      	cmp	r3, r1
 800019c:	d301      	bcc.n	80001a2 <__udivsi3+0x8e>
 800019e:	024b      	lsls	r3, r1, #9
 80001a0:	1ac0      	subs	r0, r0, r3
 80001a2:	4152      	adcs	r2, r2
 80001a4:	0a03      	lsrs	r3, r0, #8
 80001a6:	428b      	cmp	r3, r1
 80001a8:	d301      	bcc.n	80001ae <__udivsi3+0x9a>
 80001aa:	020b      	lsls	r3, r1, #8
 80001ac:	1ac0      	subs	r0, r0, r3
 80001ae:	4152      	adcs	r2, r2
 80001b0:	d2cd      	bcs.n	800014e <__udivsi3+0x3a>
 80001b2:	09c3      	lsrs	r3, r0, #7
 80001b4:	428b      	cmp	r3, r1
 80001b6:	d301      	bcc.n	80001bc <__udivsi3+0xa8>
 80001b8:	01cb      	lsls	r3, r1, #7
 80001ba:	1ac0      	subs	r0, r0, r3
 80001bc:	4152      	adcs	r2, r2
 80001be:	0983      	lsrs	r3, r0, #6
 80001c0:	428b      	cmp	r3, r1
 80001c2:	d301      	bcc.n	80001c8 <__udivsi3+0xb4>
 80001c4:	018b      	lsls	r3, r1, #6
 80001c6:	1ac0      	subs	r0, r0, r3
 80001c8:	4152      	adcs	r2, r2
 80001ca:	0943      	lsrs	r3, r0, #5
 80001cc:	428b      	cmp	r3, r1
 80001ce:	d301      	bcc.n	80001d4 <__udivsi3+0xc0>
 80001d0:	014b      	lsls	r3, r1, #5
 80001d2:	1ac0      	subs	r0, r0, r3
 80001d4:	4152      	adcs	r2, r2
 80001d6:	0903      	lsrs	r3, r0, #4
 80001d8:	428b      	cmp	r3, r1
 80001da:	d301      	bcc.n	80001e0 <__udivsi3+0xcc>
 80001dc:	010b      	lsls	r3, r1, #4
 80001de:	1ac0      	subs	r0, r0, r3
 80001e0:	4152      	adcs	r2, r2
 80001e2:	08c3      	lsrs	r3, r0, #3
 80001e4:	428b      	cmp	r3, r1
 80001e6:	d301      	bcc.n	80001ec <__udivsi3+0xd8>
 80001e8:	00cb      	lsls	r3, r1, #3
 80001ea:	1ac0      	subs	r0, r0, r3
 80001ec:	4152      	adcs	r2, r2
 80001ee:	0883      	lsrs	r3, r0, #2
 80001f0:	428b      	cmp	r3, r1
 80001f2:	d301      	bcc.n	80001f8 <__udivsi3+0xe4>
 80001f4:	008b      	lsls	r3, r1, #2
 80001f6:	1ac0      	subs	r0, r0, r3
 80001f8:	4152      	adcs	r2, r2
 80001fa:	0843      	lsrs	r3, r0, #1
 80001fc:	428b      	cmp	r3, r1
 80001fe:	d301      	bcc.n	8000204 <__udivsi3+0xf0>
 8000200:	004b      	lsls	r3, r1, #1
 8000202:	1ac0      	subs	r0, r0, r3
 8000204:	4152      	adcs	r2, r2
 8000206:	1a41      	subs	r1, r0, r1
 8000208:	d200      	bcs.n	800020c <__udivsi3+0xf8>
 800020a:	4601      	mov	r1, r0
 800020c:	4152      	adcs	r2, r2
 800020e:	4610      	mov	r0, r2
 8000210:	4770      	bx	lr
 8000212:	e7ff      	b.n	8000214 <__udivsi3+0x100>
 8000214:	b501      	push	{r0, lr}
 8000216:	2000      	movs	r0, #0
 8000218:	f000 f8f0 	bl	80003fc <__aeabi_idiv0>
 800021c:	bd02      	pop	{r1, pc}
 800021e:	46c0      	nop			@ (mov r8, r8)

08000220 <__aeabi_uidivmod>:
 8000220:	2900      	cmp	r1, #0
 8000222:	d0f7      	beq.n	8000214 <__udivsi3+0x100>
 8000224:	e776      	b.n	8000114 <__udivsi3>
 8000226:	4770      	bx	lr

08000228 <__divsi3>:
 8000228:	4603      	mov	r3, r0
 800022a:	430b      	orrs	r3, r1
 800022c:	d47f      	bmi.n	800032e <__divsi3+0x106>
 800022e:	2200      	movs	r2, #0
 8000230:	0843      	lsrs	r3, r0, #1
 8000232:	428b      	cmp	r3, r1
 8000234:	d374      	bcc.n	8000320 <__divsi3+0xf8>
 8000236:	0903      	lsrs	r3, r0, #4
 8000238:	428b      	cmp	r3, r1
 800023a:	d35f      	bcc.n	80002fc <__divsi3+0xd4>
 800023c:	0a03      	lsrs	r3, r0, #8
 800023e:	428b      	cmp	r3, r1
 8000240:	d344      	bcc.n	80002cc <__divsi3+0xa4>
 8000242:	0b03      	lsrs	r3, r0, #12
 8000244:	428b      	cmp	r3, r1
 8000246:	d328      	bcc.n	800029a <__divsi3+0x72>
 8000248:	0c03      	lsrs	r3, r0, #16
 800024a:	428b      	cmp	r3, r1
 800024c:	d30d      	bcc.n	800026a <__divsi3+0x42>
 800024e:	22ff      	movs	r2, #255	@ 0xff
 8000250:	0209      	lsls	r1, r1, #8
 8000252:	ba12      	rev	r2, r2
 8000254:	0c03      	lsrs	r3, r0, #16
 8000256:	428b      	cmp	r3, r1
 8000258:	d302      	bcc.n	8000260 <__divsi3+0x38>
 800025a:	1212      	asrs	r2, r2, #8
 800025c:	0209      	lsls	r1, r1, #8
 800025e:	d065      	beq.n	800032c <__divsi3+0x104>
 8000260:	0b03      	lsrs	r3, r0, #12
 8000262:	428b      	cmp	r3, r1
 8000264:	d319      	bcc.n	800029a <__divsi3+0x72>
 8000266:	e000      	b.n	800026a <__divsi3+0x42>
 8000268:	0a09      	lsrs	r1, r1, #8
 800026a:	0bc3      	lsrs	r3, r0, #15
 800026c:	428b      	cmp	r3, r1
 800026e:	d301      	bcc.n	8000274 <__divsi3+0x4c>
 8000270:	03cb      	lsls	r3, r1, #15
 8000272:	1ac0      	subs	r0, r0, r3
 8000274:	4152      	adcs	r2, r2
 8000276:	0b83      	lsrs	r3, r0, #14
 8000278:	428b      	cmp	r3, r1
 800027a:	d301      	bcc.n	8000280 <__divsi3+0x58>
 800027c:	038b      	lsls	r3, r1, #14
 800027e:	1ac0      	subs	r0, r0, r3
 8000280:	4152      	adcs	r2, r2
 8000282:	0b43      	lsrs	r3, r0, #13
 8000284:	428b      	cmp	r3, r1
 8000286:	d301      	bcc.n	800028c <__divsi3+0x64>
 8000288:	034b      	lsls	r3, r1, #13
 800028a:	1ac0      	subs	r0, r0, r3
 800028c:	4152      	adcs	r2, r2
 800028e:	0b03      	lsrs	r3, r0, #12
 8000290:	428b      	cmp	r3, r1
 8000292:	d301      	bcc.n	8000298 <__divsi3+0x70>
 8000294:	030b      	lsls	r3, r1, #12
 8000296:	1ac0      	subs	r0, r0, r3
 8000298:	4152      	adcs	r2, r2
 800029a:	0ac3      	lsrs	r3, r0, #11
 800029c:	428b      	cmp	r3, r1
 800029e:	d301      	bcc.n	80002a4 <__divsi3+0x7c>
 80002a0:	02cb      	lsls	r3, r1, #11
 80002a2:	1ac0      	subs	r0, r0, r3
 80002a4:	4152      	adcs	r2, r2
 80002a6:	0a83      	lsrs	r3, r0, #10
 80002a8:	428b      	cmp	r3, r1
 80002aa:	d301      	bcc.n	80002b0 <__divsi3+0x88>
 80002ac:	028b      	lsls	r3, r1, #10
 80002ae:	1ac0      	subs	r0, r0, r3
 80002b0:	4152      	adcs	r2, r2
 80002b2:	0a43      	lsrs	r3, r0, #9
 80002b4:	428b      	cmp	r3, r1
 80002b6:	d301      	bcc.n	80002bc <__divsi3+0x94>
 80002b8:	024b      	lsls	r3, r1, #9
 80002ba:	1ac0      	subs	r0, r0, r3
 80002bc:	4152      	adcs	r2, r2
 80002be:	0a03      	lsrs	r3, r0, #8
 80002c0:	428b      	cmp	r3, r1
 80002c2:	d301      	bcc.n	80002c8 <__divsi3+0xa0>
 80002c4:	020b      	lsls	r3, r1, #8
 80002c6:	1ac0      	subs	r0, r0, r3
 80002c8:	4152      	adcs	r2, r2
 80002ca:	d2cd      	bcs.n	8000268 <__divsi3+0x40>
 80002cc:	09c3      	lsrs	r3, r0, #7
 80002ce:	428b      	cmp	r3, r1
 80002d0:	d301      	bcc.n	80002d6 <__divsi3+0xae>
 80002d2:	01cb      	lsls	r3, r1, #7
 80002d4:	1ac0      	subs	r0, r0, r3
 80002d6:	4152      	adcs	r2, r2
 80002d8:	0983      	lsrs	r3, r0, #6
 80002da:	428b      	cmp	r3, r1
 80002dc:	d301      	bcc.n	80002e2 <__divsi3+0xba>
 80002de:	018b      	lsls	r3, r1, #6
 80002e0:	1ac0      	subs	r0, r0, r3
 80002e2:	4152      	adcs	r2, r2
 80002e4:	0943      	lsrs	r3, r0, #5
 80002e6:	428b      	cmp	r3, r1
 80002e8:	d301      	bcc.n	80002ee <__divsi3+0xc6>
 80002ea:	014b      	lsls	r3, r1, #5
 80002ec:	1ac0      	subs	r0, r0, r3
 80002ee:	4152      	adcs	r2, r2
 80002f0:	0903      	lsrs	r3, r0, #4
 80002f2:	428b      	cmp	r3, r1
 80002f4:	d301      	bcc.n	80002fa <__divsi3+0xd2>
 80002f6:	010b      	lsls	r3, r1, #4
 80002f8:	1ac0      	subs	r0, r0, r3
 80002fa:	4152      	adcs	r2, r2
 80002fc:	08c3      	lsrs	r3, r0, #3
 80002fe:	428b      	cmp	r3, r1
 8000300:	d301      	bcc.n	8000306 <__divsi3+0xde>
 8000302:	00cb      	lsls	r3, r1, #3
 8000304:	1ac0      	subs	r0, r0, r3
 8000306:	4152      	adcs	r2, r2
 8000308:	0883      	lsrs	r3, r0, #2
 800030a:	428b      	cmp	r3, r1
 800030c:	d301      	bcc.n	8000312 <__divsi3+0xea>
 800030e:	008b      	lsls	r3, r1, #2
 8000310:	1ac0      	subs	r0, r0, r3
 8000312:	4152      	adcs	r2, r2
 8000314:	0843      	lsrs	r3, r0, #1
 8000316:	428b      	cmp	r3, r1
 8000318:	d301      	bcc.n	800031e <__divsi3+0xf6>
 800031a:	004b      	lsls	r3, r1, #1
 800031c:	1ac0      	subs	r0, r0, r3
 800031e:	4152      	adcs	r2, r2
 8000320:	1a41      	subs	r1, r0, r1
 8000322:	d200      	bcs.n	8000326 <__divsi3+0xfe>
 8000324:	4601      	mov	r1, r0
 8000326:	4152      	adcs	r2, r2
 8000328:	4610      	mov	r0, r2
 800032a:	4770      	bx	lr
 800032c:	e05d      	b.n	80003ea <__divsi3+0x1c2>
 800032e:	0fca      	lsrs	r2, r1, #31
 8000330:	d000      	beq.n	8000334 <__divsi3+0x10c>
 8000332:	4249      	negs	r1, r1
 8000334:	1003      	asrs	r3, r0, #32
 8000336:	d300      	bcc.n	800033a <__divsi3+0x112>
 8000338:	4240      	negs	r0, r0
 800033a:	4053      	eors	r3, r2
 800033c:	2200      	movs	r2, #0
 800033e:	469c      	mov	ip, r3
 8000340:	0903      	lsrs	r3, r0, #4
 8000342:	428b      	cmp	r3, r1
 8000344:	d32d      	bcc.n	80003a2 <__divsi3+0x17a>
 8000346:	0a03      	lsrs	r3, r0, #8
 8000348:	428b      	cmp	r3, r1
 800034a:	d312      	bcc.n	8000372 <__divsi3+0x14a>
 800034c:	22fc      	movs	r2, #252	@ 0xfc
 800034e:	0189      	lsls	r1, r1, #6
 8000350:	ba12      	rev	r2, r2
 8000352:	0a03      	lsrs	r3, r0, #8
 8000354:	428b      	cmp	r3, r1
 8000356:	d30c      	bcc.n	8000372 <__divsi3+0x14a>
 8000358:	0189      	lsls	r1, r1, #6
 800035a:	1192      	asrs	r2, r2, #6
 800035c:	428b      	cmp	r3, r1
 800035e:	d308      	bcc.n	8000372 <__divsi3+0x14a>
 8000360:	0189      	lsls	r1, r1, #6
 8000362:	1192      	asrs	r2, r2, #6
 8000364:	428b      	cmp	r3, r1
 8000366:	d304      	bcc.n	8000372 <__divsi3+0x14a>
 8000368:	0189      	lsls	r1, r1, #6
 800036a:	d03a      	beq.n	80003e2 <__divsi3+0x1ba>
 800036c:	1192      	asrs	r2, r2, #6
 800036e:	e000      	b.n	8000372 <__divsi3+0x14a>
 8000370:	0989      	lsrs	r1, r1, #6
 8000372:	09c3      	lsrs	r3, r0, #7
 8000374:	428b      	cmp	r3, r1
 8000376:	d301      	bcc.n	800037c <__divsi3+0x154>
 8000378:	01cb      	lsls	r3, r1, #7
 800037a:	1ac0      	subs	r0, r0, r3
 800037c:	4152      	adcs	r2, r2
 800037e:	0983      	lsrs	r3, r0, #6
 8000380:	428b      	cmp	r3, r1
 8000382:	d301      	bcc.n	8000388 <__divsi3+0x160>
 8000384:	018b      	lsls	r3, r1, #6
 8000386:	1ac0      	subs	r0, r0, r3
 8000388:	4152      	adcs	r2, r2
 800038a:	0943      	lsrs	r3, r0, #5
 800038c:	428b      	cmp	r3, r1
 800038e:	d301      	bcc.n	8000394 <__divsi3+0x16c>
 8000390:	014b      	lsls	r3, r1, #5
 8000392:	1ac0      	subs	r0, r0, r3
 8000394:	4152      	adcs	r2, r2
 8000396:	0903      	lsrs	r3, r0, #4
 8000398:	428b      	cmp	r3, r1
 800039a:	d301      	bcc.n	80003a0 <__divsi3+0x178>
 800039c:	010b      	lsls	r3, r1, #4
 800039e:	1ac0      	subs	r0, r0, r3
 80003a0:	4152      	adcs	r2, r2
 80003a2:	08c3      	lsrs	r3, r0, #3
 80003a4:	428b      	cmp	r3, r1
 80003a6:	d301      	bcc.n	80003ac <__divsi3+0x184>
 80003a8:	00cb      	lsls	r3, r1, #3
 80003aa:	1ac0      	subs	r0, r0, r3
 80003ac:	4152      	adcs	r2, r2
 80003ae:	0883      	lsrs	r3, r0, #2
 80003b0:	428b      	cmp	r3, r1
 80003b2:	d301      	bcc.n	80003b8 <__divsi3+0x190>
 80003b4:	008b      	lsls	r3, r1, #2
 80003b6:	1ac0      	subs	r0, r0, r3
 80003b8:	4152      	adcs	r2, r2
 80003ba:	d2d9      	bcs.n	8000370 <__divsi3+0x148>
 80003bc:	0843      	lsrs	r3, r0, #1
 80003be:	428b      	cmp	r3, r1
 80003c0:	d301      	bcc.n	80003c6 <__divsi3+0x19e>
 80003c2:	004b      	lsls	r3, r1, #1
 80003c4:	1ac0      	subs	r0, r0, r3
 80003c6:	4152      	adcs	r2, r2
 80003c8:	1a41      	subs	r1, r0, r1
 80003ca:	d200      	bcs.n	80003ce <__divsi3+0x1a6>
 80003cc:	4601      	mov	r1, r0
 80003ce:	4663      	mov	r3, ip
 80003d0:	4152      	adcs	r2, r2
 80003d2:	105b      	asrs	r3, r3, #1
 80003d4:	4610      	mov	r0, r2
 80003d6:	d301      	bcc.n	80003dc <__divsi3+0x1b4>
 80003d8:	4240      	negs	r0, r0
 80003da:	2b00      	cmp	r3, #0
 80003dc:	d500      	bpl.n	80003e0 <__divsi3+0x1b8>
 80003de:	4249      	negs	r1, r1
 80003e0:	4770      	bx	lr
 80003e2:	4663      	mov	r3, ip
 80003e4:	105b      	asrs	r3, r3, #1
 80003e6:	d300      	bcc.n	80003ea <__divsi3+0x1c2>
 80003e8:	4240      	negs	r0, r0
 80003ea:	b501      	push	{r0, lr}
 80003ec:	2000      	movs	r0, #0
 80003ee:	f000 f805 	bl	80003fc <__aeabi_idiv0>
 80003f2:	bd02      	pop	{r1, pc}

080003f4 <__aeabi_idivmod>:
 80003f4:	2900      	cmp	r1, #0
 80003f6:	d0f8      	beq.n	80003ea <__divsi3+0x1c2>
 80003f8:	e716      	b.n	8000228 <__divsi3>
 80003fa:	4770      	bx	lr

080003fc <__aeabi_idiv0>:
 80003fc:	4770      	bx	lr
 80003fe:	46c0      	nop			@ (mov r8, r8)

08000400 <LED_Load_BMP>:
 8000400:	b5f0      	push	{r4, r5, r6, r7, lr}
 8000402:	4657      	mov	r7, sl
 8000404:	464e      	mov	r6, r9
 8000406:	4645      	mov	r5, r8
 8000408:	46de      	mov	lr, fp
 800040a:	4699      	mov	r9, r3
 800040c:	b5e0      	push	{r5, r6, r7, lr}
 800040e:	2368      	movs	r3, #104	@ 0x68
 8000410:	0006      	movs	r6, r0
 8000412:	2010      	movs	r0, #16
 8000414:	b097      	sub	sp, #92	@ 0x5c
 8000416:	af02      	add	r7, sp, #8
 8000418:	181b      	adds	r3, r3, r0
 800041a:	19db      	adds	r3, r3, r7
 800041c:	468a      	mov	sl, r1
 800041e:	881c      	ldrh	r4, [r3, #0]
 8000420:	2108      	movs	r1, #8
 8000422:	2300      	movs	r3, #0
 8000424:	1809      	adds	r1, r1, r0
 8000426:	617b      	str	r3, [r7, #20]
 8000428:	3314      	adds	r3, #20
 800042a:	4690      	mov	r8, r2
 800042c:	6ff8      	ldr	r0, [r7, #124]	@ 0x7c
 800042e:	2236      	movs	r2, #54	@ 0x36
 8000430:	18fb      	adds	r3, r7, r3
 8000432:	19c9      	adds	r1, r1, r7
 8000434:	f003 ff28 	bl	8004288 <f_read>
 8000438:	2800      	cmp	r0, #0
 800043a:	d102      	bne.n	8000442 <LED_Load_BMP+0x42>
 800043c:	697b      	ldr	r3, [r7, #20]
 800043e:	2b36      	cmp	r3, #54	@ 0x36
 8000440:	d008      	beq.n	8000454 <LED_Load_BMP+0x54>
 8000442:	2001      	movs	r0, #1
 8000444:	46bd      	mov	sp, r7
 8000446:	b015      	add	sp, #84	@ 0x54
 8000448:	bcf0      	pop	{r4, r5, r6, r7}
 800044a:	46bb      	mov	fp, r7
 800044c:	46b2      	mov	sl, r6
 800044e:	46a9      	mov	r9, r5
 8000450:	46a0      	mov	r8, r4
 8000452:	bdf0      	pop	{r4, r5, r6, r7, pc}
 8000454:	2280      	movs	r2, #128	@ 0x80
 8000456:	18ba      	adds	r2, r7, r2
 8000458:	6812      	ldr	r2, [r2, #0]
 800045a:	6013      	str	r3, [r2, #0]
 800045c:	4b61      	ldr	r3, [pc, #388]	@ (80005e4 <LED_Load_BMP+0x1e4>)
 800045e:	8b3a      	ldrh	r2, [r7, #24]
 8000460:	429a      	cmp	r2, r3
 8000462:	d000      	beq.n	8000466 <LED_Load_BMP+0x66>
 8000464:	e0b7      	b.n	80005d6 <LED_Load_BMP+0x1d6>
 8000466:	8d3b      	ldrh	r3, [r7, #40]	@ 0x28
 8000468:	8cfa      	ldrh	r2, [r7, #38]	@ 0x26
 800046a:	041b      	lsls	r3, r3, #16
 800046c:	4313      	orrs	r3, r2
 800046e:	2b28      	cmp	r3, #40	@ 0x28
 8000470:	d000      	beq.n	8000474 <LED_Load_BMP+0x74>
 8000472:	e0ae      	b.n	80005d2 <LED_Load_BMP+0x1d2>
 8000474:	8ebb      	ldrh	r3, [r7, #52]	@ 0x34
 8000476:	2b18      	cmp	r3, #24
 8000478:	d000      	beq.n	800047c <LED_Load_BMP+0x7c>
 800047a:	e0ae      	b.n	80005da <LED_Load_BMP+0x1da>
 800047c:	8f3b      	ldrh	r3, [r7, #56]	@ 0x38
 800047e:	8efa      	ldrh	r2, [r7, #54]	@ 0x36
 8000480:	041b      	lsls	r3, r3, #16
 8000482:	4313      	orrs	r3, r2
 8000484:	60bb      	str	r3, [r7, #8]
 8000486:	d000      	beq.n	800048a <LED_Load_BMP+0x8a>
 8000488:	e0a9      	b.n	80005de <LED_Load_BMP+0x1de>
 800048a:	8e3b      	ldrh	r3, [r7, #48]	@ 0x30
 800048c:	8dfa      	ldrh	r2, [r7, #46]	@ 0x2e
 800048e:	041b      	lsls	r3, r3, #16
 8000490:	4313      	orrs	r3, r2
 8000492:	17da      	asrs	r2, r3, #31
 8000494:	189b      	adds	r3, r3, r2
 8000496:	4053      	eors	r3, r2
 8000498:	429c      	cmp	r4, r3
 800049a:	dd00      	ble.n	800049e <LED_Load_BMP+0x9e>
 800049c:	b29c      	uxth	r4, r3
 800049e:	8dba      	ldrh	r2, [r7, #44]	@ 0x2c
 80004a0:	8d7b      	ldrh	r3, [r7, #42]	@ 0x2a
 80004a2:	0412      	lsls	r2, r2, #16
 80004a4:	431a      	orrs	r2, r3
 80004a6:	4591      	cmp	r9, r2
 80004a8:	dd01      	ble.n	80004ae <LED_Load_BMP+0xae>
 80004aa:	b293      	uxth	r3, r2
 80004ac:	4699      	mov	r9, r3
 80004ae:	0053      	lsls	r3, r2, #1
 80004b0:	189b      	adds	r3, r3, r2
 80004b2:	2203      	movs	r2, #3
 80004b4:	421a      	tst	r2, r3
 80004b6:	d008      	beq.n	80004ca <LED_Load_BMP+0xca>
 80004b8:	17d9      	asrs	r1, r3, #31
 80004ba:	0f89      	lsrs	r1, r1, #30
 80004bc:	1858      	adds	r0, r3, r1
 80004be:	4002      	ands	r2, r0
 80004c0:	1a89      	subs	r1, r1, r2
 80004c2:	1d0a      	adds	r2, r1, #4
 80004c4:	4694      	mov	ip, r2
 80004c6:	60ba      	str	r2, [r7, #8]
 80004c8:	4463      	add	r3, ip
 80004ca:	466a      	mov	r2, sp
 80004cc:	3307      	adds	r3, #7
 80004ce:	08db      	lsrs	r3, r3, #3
 80004d0:	00db      	lsls	r3, r3, #3
 80004d2:	1ad3      	subs	r3, r2, r3
 80004d4:	469d      	mov	sp, r3
 80004d6:	8cb9      	ldrh	r1, [r7, #36]	@ 0x24
 80004d8:	ab02      	add	r3, sp, #8
 80004da:	001d      	movs	r5, r3
 80004dc:	8c7b      	ldrh	r3, [r7, #34]	@ 0x22
 80004de:	0409      	lsls	r1, r1, #16
 80004e0:	4319      	orrs	r1, r3
 80004e2:	6ffb      	ldr	r3, [r7, #124]	@ 0x7c
 80004e4:	3936      	subs	r1, #54	@ 0x36
 80004e6:	695b      	ldr	r3, [r3, #20]
 80004e8:	6ff8      	ldr	r0, [r7, #124]	@ 0x7c
 80004ea:	18c9      	adds	r1, r1, r3
 80004ec:	f003 ffb6 	bl	800445c <f_lseek>
 80004f0:	2800      	cmp	r0, #0
 80004f2:	d1a6      	bne.n	8000442 <LED_Load_BMP+0x42>
 80004f4:	2180      	movs	r1, #128	@ 0x80
 80004f6:	8cbb      	ldrh	r3, [r7, #36]	@ 0x24
 80004f8:	8c7a      	ldrh	r2, [r7, #34]	@ 0x22
 80004fa:	041b      	lsls	r3, r3, #16
 80004fc:	4313      	orrs	r3, r2
 80004fe:	187a      	adds	r2, r7, r1
 8000500:	6812      	ldr	r2, [r2, #0]
 8000502:	3b36      	subs	r3, #54	@ 0x36
 8000504:	6812      	ldr	r2, [r2, #0]
 8000506:	18d3      	adds	r3, r2, r3
 8000508:	187a      	adds	r2, r7, r1
 800050a:	6812      	ldr	r2, [r2, #0]
 800050c:	6013      	str	r3, [r2, #0]
 800050e:	8e3b      	ldrh	r3, [r7, #48]	@ 0x30
 8000510:	8dfa      	ldrh	r2, [r7, #46]	@ 0x2e
 8000512:	041b      	lsls	r3, r3, #16
 8000514:	4313      	orrs	r3, r2
 8000516:	2201      	movs	r2, #1
 8000518:	607a      	str	r2, [r7, #4]
 800051a:	2b00      	cmp	r3, #0
 800051c:	dd06      	ble.n	800052c <LED_Load_BMP+0x12c>
 800051e:	4643      	mov	r3, r8
 8000520:	3b01      	subs	r3, #1
 8000522:	191b      	adds	r3, r3, r4
 8000524:	b29b      	uxth	r3, r3
 8000526:	4698      	mov	r8, r3
 8000528:	4b2f      	ldr	r3, [pc, #188]	@ (80005e8 <LED_Load_BMP+0x1e8>)
 800052a:	607b      	str	r3, [r7, #4]
 800052c:	1e63      	subs	r3, r4, #1
 800052e:	b29b      	uxth	r3, r3
 8000530:	2c00      	cmp	r4, #0
 8000532:	d100      	bne.n	8000536 <LED_Load_BMP+0x136>
 8000534:	e786      	b.n	8000444 <LED_Load_BMP+0x44>
 8000536:	46ab      	mov	fp, r5
 8000538:	60fb      	str	r3, [r7, #12]
 800053a:	6038      	str	r0, [r7, #0]
 800053c:	8dbb      	ldrh	r3, [r7, #44]	@ 0x2c
 800053e:	8d7a      	ldrh	r2, [r7, #42]	@ 0x2a
 8000540:	041b      	lsls	r3, r3, #16
 8000542:	4313      	orrs	r3, r2
 8000544:	68bc      	ldr	r4, [r7, #8]
 8000546:	005a      	lsls	r2, r3, #1
 8000548:	18d2      	adds	r2, r2, r3
 800054a:	46a4      	mov	ip, r4
 800054c:	2314      	movs	r3, #20
 800054e:	4659      	mov	r1, fp
 8000550:	6ff8      	ldr	r0, [r7, #124]	@ 0x7c
 8000552:	4462      	add	r2, ip
 8000554:	18fb      	adds	r3, r7, r3
 8000556:	f003 fe97 	bl	8004288 <f_read>
 800055a:	2800      	cmp	r0, #0
 800055c:	d000      	beq.n	8000560 <LED_Load_BMP+0x160>
 800055e:	e770      	b.n	8000442 <LED_Load_BMP+0x42>
 8000560:	46a4      	mov	ip, r4
 8000562:	8dbb      	ldrh	r3, [r7, #44]	@ 0x2c
 8000564:	8d7a      	ldrh	r2, [r7, #42]	@ 0x2a
 8000566:	041b      	lsls	r3, r3, #16
 8000568:	4313      	orrs	r3, r2
 800056a:	005a      	lsls	r2, r3, #1
 800056c:	18d3      	adds	r3, r2, r3
 800056e:	697a      	ldr	r2, [r7, #20]
 8000570:	4463      	add	r3, ip
 8000572:	4293      	cmp	r3, r2
 8000574:	d000      	beq.n	8000578 <LED_Load_BMP+0x178>
 8000576:	e764      	b.n	8000442 <LED_Load_BMP+0x42>
 8000578:	2180      	movs	r1, #128	@ 0x80
 800057a:	187a      	adds	r2, r7, r1
 800057c:	6812      	ldr	r2, [r2, #0]
 800057e:	465c      	mov	r4, fp
 8000580:	6812      	ldr	r2, [r2, #0]
 8000582:	2500      	movs	r5, #0
 8000584:	18d3      	adds	r3, r2, r3
 8000586:	187a      	adds	r2, r7, r1
 8000588:	6812      	ldr	r2, [r2, #0]
 800058a:	6013      	str	r3, [r2, #0]
 800058c:	464b      	mov	r3, r9
 800058e:	2b00      	cmp	r3, #0
 8000590:	d012      	beq.n	80005b8 <LED_Load_BMP+0x1b8>
 8000592:	4653      	mov	r3, sl
 8000594:	1959      	adds	r1, r3, r5
 8000596:	4642      	mov	r2, r8
 8000598:	b289      	uxth	r1, r1
 800059a:	0030      	movs	r0, r6
 800059c:	f005 fdf0 	bl	8006180 <LED_GetIdByXY>
 80005a0:	0001      	movs	r1, r0
 80005a2:	7820      	ldrb	r0, [r4, #0]
 80005a4:	7863      	ldrb	r3, [r4, #1]
 80005a6:	78a2      	ldrb	r2, [r4, #2]
 80005a8:	3501      	adds	r5, #1
 80005aa:	9000      	str	r0, [sp, #0]
 80005ac:	0030      	movs	r0, r6
 80005ae:	f005 fdc1 	bl	8006134 <LED_SetPixelByIdRGB>
 80005b2:	3403      	adds	r4, #3
 80005b4:	454d      	cmp	r5, r9
 80005b6:	dbec      	blt.n	8000592 <LED_Load_BMP+0x192>
 80005b8:	687b      	ldr	r3, [r7, #4]
 80005ba:	4a0b      	ldr	r2, [pc, #44]	@ (80005e8 <LED_Load_BMP+0x1e8>)
 80005bc:	4443      	add	r3, r8
 80005be:	b29b      	uxth	r3, r3
 80005c0:	4698      	mov	r8, r3
 80005c2:	68fb      	ldr	r3, [r7, #12]
 80005c4:	3b01      	subs	r3, #1
 80005c6:	b29b      	uxth	r3, r3
 80005c8:	60fb      	str	r3, [r7, #12]
 80005ca:	4293      	cmp	r3, r2
 80005cc:	d1b6      	bne.n	800053c <LED_Load_BMP+0x13c>
 80005ce:	6838      	ldr	r0, [r7, #0]
 80005d0:	e738      	b.n	8000444 <LED_Load_BMP+0x44>
 80005d2:	2003      	movs	r0, #3
 80005d4:	e736      	b.n	8000444 <LED_Load_BMP+0x44>
 80005d6:	2002      	movs	r0, #2
 80005d8:	e734      	b.n	8000444 <LED_Load_BMP+0x44>
 80005da:	2004      	movs	r0, #4
 80005dc:	e732      	b.n	8000444 <LED_Load_BMP+0x44>
 80005de:	2005      	movs	r0, #5
 80005e0:	e730      	b.n	8000444 <LED_Load_BMP+0x44>
 80005e2:	46c0      	nop			@ (mov r8, r8)
 80005e4:	00004d42 	.word	0x00004d42
 80005e8:	0000ffff 	.word	0x0000ffff

080005ec <PlayAVI>:
 80005ec:	b5f0      	push	{r4, r5, r6, r7, lr}
 80005ee:	46de      	mov	lr, fp
 80005f0:	4657      	mov	r7, sl
 80005f2:	464e      	mov	r6, r9
 80005f4:	4645      	mov	r5, r8
 80005f6:	b5e0      	push	{r5, r6, r7, lr}
 80005f8:	b099      	sub	sp, #100	@ 0x64
 80005fa:	9305      	str	r3, [sp, #20]
 80005fc:	ab22      	add	r3, sp, #136	@ 0x88
 80005fe:	881b      	ldrh	r3, [r3, #0]
 8000600:	000f      	movs	r7, r1
 8000602:	9306      	str	r3, [sp, #24]
 8000604:	ab23      	add	r3, sp, #140	@ 0x8c
 8000606:	881b      	ldrh	r3, [r3, #0]
 8000608:	4691      	mov	r9, r2
 800060a:	469a      	mov	sl, r3
 800060c:	ab24      	add	r3, sp, #144	@ 0x90
 800060e:	881b      	ldrh	r3, [r3, #0]
 8000610:	4680      	mov	r8, r0
 8000612:	469b      	mov	fp, r3
 8000614:	f7ff fd76 	bl	8000104 <strlen>
 8000618:	0004      	movs	r4, r0
 800061a:	0038      	movs	r0, r7
 800061c:	f7ff fd72 	bl	8000104 <strlen>
 8000620:	0006      	movs	r6, r0
 8000622:	1820      	adds	r0, r4, r0
 8000624:	3002      	adds	r0, #2
 8000626:	f005 fefb 	bl	8006420 <malloc>
 800062a:	0022      	movs	r2, r4
 800062c:	4641      	mov	r1, r8
 800062e:	0005      	movs	r5, r0
 8000630:	f006 f86a 	bl	8006708 <memcpy>
 8000634:	232f      	movs	r3, #47	@ 0x2f
 8000636:	552b      	strb	r3, [r5, r4]
 8000638:	3401      	adds	r4, #1
 800063a:	0039      	movs	r1, r7
 800063c:	1928      	adds	r0, r5, r4
 800063e:	1c72      	adds	r2, r6, #1
 8000640:	f006 f862 	bl	8006708 <memcpy>
 8000644:	2201      	movs	r2, #1
 8000646:	0029      	movs	r1, r5
 8000648:	a810      	add	r0, sp, #64	@ 0x40
 800064a:	f003 fdcb 	bl	80041e4 <f_open>
 800064e:	0004      	movs	r4, r0
 8000650:	0028      	movs	r0, r5
 8000652:	f005 feef 	bl	8006434 <free>
 8000656:	2001      	movs	r0, #1
 8000658:	2c00      	cmp	r4, #0
 800065a:	d006      	beq.n	800066a <PlayAVI+0x7e>
 800065c:	b019      	add	sp, #100	@ 0x64
 800065e:	bcf0      	pop	{r4, r5, r6, r7}
 8000660:	46bb      	mov	fp, r7
 8000662:	46b2      	mov	sl, r6
 8000664:	46a9      	mov	r9, r5
 8000666:	46a0      	mov	r8, r4
 8000668:	bdf0      	pop	{r4, r5, r6, r7, pc}
 800066a:	2194      	movs	r1, #148	@ 0x94
 800066c:	f005 fea0 	bl	80063b0 <calloc>
 8000670:	a910      	add	r1, sp, #64	@ 0x40
 8000672:	0004      	movs	r4, r0
 8000674:	f000 f900 	bl	8000878 <Read_RIFF_Header>
 8000678:	2800      	cmp	r0, #0
 800067a:	d000      	beq.n	800067e <PlayAVI+0x92>
 800067c:	e0d7      	b.n	800082e <PlayAVI+0x242>
 800067e:	7823      	ldrb	r3, [r4, #0]
 8000680:	2b00      	cmp	r3, #0
 8000682:	d000      	beq.n	8000686 <PlayAVI+0x9a>
 8000684:	e08b      	b.n	800079e <PlayAVI+0x1b2>
 8000686:	335c      	adds	r3, #92	@ 0x5c
 8000688:	6da2      	ldr	r2, [r4, #88]	@ 0x58
 800068a:	5ce3      	ldrb	r3, [r4, r3]
 800068c:	0a12      	lsrs	r2, r2, #8
 800068e:	061b      	lsls	r3, r3, #24
 8000690:	4313      	orrs	r3, r2
 8000692:	d000      	beq.n	8000696 <PlayAVI+0xaa>
 8000694:	e083      	b.n	800079e <PlayAVI+0x1b2>
 8000696:	238c      	movs	r3, #140	@ 0x8c
 8000698:	a810      	add	r0, sp, #64	@ 0x40
 800069a:	58e1      	ldr	r1, [r4, r3]
 800069c:	f003 fede 	bl	800445c <f_lseek>
 80006a0:	21fa      	movs	r1, #250	@ 0xfa
 80006a2:	68a3      	ldr	r3, [r4, #8]
 80006a4:	7b20      	ldrb	r0, [r4, #12]
 80006a6:	0a1b      	lsrs	r3, r3, #8
 80006a8:	0600      	lsls	r0, r0, #24
 80006aa:	4318      	orrs	r0, r3
 80006ac:	0089      	lsls	r1, r1, #2
 80006ae:	f7ff fd31 	bl	8000114 <__udivsi3>
 80006b2:	9007      	str	r0, [sp, #28]
 80006b4:	6c60      	ldr	r0, [r4, #68]	@ 0x44
 80006b6:	2800      	cmp	r0, #0
 80006b8:	d001      	beq.n	80006be <PlayAVI+0xd2>
 80006ba:	f005 febb 	bl	8006434 <free>
 80006be:	0020      	movs	r0, r4
 80006c0:	f005 feb8 	bl	8006434 <free>
 80006c4:	2300      	movs	r3, #0
 80006c6:	9a15      	ldr	r2, [sp, #84]	@ 0x54
 80006c8:	9308      	str	r3, [sp, #32]
 80006ca:	9b13      	ldr	r3, [sp, #76]	@ 0x4c
 80006cc:	429a      	cmp	r2, r3
 80006ce:	d23c      	bcs.n	800074a <PlayAVI+0x15e>
 80006d0:	2301      	movs	r3, #1
 80006d2:	4698      	mov	r8, r3
 80006d4:	4d61      	ldr	r5, [pc, #388]	@ (800085c <PlayAVI+0x270>)
 80006d6:	4f62      	ldr	r7, [pc, #392]	@ (8000860 <PlayAVI+0x274>)
 80006d8:	2208      	movs	r2, #8
 80006da:	ab08      	add	r3, sp, #32
 80006dc:	a90a      	add	r1, sp, #40	@ 0x28
 80006de:	a810      	add	r0, sp, #64	@ 0x40
 80006e0:	682e      	ldr	r6, [r5, #0]
 80006e2:	f003 fdd1 	bl	8004288 <f_read>
 80006e6:	1e04      	subs	r4, r0, #0
 80006e8:	d12f      	bne.n	800074a <PlayAVI+0x15e>
 80006ea:	9b08      	ldr	r3, [sp, #32]
 80006ec:	2b08      	cmp	r3, #8
 80006ee:	d12c      	bne.n	800074a <PlayAVI+0x15e>
 80006f0:	9b0a      	ldr	r3, [sp, #40]	@ 0x28
 80006f2:	42bb      	cmp	r3, r7
 80006f4:	d066      	beq.n	80007c4 <PlayAVI+0x1d8>
 80006f6:	4642      	mov	r2, r8
 80006f8:	9b0b      	ldr	r3, [sp, #44]	@ 0x2c
 80006fa:	421a      	tst	r2, r3
 80006fc:	d001      	beq.n	8000702 <PlayAVI+0x116>
 80006fe:	3301      	adds	r3, #1
 8000700:	930b      	str	r3, [sp, #44]	@ 0x2c
 8000702:	2200      	movs	r2, #0
 8000704:	9209      	str	r2, [sp, #36]	@ 0x24
 8000706:	aa04      	add	r2, sp, #16
 8000708:	8b52      	ldrh	r2, [r2, #26]
 800070a:	4956      	ldr	r1, [pc, #344]	@ (8000864 <PlayAVI+0x278>)
 800070c:	428a      	cmp	r2, r1
 800070e:	d02b      	beq.n	8000768 <PlayAVI+0x17c>
 8000710:	4955      	ldr	r1, [pc, #340]	@ (8000868 <PlayAVI+0x27c>)
 8000712:	2000      	movs	r0, #0
 8000714:	428a      	cmp	r2, r1
 8000716:	d027      	beq.n	8000768 <PlayAVI+0x17c>
 8000718:	4298      	cmp	r0, r3
 800071a:	d007      	beq.n	800072c <PlayAVI+0x140>
 800071c:	9915      	ldr	r1, [sp, #84]	@ 0x54
 800071e:	1859      	adds	r1, r3, r1
 8000720:	1a09      	subs	r1, r1, r0
 8000722:	a810      	add	r0, sp, #64	@ 0x40
 8000724:	f003 fe9a 	bl	800445c <f_lseek>
 8000728:	2800      	cmp	r0, #0
 800072a:	d10e      	bne.n	800074a <PlayAVI+0x15e>
 800072c:	f005 fad0 	bl	8005cd0 <KEYB_kbhit>
 8000730:	2800      	cmp	r0, #0
 8000732:	d15f      	bne.n	80007f4 <PlayAVI+0x208>
 8000734:	6828      	ldr	r0, [r5, #0]
 8000736:	9a07      	ldr	r2, [sp, #28]
 8000738:	1b83      	subs	r3, r0, r6
 800073a:	429a      	cmp	r2, r3
 800073c:	d901      	bls.n	8000742 <PlayAVI+0x156>
 800073e:	2c00      	cmp	r4, #0
 8000740:	d13a      	bne.n	80007b8 <PlayAVI+0x1cc>
 8000742:	9a15      	ldr	r2, [sp, #84]	@ 0x54
 8000744:	9b13      	ldr	r3, [sp, #76]	@ 0x4c
 8000746:	429a      	cmp	r2, r3
 8000748:	d3c6      	bcc.n	80006d8 <PlayAVI+0xec>
 800074a:	a810      	add	r0, sp, #64	@ 0x40
 800074c:	f003 fe6c 	bl	8004428 <f_close>
 8000750:	4648      	mov	r0, r9
 8000752:	f005 fbb3 	bl	8005ebc <LED_DeviceWaitUpdate>
 8000756:	2100      	movs	r1, #0
 8000758:	4648      	mov	r0, r9
 800075a:	f005 fcfb 	bl	8006154 <LED_FillColor>
 800075e:	4648      	mov	r0, r9
 8000760:	f005 fb6a 	bl	8005e38 <LED_DeviceUpdate>
 8000764:	2000      	movs	r0, #0
 8000766:	e779      	b.n	800065c <PlayAVI+0x70>
 8000768:	2b00      	cmp	r3, #0
 800076a:	d0ea      	beq.n	8000742 <PlayAVI+0x156>
 800076c:	4648      	mov	r0, r9
 800076e:	f005 fba5 	bl	8005ebc <LED_DeviceWaitUpdate>
 8000772:	ab09      	add	r3, sp, #36	@ 0x24
 8000774:	9302      	str	r3, [sp, #8]
 8000776:	ab10      	add	r3, sp, #64	@ 0x40
 8000778:	9301      	str	r3, [sp, #4]
 800077a:	465b      	mov	r3, fp
 800077c:	4648      	mov	r0, r9
 800077e:	9300      	str	r3, [sp, #0]
 8000780:	9a06      	ldr	r2, [sp, #24]
 8000782:	4653      	mov	r3, sl
 8000784:	9905      	ldr	r1, [sp, #20]
 8000786:	f7ff fe3b 	bl	8000400 <LED_Load_BMP>
 800078a:	0004      	movs	r4, r0
 800078c:	4648      	mov	r0, r9
 800078e:	f005 fb53 	bl	8005e38 <LED_DeviceUpdate>
 8000792:	2c00      	cmp	r4, #0
 8000794:	d1d9      	bne.n	800074a <PlayAVI+0x15e>
 8000796:	9b0b      	ldr	r3, [sp, #44]	@ 0x2c
 8000798:	9809      	ldr	r0, [sp, #36]	@ 0x24
 800079a:	3401      	adds	r4, #1
 800079c:	e7bc      	b.n	8000718 <PlayAVI+0x12c>
 800079e:	6c60      	ldr	r0, [r4, #68]	@ 0x44
 80007a0:	2800      	cmp	r0, #0
 80007a2:	d001      	beq.n	80007a8 <PlayAVI+0x1bc>
 80007a4:	f005 fe46 	bl	8006434 <free>
 80007a8:	0020      	movs	r0, r4
 80007aa:	f005 fe43 	bl	8006434 <free>
 80007ae:	a810      	add	r0, sp, #64	@ 0x40
 80007b0:	f003 fe3a 	bl	8004428 <f_close>
 80007b4:	2003      	movs	r0, #3
 80007b6:	e751      	b.n	800065c <PlayAVI+0x70>
 80007b8:	4694      	mov	ip, r2
 80007ba:	1a30      	subs	r0, r6, r0
 80007bc:	4460      	add	r0, ip
 80007be:	f002 fbbf 	bl	8002f40 <LL_mDelay>
 80007c2:	e7be      	b.n	8000742 <PlayAVI+0x156>
 80007c4:	2210      	movs	r2, #16
 80007c6:	ab08      	add	r3, sp, #32
 80007c8:	a90c      	add	r1, sp, #48	@ 0x30
 80007ca:	a810      	add	r0, sp, #64	@ 0x40
 80007cc:	f003 fd5c 	bl	8004288 <f_read>
 80007d0:	2800      	cmp	r0, #0
 80007d2:	d1ba      	bne.n	800074a <PlayAVI+0x15e>
 80007d4:	9b08      	ldr	r3, [sp, #32]
 80007d6:	2b10      	cmp	r3, #16
 80007d8:	d1b7      	bne.n	800074a <PlayAVI+0x15e>
 80007da:	4b24      	ldr	r3, [pc, #144]	@ (800086c <PlayAVI+0x280>)
 80007dc:	9a0c      	ldr	r2, [sp, #48]	@ 0x30
 80007de:	429a      	cmp	r2, r3
 80007e0:	d1b3      	bne.n	800074a <PlayAVI+0x15e>
 80007e2:	4b23      	ldr	r3, [pc, #140]	@ (8000870 <PlayAVI+0x284>)
 80007e4:	9a0d      	ldr	r2, [sp, #52]	@ 0x34
 80007e6:	429a      	cmp	r2, r3
 80007e8:	d1af      	bne.n	800074a <PlayAVI+0x15e>
 80007ea:	4b22      	ldr	r3, [pc, #136]	@ (8000874 <PlayAVI+0x288>)
 80007ec:	9a0f      	ldr	r2, [sp, #60]	@ 0x3c
 80007ee:	429a      	cmp	r2, r3
 80007f0:	d1ab      	bne.n	800074a <PlayAVI+0x15e>
 80007f2:	e7a6      	b.n	8000742 <PlayAVI+0x156>
 80007f4:	f005 fa4e 	bl	8005c94 <KEYB_Inkeys>
 80007f8:	0743      	lsls	r3, r0, #29
 80007fa:	d420      	bmi.n	800083e <PlayAVI+0x252>
 80007fc:	2301      	movs	r3, #1
 80007fe:	4003      	ands	r3, r0
 8000800:	0780      	lsls	r0, r0, #30
 8000802:	d50a      	bpl.n	800081a <PlayAVI+0x22e>
 8000804:	464a      	mov	r2, r9
 8000806:	7c92      	ldrb	r2, [r2, #18]
 8000808:	2aff      	cmp	r2, #255	@ 0xff
 800080a:	d003      	beq.n	8000814 <PlayAVI+0x228>
 800080c:	4649      	mov	r1, r9
 800080e:	3201      	adds	r2, #1
 8000810:	b2d2      	uxtb	r2, r2
 8000812:	748a      	strb	r2, [r1, #18]
 8000814:	2b00      	cmp	r3, #0
 8000816:	d106      	bne.n	8000826 <PlayAVI+0x23a>
 8000818:	e78c      	b.n	8000734 <PlayAVI+0x148>
 800081a:	2b00      	cmp	r3, #0
 800081c:	d08a      	beq.n	8000734 <PlayAVI+0x148>
 800081e:	464b      	mov	r3, r9
 8000820:	7c9a      	ldrb	r2, [r3, #18]
 8000822:	2a00      	cmp	r2, #0
 8000824:	d086      	beq.n	8000734 <PlayAVI+0x148>
 8000826:	464b      	mov	r3, r9
 8000828:	3a01      	subs	r2, #1
 800082a:	749a      	strb	r2, [r3, #18]
 800082c:	e782      	b.n	8000734 <PlayAVI+0x148>
 800082e:	0020      	movs	r0, r4
 8000830:	f005 fe00 	bl	8006434 <free>
 8000834:	a810      	add	r0, sp, #64	@ 0x40
 8000836:	f003 fdf7 	bl	8004428 <f_close>
 800083a:	2002      	movs	r0, #2
 800083c:	e70e      	b.n	800065c <PlayAVI+0x70>
 800083e:	a810      	add	r0, sp, #64	@ 0x40
 8000840:	f003 fdf2 	bl	8004428 <f_close>
 8000844:	4648      	mov	r0, r9
 8000846:	f005 fb39 	bl	8005ebc <LED_DeviceWaitUpdate>
 800084a:	2100      	movs	r1, #0
 800084c:	4648      	mov	r0, r9
 800084e:	f005 fc81 	bl	8006154 <LED_FillColor>
 8000852:	4648      	mov	r0, r9
 8000854:	f005 faf0 	bl	8005e38 <LED_DeviceUpdate>
 8000858:	2004      	movs	r0, #4
 800085a:	e6ff      	b.n	800065c <PlayAVI+0x70>
 800085c:	20000370 	.word	0x20000370
 8000860:	46464952 	.word	0x46464952
 8000864:	00006364 	.word	0x00006364
 8000868:	00004344 	.word	0x00004344
 800086c:	58495641 	.word	0x58495641
 8000870:	5453494c 	.word	0x5453494c
 8000874:	69766f6d 	.word	0x69766f6d

08000878 <Read_RIFF_Header>:
 8000878:	b5f0      	push	{r4, r5, r6, r7, lr}
 800087a:	46de      	mov	lr, fp
 800087c:	464e      	mov	r6, r9
 800087e:	4645      	mov	r5, r8
 8000880:	4657      	mov	r7, sl
 8000882:	000c      	movs	r4, r1
 8000884:	2300      	movs	r3, #0
 8000886:	b5e0      	push	{r5, r6, r7, lr}
 8000888:	b085      	sub	sp, #20
 800088a:	9300      	str	r3, [sp, #0]
 800088c:	0006      	movs	r6, r0
 800088e:	466b      	mov	r3, sp
 8000890:	220c      	movs	r2, #12
 8000892:	0020      	movs	r0, r4
 8000894:	a901      	add	r1, sp, #4
 8000896:	f003 fcf7 	bl	8004288 <f_read>
 800089a:	1e05      	subs	r5, r0, #0
 800089c:	d108      	bne.n	80008b0 <Read_RIFF_Header+0x38>
 800089e:	9b00      	ldr	r3, [sp, #0]
 80008a0:	2b0c      	cmp	r3, #12
 80008a2:	d105      	bne.n	80008b0 <Read_RIFF_Header+0x38>
 80008a4:	4b7d      	ldr	r3, [pc, #500]	@ (8000a9c <Read_RIFF_Header+0x224>)
 80008a6:	9a01      	ldr	r2, [sp, #4]
 80008a8:	429a      	cmp	r2, r3
 80008aa:	d00a      	beq.n	80008c2 <Read_RIFF_Header+0x4a>
 80008ac:	2501      	movs	r5, #1
 80008ae:	e000      	b.n	80008b2 <Read_RIFF_Header+0x3a>
 80008b0:	2502      	movs	r5, #2
 80008b2:	0028      	movs	r0, r5
 80008b4:	b005      	add	sp, #20
 80008b6:	bcf0      	pop	{r4, r5, r6, r7}
 80008b8:	46bb      	mov	fp, r7
 80008ba:	46b2      	mov	sl, r6
 80008bc:	46a9      	mov	r9, r5
 80008be:	46a0      	mov	r8, r4
 80008c0:	bdf0      	pop	{r4, r5, r6, r7, pc}
 80008c2:	4b77      	ldr	r3, [pc, #476]	@ (8000aa0 <Read_RIFF_Header+0x228>)
 80008c4:	9a03      	ldr	r2, [sp, #12]
 80008c6:	429a      	cmp	r2, r3
 80008c8:	d1f0      	bne.n	80008ac <Read_RIFF_Header+0x34>
 80008ca:	2348      	movs	r3, #72	@ 0x48
 80008cc:	54f0      	strb	r0, [r6, r3]
 80008ce:	68e2      	ldr	r2, [r4, #12]
 80008d0:	6963      	ldr	r3, [r4, #20]
 80008d2:	429a      	cmp	r2, r3
 80008d4:	d9ed      	bls.n	80008b2 <Read_RIFF_Header+0x3a>
 80008d6:	2388      	movs	r3, #136	@ 0x88
 80008d8:	4699      	mov	r9, r3
 80008da:	3b04      	subs	r3, #4
 80008dc:	4698      	mov	r8, r3
 80008de:	4f71      	ldr	r7, [pc, #452]	@ (8000aa4 <Read_RIFF_Header+0x22c>)
 80008e0:	e018      	b.n	8000914 <Read_RIFF_Header+0x9c>
 80008e2:	4a71      	ldr	r2, [pc, #452]	@ (8000aa8 <Read_RIFF_Header+0x230>)
 80008e4:	4293      	cmp	r3, r2
 80008e6:	d10a      	bne.n	80008fe <Read_RIFF_Header+0x86>
 80008e8:	9b03      	ldr	r3, [sp, #12]
 80008ea:	4a70      	ldr	r2, [pc, #448]	@ (8000aac <Read_RIFF_Header+0x234>)
 80008ec:	4293      	cmp	r3, r2
 80008ee:	d100      	bne.n	80008f2 <Read_RIFF_Header+0x7a>
 80008f0:	e09a      	b.n	8000a28 <Read_RIFF_Header+0x1b0>
 80008f2:	4a6f      	ldr	r2, [pc, #444]	@ (8000ab0 <Read_RIFF_Header+0x238>)
 80008f4:	4293      	cmp	r3, r2
 80008f6:	d034      	beq.n	8000962 <Read_RIFF_Header+0xea>
 80008f8:	4a6e      	ldr	r2, [pc, #440]	@ (8000ab4 <Read_RIFF_Header+0x23c>)
 80008fa:	4293      	cmp	r3, r2
 80008fc:	d025      	beq.n	800094a <Read_RIFF_Header+0xd2>
 80008fe:	9902      	ldr	r1, [sp, #8]
 8000900:	3904      	subs	r1, #4
 8000902:	6963      	ldr	r3, [r4, #20]
 8000904:	0020      	movs	r0, r4
 8000906:	18c9      	adds	r1, r1, r3
 8000908:	f003 fda8 	bl	800445c <f_lseek>
 800090c:	6962      	ldr	r2, [r4, #20]
 800090e:	68e3      	ldr	r3, [r4, #12]
 8000910:	429a      	cmp	r2, r3
 8000912:	d2ce      	bcs.n	80008b2 <Read_RIFF_Header+0x3a>
 8000914:	466b      	mov	r3, sp
 8000916:	220c      	movs	r2, #12
 8000918:	0020      	movs	r0, r4
 800091a:	a901      	add	r1, sp, #4
 800091c:	f003 fcb4 	bl	8004288 <f_read>
 8000920:	2800      	cmp	r0, #0
 8000922:	d1c5      	bne.n	80008b0 <Read_RIFF_Header+0x38>
 8000924:	9b00      	ldr	r3, [sp, #0]
 8000926:	2b0c      	cmp	r3, #12
 8000928:	d1c2      	bne.n	80008b0 <Read_RIFF_Header+0x38>
 800092a:	9b01      	ldr	r3, [sp, #4]
 800092c:	42bb      	cmp	r3, r7
 800092e:	d1d8      	bne.n	80008e2 <Read_RIFF_Header+0x6a>
 8000930:	464b      	mov	r3, r9
 8000932:	4640      	mov	r0, r8
 8000934:	9902      	ldr	r1, [sp, #8]
 8000936:	50f1      	str	r1, [r6, r3]
 8000938:	6963      	ldr	r3, [r4, #20]
 800093a:	3904      	subs	r1, #4
 800093c:	1f1a      	subs	r2, r3, #4
 800093e:	5032      	str	r2, [r6, r0]
 8000940:	18c9      	adds	r1, r1, r3
 8000942:	0020      	movs	r0, r4
 8000944:	f003 fd8a 	bl	800445c <f_lseek>
 8000948:	e7e0      	b.n	800090c <Read_RIFF_Header+0x94>
 800094a:	2390      	movs	r3, #144	@ 0x90
 800094c:	228c      	movs	r2, #140	@ 0x8c
 800094e:	9902      	ldr	r1, [sp, #8]
 8000950:	0020      	movs	r0, r4
 8000952:	50f1      	str	r1, [r6, r3]
 8000954:	6963      	ldr	r3, [r4, #20]
 8000956:	3904      	subs	r1, #4
 8000958:	50b3      	str	r3, [r6, r2]
 800095a:	18c9      	adds	r1, r1, r3
 800095c:	f003 fd7e 	bl	800445c <f_lseek>
 8000960:	e7d4      	b.n	800090c <Read_RIFF_Header+0x94>
 8000962:	9b02      	ldr	r3, [sp, #8]
 8000964:	469a      	mov	sl, r3
 8000966:	2348      	movs	r3, #72	@ 0x48
 8000968:	469b      	mov	fp, r3
 800096a:	465a      	mov	r2, fp
 800096c:	5cf3      	ldrb	r3, [r6, r3]
 800096e:	3301      	adds	r3, #1
 8000970:	b2db      	uxtb	r3, r3
 8000972:	00d9      	lsls	r1, r3, #3
 8000974:	54b3      	strb	r3, [r6, r2]
 8000976:	1ac9      	subs	r1, r1, r3
 8000978:	00c9      	lsls	r1, r1, #3
 800097a:	6c70      	ldr	r0, [r6, #68]	@ 0x44
 800097c:	f005 fe16 	bl	80065ac <realloc>
 8000980:	466b      	mov	r3, sp
 8000982:	6470      	str	r0, [r6, #68]	@ 0x44
 8000984:	2208      	movs	r2, #8
 8000986:	0020      	movs	r0, r4
 8000988:	a901      	add	r1, sp, #4
 800098a:	f003 fc7d 	bl	8004288 <f_read>
 800098e:	2800      	cmp	r0, #0
 8000990:	d000      	beq.n	8000994 <Read_RIFF_Header+0x11c>
 8000992:	e78d      	b.n	80008b0 <Read_RIFF_Header+0x38>
 8000994:	9b00      	ldr	r3, [sp, #0]
 8000996:	2b08      	cmp	r3, #8
 8000998:	d000      	beq.n	800099c <Read_RIFF_Header+0x124>
 800099a:	e789      	b.n	80008b0 <Read_RIFF_Header+0x38>
 800099c:	4b46      	ldr	r3, [pc, #280]	@ (8000ab8 <Read_RIFF_Header+0x240>)
 800099e:	9a01      	ldr	r2, [sp, #4]
 80009a0:	429a      	cmp	r2, r3
 80009a2:	d000      	beq.n	80009a6 <Read_RIFF_Header+0x12e>
 80009a4:	e782      	b.n	80008ac <Read_RIFF_Header+0x34>
 80009a6:	465b      	mov	r3, fp
 80009a8:	5cf2      	ldrb	r2, [r6, r3]
 80009aa:	6c71      	ldr	r1, [r6, #68]	@ 0x44
 80009ac:	00d3      	lsls	r3, r2, #3
 80009ae:	1a9b      	subs	r3, r3, r2
 80009b0:	00db      	lsls	r3, r3, #3
 80009b2:	3b38      	subs	r3, #56	@ 0x38
 80009b4:	18c9      	adds	r1, r1, r3
 80009b6:	2238      	movs	r2, #56	@ 0x38
 80009b8:	466b      	mov	r3, sp
 80009ba:	0020      	movs	r0, r4
 80009bc:	f003 fc64 	bl	8004288 <f_read>
 80009c0:	2800      	cmp	r0, #0
 80009c2:	d000      	beq.n	80009c6 <Read_RIFF_Header+0x14e>
 80009c4:	e774      	b.n	80008b0 <Read_RIFF_Header+0x38>
 80009c6:	9b00      	ldr	r3, [sp, #0]
 80009c8:	2b38      	cmp	r3, #56	@ 0x38
 80009ca:	d000      	beq.n	80009ce <Read_RIFF_Header+0x156>
 80009cc:	e770      	b.n	80008b0 <Read_RIFF_Header+0x38>
 80009ce:	466b      	mov	r3, sp
 80009d0:	2208      	movs	r2, #8
 80009d2:	0020      	movs	r0, r4
 80009d4:	a901      	add	r1, sp, #4
 80009d6:	f003 fc57 	bl	8004288 <f_read>
 80009da:	2800      	cmp	r0, #0
 80009dc:	d000      	beq.n	80009e0 <Read_RIFF_Header+0x168>
 80009de:	e767      	b.n	80008b0 <Read_RIFF_Header+0x38>
 80009e0:	9b00      	ldr	r3, [sp, #0]
 80009e2:	2b08      	cmp	r3, #8
 80009e4:	d000      	beq.n	80009e8 <Read_RIFF_Header+0x170>
 80009e6:	e763      	b.n	80008b0 <Read_RIFF_Header+0x38>
 80009e8:	4b34      	ldr	r3, [pc, #208]	@ (8000abc <Read_RIFF_Header+0x244>)
 80009ea:	9a01      	ldr	r2, [sp, #4]
 80009ec:	429a      	cmp	r2, r3
 80009ee:	d000      	beq.n	80009f2 <Read_RIFF_Header+0x17a>
 80009f0:	e75c      	b.n	80008ac <Read_RIFF_Header+0x34>
 80009f2:	2348      	movs	r3, #72	@ 0x48
 80009f4:	5cf1      	ldrb	r1, [r6, r3]
 80009f6:	6c73      	ldr	r3, [r6, #68]	@ 0x44
 80009f8:	00ca      	lsls	r2, r1, #3
 80009fa:	1a52      	subs	r2, r2, r1
 80009fc:	00d2      	lsls	r2, r2, #3
 80009fe:	189b      	adds	r3, r3, r2
 8000a00:	3b38      	subs	r3, #56	@ 0x38
 8000a02:	7859      	ldrb	r1, [r3, #1]
 8000a04:	781a      	ldrb	r2, [r3, #0]
 8000a06:	0209      	lsls	r1, r1, #8
 8000a08:	4311      	orrs	r1, r2
 8000a0a:	789a      	ldrb	r2, [r3, #2]
 8000a0c:	78db      	ldrb	r3, [r3, #3]
 8000a0e:	0412      	lsls	r2, r2, #16
 8000a10:	430a      	orrs	r2, r1
 8000a12:	061b      	lsls	r3, r3, #24
 8000a14:	4313      	orrs	r3, r2
 8000a16:	4a2a      	ldr	r2, [pc, #168]	@ (8000ac0 <Read_RIFF_Header+0x248>)
 8000a18:	4293      	cmp	r3, r2
 8000a1a:	d01d      	beq.n	8000a58 <Read_RIFF_Header+0x1e0>
 8000a1c:	4a29      	ldr	r2, [pc, #164]	@ (8000ac4 <Read_RIFF_Header+0x24c>)
 8000a1e:	4293      	cmp	r3, r2
 8000a20:	d02b      	beq.n	8000a7a <Read_RIFF_Header+0x202>
 8000a22:	4651      	mov	r1, sl
 8000a24:	394c      	subs	r1, #76	@ 0x4c
 8000a26:	e76c      	b.n	8000902 <Read_RIFF_Header+0x8a>
 8000a28:	466b      	mov	r3, sp
 8000a2a:	2240      	movs	r2, #64	@ 0x40
 8000a2c:	0020      	movs	r0, r4
 8000a2e:	1c71      	adds	r1, r6, #1
 8000a30:	f003 fc2a 	bl	8004288 <f_read>
 8000a34:	2800      	cmp	r0, #0
 8000a36:	d000      	beq.n	8000a3a <Read_RIFF_Header+0x1c2>
 8000a38:	e73a      	b.n	80008b0 <Read_RIFF_Header+0x38>
 8000a3a:	9b00      	ldr	r3, [sp, #0]
 8000a3c:	2b40      	cmp	r3, #64	@ 0x40
 8000a3e:	d000      	beq.n	8000a42 <Read_RIFF_Header+0x1ca>
 8000a40:	e736      	b.n	80008b0 <Read_RIFF_Header+0x38>
 8000a42:	6832      	ldr	r2, [r6, #0]
 8000a44:	7933      	ldrb	r3, [r6, #4]
 8000a46:	0a12      	lsrs	r2, r2, #8
 8000a48:	061b      	lsls	r3, r3, #24
 8000a4a:	4313      	orrs	r3, r2
 8000a4c:	4a1e      	ldr	r2, [pc, #120]	@ (8000ac8 <Read_RIFF_Header+0x250>)
 8000a4e:	4293      	cmp	r3, r2
 8000a50:	d100      	bne.n	8000a54 <Read_RIFF_Header+0x1dc>
 8000a52:	e75b      	b.n	800090c <Read_RIFF_Header+0x94>
 8000a54:	2501      	movs	r5, #1
 8000a56:	e72c      	b.n	80008b2 <Read_RIFF_Header+0x3a>
 8000a58:	0031      	movs	r1, r6
 8000a5a:	466b      	mov	r3, sp
 8000a5c:	2228      	movs	r2, #40	@ 0x28
 8000a5e:	0020      	movs	r0, r4
 8000a60:	3149      	adds	r1, #73	@ 0x49
 8000a62:	f003 fc11 	bl	8004288 <f_read>
 8000a66:	2800      	cmp	r0, #0
 8000a68:	d000      	beq.n	8000a6c <Read_RIFF_Header+0x1f4>
 8000a6a:	e721      	b.n	80008b0 <Read_RIFF_Header+0x38>
 8000a6c:	9b00      	ldr	r3, [sp, #0]
 8000a6e:	2b28      	cmp	r3, #40	@ 0x28
 8000a70:	d000      	beq.n	8000a74 <Read_RIFF_Header+0x1fc>
 8000a72:	e71d      	b.n	80008b0 <Read_RIFF_Header+0x38>
 8000a74:	4651      	mov	r1, sl
 8000a76:	3974      	subs	r1, #116	@ 0x74
 8000a78:	e743      	b.n	8000902 <Read_RIFF_Header+0x8a>
 8000a7a:	0031      	movs	r1, r6
 8000a7c:	466b      	mov	r3, sp
 8000a7e:	2210      	movs	r2, #16
 8000a80:	0020      	movs	r0, r4
 8000a82:	3171      	adds	r1, #113	@ 0x71
 8000a84:	f003 fc00 	bl	8004288 <f_read>
 8000a88:	2800      	cmp	r0, #0
 8000a8a:	d000      	beq.n	8000a8e <Read_RIFF_Header+0x216>
 8000a8c:	e710      	b.n	80008b0 <Read_RIFF_Header+0x38>
 8000a8e:	9b00      	ldr	r3, [sp, #0]
 8000a90:	2b10      	cmp	r3, #16
 8000a92:	d000      	beq.n	8000a96 <Read_RIFF_Header+0x21e>
 8000a94:	e70c      	b.n	80008b0 <Read_RIFF_Header+0x38>
 8000a96:	4651      	mov	r1, sl
 8000a98:	395c      	subs	r1, #92	@ 0x5c
 8000a9a:	e732      	b.n	8000902 <Read_RIFF_Header+0x8a>
 8000a9c:	46464952 	.word	0x46464952
 8000aa0:	20495641 	.word	0x20495641
 8000aa4:	31786469 	.word	0x31786469
 8000aa8:	5453494c 	.word	0x5453494c
 8000aac:	6c726468 	.word	0x6c726468
 8000ab0:	6c727473 	.word	0x6c727473
 8000ab4:	69766f6d 	.word	0x69766f6d
 8000ab8:	68727473 	.word	0x68727473
 8000abc:	66727473 	.word	0x66727473
 8000ac0:	73646976 	.word	0x73646976
 8000ac4:	73647561 	.word	0x73647561
 8000ac8:	68697661 	.word	0x68697661

08000acc <SystemClock_Config>:
 8000acc:	2107      	movs	r1, #7
 8000ace:	4a23      	ldr	r2, [pc, #140]	@ (8000b5c <SystemClock_Config+0x90>)
 8000ad0:	b510      	push	{r4, lr}
 8000ad2:	6813      	ldr	r3, [r2, #0]
 8000ad4:	438b      	bics	r3, r1
 8000ad6:	3905      	subs	r1, #5
 8000ad8:	430b      	orrs	r3, r1
 8000ada:	6013      	str	r3, [r2, #0]
 8000adc:	3105      	adds	r1, #5
 8000ade:	6813      	ldr	r3, [r2, #0]
 8000ae0:	400b      	ands	r3, r1
 8000ae2:	2b02      	cmp	r3, #2
 8000ae4:	d1fb      	bne.n	8000ade <SystemClock_Config+0x12>
 8000ae6:	4a1e      	ldr	r2, [pc, #120]	@ (8000b60 <SystemClock_Config+0x94>)
 8000ae8:	33fe      	adds	r3, #254	@ 0xfe
 8000aea:	6811      	ldr	r1, [r2, #0]
 8000aec:	430b      	orrs	r3, r1
 8000aee:	2180      	movs	r1, #128	@ 0x80
 8000af0:	6013      	str	r3, [r2, #0]
 8000af2:	00c9      	lsls	r1, r1, #3
 8000af4:	6813      	ldr	r3, [r2, #0]
 8000af6:	420b      	tst	r3, r1
 8000af8:	d0fc      	beq.n	8000af4 <SystemClock_Config+0x28>
 8000afa:	68d1      	ldr	r1, [r2, #12]
 8000afc:	4b19      	ldr	r3, [pc, #100]	@ (8000b64 <SystemClock_Config+0x98>)
 8000afe:	4019      	ands	r1, r3
 8000b00:	4b19      	ldr	r3, [pc, #100]	@ (8000b68 <SystemClock_Config+0x9c>)
 8000b02:	430b      	orrs	r3, r1
 8000b04:	60d3      	str	r3, [r2, #12]
 8000b06:	2380      	movs	r3, #128	@ 0x80
 8000b08:	6811      	ldr	r1, [r2, #0]
 8000b0a:	045b      	lsls	r3, r3, #17
 8000b0c:	430b      	orrs	r3, r1
 8000b0e:	6013      	str	r3, [r2, #0]
 8000b10:	2380      	movs	r3, #128	@ 0x80
 8000b12:	68d1      	ldr	r1, [r2, #12]
 8000b14:	055b      	lsls	r3, r3, #21
 8000b16:	430b      	orrs	r3, r1
 8000b18:	2180      	movs	r1, #128	@ 0x80
 8000b1a:	60d3      	str	r3, [r2, #12]
 8000b1c:	4a10      	ldr	r2, [pc, #64]	@ (8000b60 <SystemClock_Config+0x94>)
 8000b1e:	0489      	lsls	r1, r1, #18
 8000b20:	6813      	ldr	r3, [r2, #0]
 8000b22:	420b      	tst	r3, r1
 8000b24:	d0fc      	beq.n	8000b20 <SystemClock_Config+0x54>
 8000b26:	6893      	ldr	r3, [r2, #8]
 8000b28:	4910      	ldr	r1, [pc, #64]	@ (8000b6c <SystemClock_Config+0xa0>)
 8000b2a:	400b      	ands	r3, r1
 8000b2c:	2107      	movs	r1, #7
 8000b2e:	6093      	str	r3, [r2, #8]
 8000b30:	6893      	ldr	r3, [r2, #8]
 8000b32:	438b      	bics	r3, r1
 8000b34:	3905      	subs	r1, #5
 8000b36:	430b      	orrs	r3, r1
 8000b38:	6093      	str	r3, [r2, #8]
 8000b3a:	4a09      	ldr	r2, [pc, #36]	@ (8000b60 <SystemClock_Config+0x94>)
 8000b3c:	3136      	adds	r1, #54	@ 0x36
 8000b3e:	6893      	ldr	r3, [r2, #8]
 8000b40:	400b      	ands	r3, r1
 8000b42:	2b10      	cmp	r3, #16
 8000b44:	d1fb      	bne.n	8000b3e <SystemClock_Config+0x72>
 8000b46:	6893      	ldr	r3, [r2, #8]
 8000b48:	4909      	ldr	r1, [pc, #36]	@ (8000b70 <SystemClock_Config+0xa4>)
 8000b4a:	480a      	ldr	r0, [pc, #40]	@ (8000b74 <SystemClock_Config+0xa8>)
 8000b4c:	400b      	ands	r3, r1
 8000b4e:	6093      	str	r3, [r2, #8]
 8000b50:	f002 f9e6 	bl	8002f20 <LL_Init1msTick>
 8000b54:	4807      	ldr	r0, [pc, #28]	@ (8000b74 <SystemClock_Config+0xa8>)
 8000b56:	f002 fa09 	bl	8002f6c <LL_SetSystemCoreClock>
 8000b5a:	bd10      	pop	{r4, pc}
 8000b5c:	40022000 	.word	0x40022000
 8000b60:	40021000 	.word	0x40021000
 8000b64:	1fff808c 	.word	0x1fff808c
 8000b68:	20000802 	.word	0x20000802
 8000b6c:	fffff0ff 	.word	0xfffff0ff
 8000b70:	ffff8fff 	.word	0xffff8fff
 8000b74:	03d09000 	.word	0x03d09000

08000b78 <main>:
 8000b78:	2280      	movs	r2, #128	@ 0x80
 8000b7a:	b5f0      	push	{r4, r5, r6, r7, lr}
 8000b7c:	46de      	mov	lr, fp
 8000b7e:	4645      	mov	r5, r8
 8000b80:	4657      	mov	r7, sl
 8000b82:	464e      	mov	r6, r9
 8000b84:	4bfc      	ldr	r3, [pc, #1008]	@ (8000f78 <main+0x400>)
 8000b86:	0052      	lsls	r2, r2, #1
 8000b88:	6819      	ldr	r1, [r3, #0]
 8000b8a:	b5e0      	push	{r5, r6, r7, lr}
 8000b8c:	430a      	orrs	r2, r1
 8000b8e:	601a      	str	r2, [r3, #0]
 8000b90:	2280      	movs	r2, #128	@ 0x80
 8000b92:	6819      	ldr	r1, [r3, #0]
 8000b94:	0092      	lsls	r2, r2, #2
 8000b96:	430a      	orrs	r2, r1
 8000b98:	601a      	str	r2, [r3, #0]
 8000b9a:	2201      	movs	r2, #1
 8000b9c:	4bf7      	ldr	r3, [pc, #988]	@ (8000f7c <main+0x404>)
 8000b9e:	25c0      	movs	r5, #192	@ 0xc0
 8000ba0:	6c19      	ldr	r1, [r3, #64]	@ 0x40
 8000ba2:	b0d7      	sub	sp, #348	@ 0x15c
 8000ba4:	4311      	orrs	r1, r2
 8000ba6:	6419      	str	r1, [r3, #64]	@ 0x40
 8000ba8:	6c19      	ldr	r1, [r3, #64]	@ 0x40
 8000baa:	4cf5      	ldr	r4, [pc, #980]	@ (8000f80 <main+0x408>)
 8000bac:	400a      	ands	r2, r1
 8000bae:	2180      	movs	r1, #128	@ 0x80
 8000bb0:	9213      	str	r2, [sp, #76]	@ 0x4c
 8000bb2:	9a13      	ldr	r2, [sp, #76]	@ 0x4c
 8000bb4:	6bda      	ldr	r2, [r3, #60]	@ 0x3c
 8000bb6:	0549      	lsls	r1, r1, #21
 8000bb8:	430a      	orrs	r2, r1
 8000bba:	63da      	str	r2, [r3, #60]	@ 0x3c
 8000bbc:	6bdb      	ldr	r3, [r3, #60]	@ 0x3c
 8000bbe:	062d      	lsls	r5, r5, #24
 8000bc0:	400b      	ands	r3, r1
 8000bc2:	9312      	str	r3, [sp, #72]	@ 0x48
 8000bc4:	9b12      	ldr	r3, [sp, #72]	@ 0x48
 8000bc6:	6a23      	ldr	r3, [r4, #32]
 8000bc8:	021b      	lsls	r3, r3, #8
 8000bca:	0a1b      	lsrs	r3, r3, #8
 8000bcc:	432b      	orrs	r3, r5
 8000bce:	6223      	str	r3, [r4, #32]
 8000bd0:	f7ff ff7c 	bl	8000acc <SystemClock_Config>
 8000bd4:	21fa      	movs	r1, #250	@ 0xfa
 8000bd6:	4beb      	ldr	r3, [pc, #940]	@ (8000f84 <main+0x40c>)
 8000bd8:	0089      	lsls	r1, r1, #2
 8000bda:	6818      	ldr	r0, [r3, #0]
 8000bdc:	f7ff fa9a 	bl	8000114 <__udivsi3>
 8000be0:	2380      	movs	r3, #128	@ 0x80
 8000be2:	3801      	subs	r0, #1
 8000be4:	045b      	lsls	r3, r3, #17
 8000be6:	4298      	cmp	r0, r3
 8000be8:	d20a      	bcs.n	8000c00 <main+0x88>
 8000bea:	4ae7      	ldr	r2, [pc, #924]	@ (8000f88 <main+0x410>)
 8000bec:	6050      	str	r0, [r2, #4]
 8000bee:	6a23      	ldr	r3, [r4, #32]
 8000bf0:	021b      	lsls	r3, r3, #8
 8000bf2:	0a1b      	lsrs	r3, r3, #8
 8000bf4:	431d      	orrs	r5, r3
 8000bf6:	2300      	movs	r3, #0
 8000bf8:	6225      	str	r5, [r4, #32]
 8000bfa:	6093      	str	r3, [r2, #8]
 8000bfc:	3307      	adds	r3, #7
 8000bfe:	6013      	str	r3, [r2, #0]
 8000c00:	2400      	movs	r4, #0
 8000c02:	2218      	movs	r2, #24
 8000c04:	2100      	movs	r1, #0
 8000c06:	a839      	add	r0, sp, #228	@ 0xe4
 8000c08:	9430      	str	r4, [sp, #192]	@ 0xc0
 8000c0a:	f005 fd29 	bl	8006660 <memset>
 8000c0e:	2202      	movs	r2, #2
 8000c10:	2101      	movs	r1, #1
 8000c12:	4eda      	ldr	r6, [pc, #872]	@ (8000f7c <main+0x404>)
 8000c14:	4693      	mov	fp, r2
 8000c16:	6b73      	ldr	r3, [r6, #52]	@ 0x34
 8000c18:	4688      	mov	r8, r1
 8000c1a:	4313      	orrs	r3, r2
 8000c1c:	6373      	str	r3, [r6, #52]	@ 0x34
 8000c1e:	6b73      	ldr	r3, [r6, #52]	@ 0x34
 8000c20:	2740      	movs	r7, #64	@ 0x40
 8000c22:	4013      	ands	r3, r2
 8000c24:	931e      	str	r3, [sp, #120]	@ 0x78
 8000c26:	9b1e      	ldr	r3, [sp, #120]	@ 0x78
 8000c28:	6b73      	ldr	r3, [r6, #52]	@ 0x34
 8000c2a:	3202      	adds	r2, #2
 8000c2c:	4313      	orrs	r3, r2
 8000c2e:	6373      	str	r3, [r6, #52]	@ 0x34
 8000c30:	6b73      	ldr	r3, [r6, #52]	@ 0x34
 8000c32:	ad2f      	add	r5, sp, #188	@ 0xbc
 8000c34:	4013      	ands	r3, r2
 8000c36:	931f      	str	r3, [sp, #124]	@ 0x7c
 8000c38:	9b1f      	ldr	r3, [sp, #124]	@ 0x7c
 8000c3a:	6b73      	ldr	r3, [r6, #52]	@ 0x34
 8000c3c:	3204      	adds	r2, #4
 8000c3e:	430b      	orrs	r3, r1
 8000c40:	6373      	str	r3, [r6, #52]	@ 0x34
 8000c42:	6b73      	ldr	r3, [r6, #52]	@ 0x34
 8000c44:	0028      	movs	r0, r5
 8000c46:	400b      	ands	r3, r1
 8000c48:	9320      	str	r3, [sp, #128]	@ 0x80
 8000c4a:	9b20      	ldr	r3, [sp, #128]	@ 0x80
 8000c4c:	23a0      	movs	r3, #160	@ 0xa0
 8000c4e:	2180      	movs	r1, #128	@ 0x80
 8000c50:	05db      	lsls	r3, r3, #23
 8000c52:	619a      	str	r2, [r3, #24]
 8000c54:	3208      	adds	r2, #8
 8000c56:	619a      	str	r2, [r3, #24]
 8000c58:	0149      	lsls	r1, r1, #5
 8000c5a:	3210      	adds	r2, #16
 8000c5c:	619a      	str	r2, [r3, #24]
 8000c5e:	6199      	str	r1, [r3, #24]
 8000c60:	49ca      	ldr	r1, [pc, #808]	@ (8000f8c <main+0x414>)
 8000c62:	4bcb      	ldr	r3, [pc, #812]	@ (8000f90 <main+0x418>)
 8000c64:	618f      	str	r7, [r1, #24]
 8000c66:	6e9a      	ldr	r2, [r3, #104]	@ 0x68
 8000c68:	49ca      	ldr	r1, [pc, #808]	@ (8000f94 <main+0x41c>)
 8000c6a:	37c0      	adds	r7, #192	@ 0xc0
 8000c6c:	400a      	ands	r2, r1
 8000c6e:	433a      	orrs	r2, r7
 8000c70:	2780      	movs	r7, #128	@ 0x80
 8000c72:	669a      	str	r2, [r3, #104]	@ 0x68
 8000c74:	6eda      	ldr	r2, [r3, #108]	@ 0x6c
 8000c76:	49c8      	ldr	r1, [pc, #800]	@ (8000f98 <main+0x420>)
 8000c78:	04bf      	lsls	r7, r7, #18
 8000c7a:	400a      	ands	r2, r1
 8000c7c:	433a      	orrs	r2, r7
 8000c7e:	66da      	str	r2, [r3, #108]	@ 0x6c
 8000c80:	2780      	movs	r7, #128	@ 0x80
 8000c82:	6e5a      	ldr	r2, [r3, #100]	@ 0x64
 8000c84:	00bf      	lsls	r7, r7, #2
 8000c86:	400a      	ands	r2, r1
 8000c88:	4641      	mov	r1, r8
 8000c8a:	665a      	str	r2, [r3, #100]	@ 0x64
 8000c8c:	972f      	str	r7, [sp, #188]	@ 0xbc
 8000c8e:	3ffe      	subs	r7, #254	@ 0xfe
 8000c90:	3fff      	subs	r7, #255	@ 0xff
 8000c92:	7129      	strb	r1, [r5, #4]
 8000c94:	71af      	strb	r7, [r5, #6]
 8000c96:	f001 fe17 	bl	80028c8 <LL_EXTI_Init>
 8000c9a:	2180      	movs	r1, #128	@ 0x80
 8000c9c:	0209      	lsls	r1, r1, #8
 8000c9e:	912f      	str	r1, [sp, #188]	@ 0xbc
 8000ca0:	4641      	mov	r1, r8
 8000ca2:	71af      	strb	r7, [r5, #6]
 8000ca4:	80a9      	strh	r1, [r5, #4]
 8000ca6:	0028      	movs	r0, r5
 8000ca8:	f001 fe0e 	bl	80028c8 <LL_EXTI_Init>
 8000cac:	4643      	mov	r3, r8
 8000cae:	2103      	movs	r1, #3
 8000cb0:	377d      	adds	r7, #125	@ 0x7d
 8000cb2:	972f      	str	r7, [sp, #188]	@ 0xbc
 8000cb4:	0028      	movs	r0, r5
 8000cb6:	80ab      	strh	r3, [r5, #4]
 8000cb8:	71a9      	strb	r1, [r5, #6]
 8000cba:	f001 fe05 	bl	80028c8 <LL_EXTI_Init>
 8000cbe:	48b3      	ldr	r0, [pc, #716]	@ (8000f8c <main+0x414>)
 8000cc0:	4bb6      	ldr	r3, [pc, #728]	@ (8000f9c <main+0x424>)
 8000cc2:	68c2      	ldr	r2, [r0, #12]
 8000cc4:	469c      	mov	ip, r3
 8000cc6:	401a      	ands	r2, r3
 8000cc8:	2380      	movs	r3, #128	@ 0x80
 8000cca:	02db      	lsls	r3, r3, #11
 8000ccc:	4313      	orrs	r3, r2
 8000cce:	2280      	movs	r2, #128	@ 0x80
 8000cd0:	60c3      	str	r3, [r0, #12]
 8000cd2:	48b3      	ldr	r0, [pc, #716]	@ (8000fa0 <main+0x428>)
 8000cd4:	05d2      	lsls	r2, r2, #23
 8000cd6:	68c3      	ldr	r3, [r0, #12]
 8000cd8:	2180      	movs	r1, #128	@ 0x80
 8000cda:	009b      	lsls	r3, r3, #2
 8000cdc:	089b      	lsrs	r3, r3, #2
 8000cde:	4313      	orrs	r3, r2
 8000ce0:	60c3      	str	r3, [r0, #12]
 8000ce2:	20a0      	movs	r0, #160	@ 0xa0
 8000ce4:	05c0      	lsls	r0, r0, #23
 8000ce6:	68c3      	ldr	r3, [r0, #12]
 8000ce8:	4aae      	ldr	r2, [pc, #696]	@ (8000fa4 <main+0x42c>)
 8000cea:	01c9      	lsls	r1, r1, #7
 8000cec:	4013      	ands	r3, r2
 8000cee:	430b      	orrs	r3, r1
 8000cf0:	60c3      	str	r3, [r0, #12]
 8000cf2:	4ba6      	ldr	r3, [pc, #664]	@ (8000f8c <main+0x414>)
 8000cf4:	4691      	mov	r9, r2
 8000cf6:	4662      	mov	r2, ip
 8000cf8:	0019      	movs	r1, r3
 8000cfa:	681b      	ldr	r3, [r3, #0]
 8000cfc:	4013      	ands	r3, r2
 8000cfe:	600b      	str	r3, [r1, #0]
 8000d00:	4ba7      	ldr	r3, [pc, #668]	@ (8000fa0 <main+0x428>)
 8000d02:	464a      	mov	r2, r9
 8000d04:	0019      	movs	r1, r3
 8000d06:	681b      	ldr	r3, [r3, #0]
 8000d08:	009b      	lsls	r3, r3, #2
 8000d0a:	089b      	lsrs	r3, r3, #2
 8000d0c:	600b      	str	r3, [r1, #0]
 8000d0e:	6803      	ldr	r3, [r0, #0]
 8000d10:	4013      	ands	r3, r2
 8000d12:	6003      	str	r3, [r0, #0]
 8000d14:	2008      	movs	r0, #8
 8000d16:	9039      	str	r0, [sp, #228]	@ 0xe4
 8000d18:	4640      	mov	r0, r8
 8000d1a:	903a      	str	r0, [sp, #232]	@ 0xe8
 8000d1c:	4658      	mov	r0, fp
 8000d1e:	903b      	str	r0, [sp, #236]	@ 0xec
 8000d20:	a839      	add	r0, sp, #228	@ 0xe4
 8000d22:	0001      	movs	r1, r0
 8000d24:	20a0      	movs	r0, #160	@ 0xa0
 8000d26:	05c0      	lsls	r0, r0, #23
 8000d28:	943c      	str	r4, [sp, #240]	@ 0xf0
 8000d2a:	943d      	str	r4, [sp, #244]	@ 0xf4
 8000d2c:	f001 fe2a 	bl	8002984 <LL_GPIO_Init>
 8000d30:	2310      	movs	r3, #16
 8000d32:	9339      	str	r3, [sp, #228]	@ 0xe4
 8000d34:	4643      	mov	r3, r8
 8000d36:	933a      	str	r3, [sp, #232]	@ 0xe8
 8000d38:	465b      	mov	r3, fp
 8000d3a:	933b      	str	r3, [sp, #236]	@ 0xec
 8000d3c:	4643      	mov	r3, r8
 8000d3e:	20a0      	movs	r0, #160	@ 0xa0
 8000d40:	933d      	str	r3, [sp, #244]	@ 0xf4
 8000d42:	ab39      	add	r3, sp, #228	@ 0xe4
 8000d44:	0019      	movs	r1, r3
 8000d46:	05c0      	lsls	r0, r0, #23
 8000d48:	943c      	str	r4, [sp, #240]	@ 0xf0
 8000d4a:	f001 fe1b 	bl	8002984 <LL_GPIO_Init>
 8000d4e:	4643      	mov	r3, r8
 8000d50:	933a      	str	r3, [sp, #232]	@ 0xe8
 8000d52:	465b      	mov	r3, fp
 8000d54:	933b      	str	r3, [sp, #236]	@ 0xec
 8000d56:	4643      	mov	r3, r8
 8000d58:	20a0      	movs	r0, #160	@ 0xa0
 8000d5a:	2220      	movs	r2, #32
 8000d5c:	933d      	str	r3, [sp, #244]	@ 0xf4
 8000d5e:	ab39      	add	r3, sp, #228	@ 0xe4
 8000d60:	0019      	movs	r1, r3
 8000d62:	05c0      	lsls	r0, r0, #23
 8000d64:	9239      	str	r2, [sp, #228]	@ 0xe4
 8000d66:	943c      	str	r4, [sp, #240]	@ 0xf0
 8000d68:	f001 fe0c 	bl	8002984 <LL_GPIO_Init>
 8000d6c:	4643      	mov	r3, r8
 8000d6e:	2280      	movs	r2, #128	@ 0x80
 8000d70:	20a0      	movs	r0, #160	@ 0xa0
 8000d72:	933a      	str	r3, [sp, #232]	@ 0xe8
 8000d74:	933d      	str	r3, [sp, #244]	@ 0xf4
 8000d76:	ab39      	add	r3, sp, #228	@ 0xe4
 8000d78:	0152      	lsls	r2, r2, #5
 8000d7a:	0019      	movs	r1, r3
 8000d7c:	05c0      	lsls	r0, r0, #23
 8000d7e:	9239      	str	r2, [sp, #228]	@ 0xe4
 8000d80:	943b      	str	r4, [sp, #236]	@ 0xec
 8000d82:	943c      	str	r4, [sp, #240]	@ 0xf0
 8000d84:	f001 fdfe 	bl	8002984 <LL_GPIO_Init>
 8000d88:	2340      	movs	r3, #64	@ 0x40
 8000d8a:	9339      	str	r3, [sp, #228]	@ 0xe4
 8000d8c:	4643      	mov	r3, r8
 8000d8e:	933a      	str	r3, [sp, #232]	@ 0xe8
 8000d90:	465b      	mov	r3, fp
 8000d92:	933b      	str	r3, [sp, #236]	@ 0xec
 8000d94:	4643      	mov	r3, r8
 8000d96:	933d      	str	r3, [sp, #244]	@ 0xf4
 8000d98:	ab39      	add	r3, sp, #228	@ 0xe4
 8000d9a:	0019      	movs	r1, r3
 8000d9c:	487b      	ldr	r0, [pc, #492]	@ (8000f8c <main+0x414>)
 8000d9e:	943c      	str	r4, [sp, #240]	@ 0xf0
 8000da0:	f001 fdf0 	bl	8002984 <LL_GPIO_Init>
 8000da4:	21c1      	movs	r1, #193	@ 0xc1
 8000da6:	4b80      	ldr	r3, [pc, #512]	@ (8000fa8 <main+0x430>)
 8000da8:	0089      	lsls	r1, r1, #2
 8000daa:	585a      	ldr	r2, [r3, r1]
 8000dac:	0212      	lsls	r2, r2, #8
 8000dae:	0a12      	lsrs	r2, r2, #8
 8000db0:	505a      	str	r2, [r3, r1]
 8000db2:	601f      	str	r7, [r3, #0]
 8000db4:	4640      	mov	r0, r8
 8000db6:	6bb2      	ldr	r2, [r6, #56]	@ 0x38
 8000db8:	4302      	orrs	r2, r0
 8000dba:	63b2      	str	r2, [r6, #56]	@ 0x38
 8000dbc:	6bb2      	ldr	r2, [r6, #56]	@ 0x38
 8000dbe:	4002      	ands	r2, r0
 8000dc0:	921d      	str	r2, [sp, #116]	@ 0x74
 8000dc2:	9a1d      	ldr	r2, [sp, #116]	@ 0x74
 8000dc4:	22c2      	movs	r2, #194	@ 0xc2
 8000dc6:	0092      	lsls	r2, r2, #2
 8000dc8:	5899      	ldr	r1, [r3, r2]
 8000dca:	4878      	ldr	r0, [pc, #480]	@ (8000fac <main+0x434>)
 8000dcc:	4001      	ands	r1, r0
 8000dce:	2080      	movs	r0, #128	@ 0x80
 8000dd0:	0200      	lsls	r0, r0, #8
 8000dd2:	4301      	orrs	r1, r0
 8000dd4:	5099      	str	r1, [r3, r2]
 8000dd6:	2180      	movs	r1, #128	@ 0x80
 8000dd8:	0089      	lsls	r1, r1, #2
 8000dda:	6019      	str	r1, [r3, #0]
 8000ddc:	4974      	ldr	r1, [pc, #464]	@ (8000fb0 <main+0x438>)
 8000dde:	5898      	ldr	r0, [r3, r2]
 8000de0:	4008      	ands	r0, r1
 8000de2:	2180      	movs	r1, #128	@ 0x80
 8000de4:	03c9      	lsls	r1, r1, #15
 8000de6:	4301      	orrs	r1, r0
 8000de8:	5099      	str	r1, [r3, r2]
 8000dea:	2080      	movs	r0, #128	@ 0x80
 8000dec:	00c0      	lsls	r0, r0, #3
 8000dee:	6018      	str	r0, [r3, #0]
 8000df0:	5899      	ldr	r1, [r3, r2]
 8000df2:	0209      	lsls	r1, r1, #8
 8000df4:	0a09      	lsrs	r1, r1, #8
 8000df6:	5099      	str	r1, [r3, r2]
 8000df8:	2180      	movs	r1, #128	@ 0x80
 8000dfa:	0109      	lsls	r1, r1, #4
 8000dfc:	6019      	str	r1, [r3, #0]
 8000dfe:	2228      	movs	r2, #40	@ 0x28
 8000e00:	2100      	movs	r1, #0
 8000e02:	a839      	add	r0, sp, #228	@ 0xe4
 8000e04:	f005 fc2c 	bl	8006660 <memset>
 8000e08:	220c      	movs	r2, #12
 8000e0a:	2100      	movs	r1, #0
 8000e0c:	a832      	add	r0, sp, #200	@ 0xc8
 8000e0e:	f005 fc27 	bl	8006660 <memset>
 8000e12:	2280      	movs	r2, #128	@ 0x80
 8000e14:	4640      	mov	r0, r8
 8000e16:	6c33      	ldr	r3, [r6, #64]	@ 0x40
 8000e18:	0152      	lsls	r2, r2, #5
 8000e1a:	4313      	orrs	r3, r2
 8000e1c:	6433      	str	r3, [r6, #64]	@ 0x40
 8000e1e:	6c33      	ldr	r3, [r6, #64]	@ 0x40
 8000e20:	2103      	movs	r1, #3
 8000e22:	4013      	ands	r3, r2
 8000e24:	931b      	str	r3, [sp, #108]	@ 0x6c
 8000e26:	9b1b      	ldr	r3, [sp, #108]	@ 0x6c
 8000e28:	6b73      	ldr	r3, [r6, #52]	@ 0x34
 8000e2a:	4303      	orrs	r3, r0
 8000e2c:	6373      	str	r3, [r6, #52]	@ 0x34
 8000e2e:	6b73      	ldr	r3, [r6, #52]	@ 0x34
 8000e30:	4003      	ands	r3, r0
 8000e32:	931c      	str	r3, [sp, #112]	@ 0x70
 8000e34:	9b1c      	ldr	r3, [sp, #112]	@ 0x70
 8000e36:	465b      	mov	r3, fp
 8000e38:	932f      	str	r3, [sp, #188]	@ 0xbc
 8000e3a:	6128      	str	r0, [r5, #16]
 8000e3c:	20a0      	movs	r0, #160	@ 0xa0
 8000e3e:	606b      	str	r3, [r5, #4]
 8000e40:	60a9      	str	r1, [r5, #8]
 8000e42:	05c0      	lsls	r0, r0, #23
 8000e44:	0029      	movs	r1, r5
 8000e46:	f001 fd9d 	bl	8002984 <LL_GPIO_Init>
 8000e4a:	2204      	movs	r2, #4
 8000e4c:	465b      	mov	r3, fp
 8000e4e:	922f      	str	r2, [sp, #188]	@ 0xbc
 8000e50:	2103      	movs	r1, #3
 8000e52:	606b      	str	r3, [r5, #4]
 8000e54:	20a0      	movs	r0, #160	@ 0xa0
 8000e56:	4643      	mov	r3, r8
 8000e58:	60a9      	str	r1, [r5, #8]
 8000e5a:	612b      	str	r3, [r5, #16]
 8000e5c:	0029      	movs	r1, r5
 8000e5e:	60ec      	str	r4, [r5, #12]
 8000e60:	616c      	str	r4, [r5, #20]
 8000e62:	05c0      	lsls	r0, r0, #23
 8000e64:	f001 fd8e 	bl	8002984 <LL_GPIO_Init>
 8000e68:	213f      	movs	r1, #63	@ 0x3f
 8000e6a:	4a52      	ldr	r2, [pc, #328]	@ (8000fb4 <main+0x43c>)
 8000e6c:	4852      	ldr	r0, [pc, #328]	@ (8000fb8 <main+0x440>)
 8000e6e:	6813      	ldr	r3, [r2, #0]
 8000e70:	438b      	bics	r3, r1
 8000e72:	392e      	subs	r1, #46	@ 0x2e
 8000e74:	430b      	orrs	r3, r1
 8000e76:	6013      	str	r3, [r2, #0]
 8000e78:	4b50      	ldr	r3, [pc, #320]	@ (8000fbc <main+0x444>)
 8000e7a:	4951      	ldr	r1, [pc, #324]	@ (8000fc0 <main+0x448>)
 8000e7c:	681a      	ldr	r2, [r3, #0]
 8000e7e:	4002      	ands	r2, r0
 8000e80:	2010      	movs	r0, #16
 8000e82:	4302      	orrs	r2, r0
 8000e84:	601a      	str	r2, [r3, #0]
 8000e86:	681a      	ldr	r2, [r3, #0]
 8000e88:	3030      	adds	r0, #48	@ 0x30
 8000e8a:	400a      	ands	r2, r1
 8000e8c:	2120      	movs	r1, #32
 8000e8e:	601a      	str	r2, [r3, #0]
 8000e90:	681a      	ldr	r2, [r3, #0]
 8000e92:	438a      	bics	r2, r1
 8000e94:	601a      	str	r2, [r3, #0]
 8000e96:	681a      	ldr	r2, [r3, #0]
 8000e98:	4382      	bics	r2, r0
 8000e9a:	601a      	str	r2, [r3, #0]
 8000e9c:	681a      	ldr	r2, [r3, #0]
 8000e9e:	4849      	ldr	r0, [pc, #292]	@ (8000fc4 <main+0x44c>)
 8000ea0:	43ba      	bics	r2, r7
 8000ea2:	433a      	orrs	r2, r7
 8000ea4:	601a      	str	r2, [r3, #0]
 8000ea6:	681a      	ldr	r2, [r3, #0]
 8000ea8:	4f47      	ldr	r7, [pc, #284]	@ (8000fc8 <main+0x450>)
 8000eaa:	403a      	ands	r2, r7
 8000eac:	2780      	movs	r7, #128	@ 0x80
 8000eae:	007f      	lsls	r7, r7, #1
 8000eb0:	433a      	orrs	r2, r7
 8000eb2:	601a      	str	r2, [r3, #0]
 8000eb4:	681a      	ldr	r2, [r3, #0]
 8000eb6:	4f45      	ldr	r7, [pc, #276]	@ (8000fcc <main+0x454>)
 8000eb8:	403a      	ands	r2, r7
 8000eba:	2780      	movs	r7, #128	@ 0x80
 8000ebc:	00ff      	lsls	r7, r7, #3
 8000ebe:	433a      	orrs	r2, r7
 8000ec0:	601a      	str	r2, [r3, #0]
 8000ec2:	2382      	movs	r3, #130	@ 0x82
 8000ec4:	005b      	lsls	r3, r3, #1
 8000ec6:	933a      	str	r3, [sp, #232]	@ 0xe8
 8000ec8:	23f0      	movs	r3, #240	@ 0xf0
 8000eca:	011b      	lsls	r3, r3, #4
 8000ecc:	933b      	str	r3, [sp, #236]	@ 0xec
 8000ece:	465b      	mov	r3, fp
 8000ed0:	933c      	str	r3, [sp, #240]	@ 0xf0
 8000ed2:	33ff      	adds	r3, #255	@ 0xff
 8000ed4:	33ff      	adds	r3, #255	@ 0xff
 8000ed6:	aa39      	add	r2, sp, #228	@ 0xe4
 8000ed8:	933e      	str	r3, [sp, #248]	@ 0xf8
 8000eda:	3bfa      	subs	r3, #250	@ 0xfa
 8000edc:	0011      	movs	r1, r2
 8000ede:	3bff      	subs	r3, #255	@ 0xff
 8000ee0:	9342      	str	r3, [sp, #264]	@ 0x108
 8000ee2:	9439      	str	r4, [sp, #228]	@ 0xe4
 8000ee4:	943d      	str	r4, [sp, #244]	@ 0xf4
 8000ee6:	943f      	str	r4, [sp, #252]	@ 0xfc
 8000ee8:	9440      	str	r4, [sp, #256]	@ 0x100
 8000eea:	9441      	str	r4, [sp, #260]	@ 0x104
 8000eec:	f001 fdd0 	bl	8002a90 <LL_SPI_Init>
 8000ef0:	2010      	movs	r0, #16
 8000ef2:	4f34      	ldr	r7, [pc, #208]	@ (8000fc4 <main+0x44c>)
 8000ef4:	2212      	movs	r2, #18
 8000ef6:	687b      	ldr	r3, [r7, #4]
 8000ef8:	2100      	movs	r1, #0
 8000efa:	4383      	bics	r3, r0
 8000efc:	607b      	str	r3, [r7, #4]
 8000efe:	687b      	ldr	r3, [r7, #4]
 8000f00:	0038      	movs	r0, r7
 8000f02:	2708      	movs	r7, #8
 8000f04:	433b      	orrs	r3, r7
 8000f06:	6043      	str	r3, [r0, #4]
 8000f08:	ab02      	add	r3, sp, #8
 8000f0a:	469c      	mov	ip, r3
 8000f0c:	2092      	movs	r0, #146	@ 0x92
 8000f0e:	4460      	add	r0, ip
 8000f10:	f005 fba6 	bl	8006660 <memset>
 8000f14:	2220      	movs	r2, #32
 8000f16:	2100      	movs	r1, #0
 8000f18:	a839      	add	r0, sp, #228	@ 0xe4
 8000f1a:	f005 fba1 	bl	8006660 <memset>
 8000f1e:	2218      	movs	r2, #24
 8000f20:	2100      	movs	r1, #0
 8000f22:	0028      	movs	r0, r5
 8000f24:	f005 fb9c 	bl	8006660 <memset>
 8000f28:	4658      	mov	r0, fp
 8000f2a:	6bf3      	ldr	r3, [r6, #60]	@ 0x3c
 8000f2c:	af26      	add	r7, sp, #152	@ 0x98
 8000f2e:	4303      	orrs	r3, r0
 8000f30:	63f3      	str	r3, [r6, #60]	@ 0x3c
 8000f32:	6bf3      	ldr	r3, [r6, #60]	@ 0x3c
 8000f34:	0039      	movs	r1, r7
 8000f36:	4003      	ands	r3, r0
 8000f38:	9319      	str	r3, [sp, #100]	@ 0x64
 8000f3a:	9b19      	ldr	r3, [sp, #100]	@ 0x64
 8000f3c:	4b24      	ldr	r3, [pc, #144]	@ (8000fd0 <main+0x458>)
 8000f3e:	4825      	ldr	r0, [pc, #148]	@ (8000fd4 <main+0x45c>)
 8000f40:	803b      	strh	r3, [r7, #0]
 8000f42:	239f      	movs	r3, #159	@ 0x9f
 8000f44:	4681      	mov	r9, r0
 8000f46:	60bb      	str	r3, [r7, #8]
 8000f48:	f001 fde2 	bl	8002b10 <LL_TIM_Init>
 8000f4c:	4648      	mov	r0, r9
 8000f4e:	2280      	movs	r2, #128	@ 0x80
 8000f50:	6803      	ldr	r3, [r0, #0]
 8000f52:	2101      	movs	r1, #1
 8000f54:	4393      	bics	r3, r2
 8000f56:	6003      	str	r3, [r0, #0]
 8000f58:	481f      	ldr	r0, [pc, #124]	@ (8000fd8 <main+0x460>)
 8000f5a:	3a78      	subs	r2, #120	@ 0x78
 8000f5c:	6803      	ldr	r3, [r0, #0]
 8000f5e:	4682      	mov	sl, r0
 8000f60:	4313      	orrs	r3, r2
 8000f62:	6003      	str	r3, [r0, #0]
 8000f64:	2060      	movs	r0, #96	@ 0x60
 8000f66:	9039      	str	r0, [sp, #228]	@ 0xe4
 8000f68:	3811      	subs	r0, #17
 8000f6a:	903c      	str	r0, [sp, #240]	@ 0xf0
 8000f6c:	aa39      	add	r2, sp, #228	@ 0xe4
 8000f6e:	4648      	mov	r0, r9
 8000f70:	943a      	str	r4, [sp, #232]	@ 0xe8
 8000f72:	943b      	str	r4, [sp, #236]	@ 0xec
 8000f74:	943d      	str	r4, [sp, #244]	@ 0xf4
 8000f76:	e031      	b.n	8000fdc <main+0x464>
 8000f78:	40022000 	.word	0x40022000
 8000f7c:	40021000 	.word	0x40021000
 8000f80:	e000ed00 	.word	0xe000ed00
 8000f84:	20000000 	.word	0x20000000
 8000f88:	e000e010 	.word	0xe000e010
 8000f8c:	50000400 	.word	0x50000400
 8000f90:	40021800 	.word	0x40021800
 8000f94:	fffff8ff 	.word	0xfffff8ff
 8000f98:	f8ffffff 	.word	0xf8ffffff
 8000f9c:	fff3ffff 	.word	0xfff3ffff
 8000fa0:	50000800 	.word	0x50000800
 8000fa4:	ffff3fff 	.word	0xffff3fff
 8000fa8:	e000e100 	.word	0xe000e100
 8000fac:	ffff00ff 	.word	0xffff00ff
 8000fb0:	ff00ffff 	.word	0xff00ffff
 8000fb4:	40020800 	.word	0x40020800
 8000fb8:	ffffbfef 	.word	0xffffbfef
 8000fbc:	40020008 	.word	0x40020008
 8000fc0:	ffffcfff 	.word	0xffffcfff
 8000fc4:	40013000 	.word	0x40013000
 8000fc8:	fffffcff 	.word	0xfffffcff
 8000fcc:	fffff3ff 	.word	0xfffff3ff
 8000fd0:	000003e7 	.word	0x000003e7
 8000fd4:	40000400 	.word	0x40000400
 8000fd8:	40000418 	.word	0x40000418
 8000fdc:	f001 fde6 	bl	8002bac <LL_TIM_OC_Init>
 8000fe0:	4650      	mov	r0, sl
 8000fe2:	6803      	ldr	r3, [r0, #0]
 8000fe4:	2004      	movs	r0, #4
 8000fe6:	4383      	bics	r3, r0
 8000fe8:	4650      	mov	r0, sl
 8000fea:	6003      	str	r3, [r0, #0]
 8000fec:	4648      	mov	r0, r9
 8000fee:	6843      	ldr	r3, [r0, #4]
 8000ff0:	2070      	movs	r0, #112	@ 0x70
 8000ff2:	4383      	bics	r3, r0
 8000ff4:	4648      	mov	r0, r9
 8000ff6:	6043      	str	r3, [r0, #4]
 8000ff8:	6883      	ldr	r3, [r0, #8]
 8000ffa:	2080      	movs	r0, #128	@ 0x80
 8000ffc:	464a      	mov	r2, r9
 8000ffe:	4383      	bics	r3, r0
 8001000:	6093      	str	r3, [r2, #8]
 8001002:	4642      	mov	r2, r8
 8001004:	6b73      	ldr	r3, [r6, #52]	@ 0x34
 8001006:	20a0      	movs	r0, #160	@ 0xa0
 8001008:	4313      	orrs	r3, r2
 800100a:	6373      	str	r3, [r6, #52]	@ 0x34
 800100c:	6b73      	ldr	r3, [r6, #52]	@ 0x34
 800100e:	0029      	movs	r1, r5
 8001010:	4013      	ands	r3, r2
 8001012:	931a      	str	r3, [sp, #104]	@ 0x68
 8001014:	465a      	mov	r2, fp
 8001016:	9b1a      	ldr	r3, [sp, #104]	@ 0x68
 8001018:	2340      	movs	r3, #64	@ 0x40
 800101a:	932f      	str	r3, [sp, #188]	@ 0xbc
 800101c:	606a      	str	r2, [r5, #4]
 800101e:	4642      	mov	r2, r8
 8001020:	60ac      	str	r4, [r5, #8]
 8001022:	616a      	str	r2, [r5, #20]
 8001024:	60ec      	str	r4, [r5, #12]
 8001026:	612c      	str	r4, [r5, #16]
 8001028:	05c0      	lsls	r0, r0, #23
 800102a:	f001 fcab 	bl	8002984 <LL_GPIO_Init>
 800102e:	ab39      	add	r3, sp, #228	@ 0xe4
 8001030:	2228      	movs	r2, #40	@ 0x28
 8001032:	2100      	movs	r1, #0
 8001034:	0018      	movs	r0, r3
 8001036:	f005 fb13 	bl	8006660 <memset>
 800103a:	2280      	movs	r2, #128	@ 0x80
 800103c:	60ec      	str	r4, [r5, #12]
 800103e:	6bf3      	ldr	r3, [r6, #60]	@ 0x3c
 8001040:	01d2      	lsls	r2, r2, #7
 8001042:	4313      	orrs	r3, r2
 8001044:	63f3      	str	r3, [r6, #60]	@ 0x3c
 8001046:	6bf3      	ldr	r3, [r6, #60]	@ 0x3c
 8001048:	2080      	movs	r0, #128	@ 0x80
 800104a:	4013      	ands	r3, r2
 800104c:	465a      	mov	r2, fp
 800104e:	9316      	str	r3, [sp, #88]	@ 0x58
 8001050:	9b16      	ldr	r3, [sp, #88]	@ 0x58
 8001052:	6b73      	ldr	r3, [r6, #52]	@ 0x34
 8001054:	0029      	movs	r1, r5
 8001056:	4313      	orrs	r3, r2
 8001058:	6373      	str	r3, [r6, #52]	@ 0x34
 800105a:	6b73      	ldr	r3, [r6, #52]	@ 0x34
 800105c:	4013      	ands	r3, r2
 800105e:	4642      	mov	r2, r8
 8001060:	9317      	str	r3, [sp, #92]	@ 0x5c
 8001062:	9b17      	ldr	r3, [sp, #92]	@ 0x5c
 8001064:	6b73      	ldr	r3, [r6, #52]	@ 0x34
 8001066:	4313      	orrs	r3, r2
 8001068:	6373      	str	r3, [r6, #52]	@ 0x34
 800106a:	6b73      	ldr	r3, [r6, #52]	@ 0x34
 800106c:	902f      	str	r0, [sp, #188]	@ 0xbc
 800106e:	4013      	ands	r3, r2
 8001070:	465a      	mov	r2, fp
 8001072:	606a      	str	r2, [r5, #4]
 8001074:	3201      	adds	r2, #1
 8001076:	60aa      	str	r2, [r5, #8]
 8001078:	4642      	mov	r2, r8
 800107a:	9318      	str	r3, [sp, #96]	@ 0x60
 800107c:	612a      	str	r2, [r5, #16]
 800107e:	616a      	str	r2, [r5, #20]
 8001080:	48f5      	ldr	r0, [pc, #980]	@ (8001458 <main+0x8e0>)
 8001082:	9b18      	ldr	r3, [sp, #96]	@ 0x60
 8001084:	f001 fc7e 	bl	8002984 <LL_GPIO_Init>
 8001088:	4642      	mov	r2, r8
 800108a:	922f      	str	r2, [sp, #188]	@ 0xbc
 800108c:	465a      	mov	r2, fp
 800108e:	4643      	mov	r3, r8
 8001090:	20a0      	movs	r0, #160	@ 0xa0
 8001092:	606a      	str	r2, [r5, #4]
 8001094:	3201      	adds	r2, #1
 8001096:	0029      	movs	r1, r5
 8001098:	60aa      	str	r2, [r5, #8]
 800109a:	612b      	str	r3, [r5, #16]
 800109c:	60ec      	str	r4, [r5, #12]
 800109e:	616c      	str	r4, [r5, #20]
 80010a0:	05c0      	lsls	r0, r0, #23
 80010a2:	f001 fc6f 	bl	8002984 <LL_GPIO_Init>
 80010a6:	2304      	movs	r3, #4
 80010a8:	465a      	mov	r2, fp
 80010aa:	932f      	str	r3, [sp, #188]	@ 0xbc
 80010ac:	606a      	str	r2, [r5, #4]
 80010ae:	3201      	adds	r2, #1
 80010b0:	60aa      	str	r2, [r5, #8]
 80010b2:	4642      	mov	r2, r8
 80010b4:	0029      	movs	r1, r5
 80010b6:	612a      	str	r2, [r5, #16]
 80010b8:	616a      	str	r2, [r5, #20]
 80010ba:	48e7      	ldr	r0, [pc, #924]	@ (8001458 <main+0x8e0>)
 80010bc:	60ec      	str	r4, [r5, #12]
 80010be:	f001 fc61 	bl	8002984 <LL_GPIO_Init>
 80010c2:	213f      	movs	r1, #63	@ 0x3f
 80010c4:	4ae5      	ldr	r2, [pc, #916]	@ (800145c <main+0x8e4>)
 80010c6:	48e6      	ldr	r0, [pc, #920]	@ (8001460 <main+0x8e8>)
 80010c8:	6813      	ldr	r3, [r2, #0]
 80010ca:	438b      	bics	r3, r1
 80010cc:	392d      	subs	r1, #45	@ 0x2d
 80010ce:	430b      	orrs	r3, r1
 80010d0:	2180      	movs	r1, #128	@ 0x80
 80010d2:	6013      	str	r3, [r2, #0]
 80010d4:	4be3      	ldr	r3, [pc, #908]	@ (8001464 <main+0x8ec>)
 80010d6:	0149      	lsls	r1, r1, #5
 80010d8:	681a      	ldr	r2, [r3, #0]
 80010da:	4002      	ands	r2, r0
 80010dc:	601a      	str	r2, [r3, #0]
 80010de:	681a      	ldr	r2, [r3, #0]
 80010e0:	48e1      	ldr	r0, [pc, #900]	@ (8001468 <main+0x8f0>)
 80010e2:	4002      	ands	r2, r0
 80010e4:	430a      	orrs	r2, r1
 80010e6:	2120      	movs	r1, #32
 80010e8:	2080      	movs	r0, #128	@ 0x80
 80010ea:	601a      	str	r2, [r3, #0]
 80010ec:	681a      	ldr	r2, [r3, #0]
 80010ee:	438a      	bics	r2, r1
 80010f0:	601a      	str	r2, [r3, #0]
 80010f2:	681a      	ldr	r2, [r3, #0]
 80010f4:	3120      	adds	r1, #32
 80010f6:	438a      	bics	r2, r1
 80010f8:	601a      	str	r2, [r3, #0]
 80010fa:	681a      	ldr	r2, [r3, #0]
 80010fc:	49db      	ldr	r1, [pc, #876]	@ (800146c <main+0x8f4>)
 80010fe:	4382      	bics	r2, r0
 8001100:	4302      	orrs	r2, r0
 8001102:	601a      	str	r2, [r3, #0]
 8001104:	681a      	ldr	r2, [r3, #0]
 8001106:	400a      	ands	r2, r1
 8001108:	601a      	str	r2, [r3, #0]
 800110a:	681a      	ldr	r2, [r3, #0]
 800110c:	49d8      	ldr	r1, [pc, #864]	@ (8001470 <main+0x8f8>)
 800110e:	400a      	ands	r2, r1
 8001110:	213f      	movs	r1, #63	@ 0x3f
 8001112:	601a      	str	r2, [r3, #0]
 8001114:	4ad7      	ldr	r2, [pc, #860]	@ (8001474 <main+0x8fc>)
 8001116:	6813      	ldr	r3, [r2, #0]
 8001118:	438b      	bics	r3, r1
 800111a:	392c      	subs	r1, #44	@ 0x2c
 800111c:	430b      	orrs	r3, r1
 800111e:	6013      	str	r3, [r2, #0]
 8001120:	4bd5      	ldr	r3, [pc, #852]	@ (8001478 <main+0x900>)
 8001122:	49cf      	ldr	r1, [pc, #828]	@ (8001460 <main+0x8e8>)
 8001124:	681a      	ldr	r2, [r3, #0]
 8001126:	400a      	ands	r2, r1
 8001128:	2110      	movs	r1, #16
 800112a:	430a      	orrs	r2, r1
 800112c:	601a      	str	r2, [r3, #0]
 800112e:	681a      	ldr	r2, [r3, #0]
 8001130:	49cd      	ldr	r1, [pc, #820]	@ (8001468 <main+0x8f0>)
 8001132:	400a      	ands	r2, r1
 8001134:	2180      	movs	r1, #128	@ 0x80
 8001136:	0149      	lsls	r1, r1, #5
 8001138:	430a      	orrs	r2, r1
 800113a:	2120      	movs	r1, #32
 800113c:	601a      	str	r2, [r3, #0]
 800113e:	681a      	ldr	r2, [r3, #0]
 8001140:	438a      	bics	r2, r1
 8001142:	601a      	str	r2, [r3, #0]
 8001144:	681a      	ldr	r2, [r3, #0]
 8001146:	3120      	adds	r1, #32
 8001148:	438a      	bics	r2, r1
 800114a:	601a      	str	r2, [r3, #0]
 800114c:	681a      	ldr	r2, [r3, #0]
 800114e:	4382      	bics	r2, r0
 8001150:	4302      	orrs	r2, r0
 8001152:	601a      	str	r2, [r3, #0]
 8001154:	681a      	ldr	r2, [r3, #0]
 8001156:	48c5      	ldr	r0, [pc, #788]	@ (800146c <main+0x8f4>)
 8001158:	4002      	ands	r2, r0
 800115a:	601a      	str	r2, [r3, #0]
 800115c:	681a      	ldr	r2, [r3, #0]
 800115e:	48c4      	ldr	r0, [pc, #784]	@ (8001470 <main+0x8f8>)
 8001160:	4002      	ands	r2, r0
 8001162:	601a      	str	r2, [r3, #0]
 8001164:	2382      	movs	r3, #130	@ 0x82
 8001166:	005b      	lsls	r3, r3, #1
 8001168:	9439      	str	r4, [sp, #228]	@ 0xe4
 800116a:	933a      	str	r3, [sp, #232]	@ 0xe8
 800116c:	23e0      	movs	r3, #224	@ 0xe0
 800116e:	00db      	lsls	r3, r3, #3
 8001170:	933b      	str	r3, [sp, #236]	@ 0xec
 8001172:	2380      	movs	r3, #128	@ 0x80
 8001174:	009b      	lsls	r3, r3, #2
 8001176:	933e      	str	r3, [sp, #248]	@ 0xf8
 8001178:	3bfa      	subs	r3, #250	@ 0xfa
 800117a:	3bff      	subs	r3, #255	@ 0xff
 800117c:	9342      	str	r3, [sp, #264]	@ 0x108
 800117e:	4bbf      	ldr	r3, [pc, #764]	@ (800147c <main+0x904>)
 8001180:	943c      	str	r4, [sp, #240]	@ 0xf0
 8001182:	4699      	mov	r9, r3
 8001184:	ab39      	add	r3, sp, #228	@ 0xe4
 8001186:	0019      	movs	r1, r3
 8001188:	4648      	mov	r0, r9
 800118a:	943d      	str	r4, [sp, #244]	@ 0xf4
 800118c:	943f      	str	r4, [sp, #252]	@ 0xfc
 800118e:	9440      	str	r4, [sp, #256]	@ 0x100
 8001190:	9441      	str	r4, [sp, #260]	@ 0x104
 8001192:	f001 fc7d 	bl	8002a90 <LL_SPI_Init>
 8001196:	464b      	mov	r3, r9
 8001198:	2210      	movs	r2, #16
 800119a:	685b      	ldr	r3, [r3, #4]
 800119c:	2100      	movs	r1, #0
 800119e:	4393      	bics	r3, r2
 80011a0:	464a      	mov	r2, r9
 80011a2:	6053      	str	r3, [r2, #4]
 80011a4:	6853      	ldr	r3, [r2, #4]
 80011a6:	2208      	movs	r2, #8
 80011a8:	4313      	orrs	r3, r2
 80011aa:	464a      	mov	r2, r9
 80011ac:	6053      	str	r3, [r2, #4]
 80011ae:	ab21      	add	r3, sp, #132	@ 0x84
 80011b0:	2220      	movs	r2, #32
 80011b2:	805c      	strh	r4, [r3, #2]
 80011b4:	0028      	movs	r0, r5
 80011b6:	4699      	mov	r9, r3
 80011b8:	f005 fa52 	bl	8006660 <memset>
 80011bc:	ab39      	add	r3, sp, #228	@ 0xe4
 80011be:	0018      	movs	r0, r3
 80011c0:	2230      	movs	r2, #48	@ 0x30
 80011c2:	2100      	movs	r1, #0
 80011c4:	f005 fa4c 	bl	8006660 <memset>
 80011c8:	2218      	movs	r2, #24
 80011ca:	2100      	movs	r1, #0
 80011cc:	0038      	movs	r0, r7
 80011ce:	f005 fa47 	bl	8006660 <memset>
 80011d2:	6d73      	ldr	r3, [r6, #84]	@ 0x54
 80011d4:	4aaa      	ldr	r2, [pc, #680]	@ (8001480 <main+0x908>)
 80011d6:	213f      	movs	r1, #63	@ 0x3f
 80011d8:	4013      	ands	r3, r2
 80011da:	2280      	movs	r2, #128	@ 0x80
 80011dc:	6573      	str	r3, [r6, #84]	@ 0x54
 80011de:	6c33      	ldr	r3, [r6, #64]	@ 0x40
 80011e0:	0112      	lsls	r2, r2, #4
 80011e2:	4313      	orrs	r3, r2
 80011e4:	6433      	str	r3, [r6, #64]	@ 0x40
 80011e6:	6c33      	ldr	r3, [r6, #64]	@ 0x40
 80011e8:	489d      	ldr	r0, [pc, #628]	@ (8001460 <main+0x8e8>)
 80011ea:	4013      	ands	r3, r2
 80011ec:	4aa5      	ldr	r2, [pc, #660]	@ (8001484 <main+0x90c>)
 80011ee:	9314      	str	r3, [sp, #80]	@ 0x50
 80011f0:	9b14      	ldr	r3, [sp, #80]	@ 0x50
 80011f2:	6813      	ldr	r3, [r2, #0]
 80011f4:	438b      	bics	r3, r1
 80011f6:	3928      	subs	r1, #40	@ 0x28
 80011f8:	430b      	orrs	r3, r1
 80011fa:	6013      	str	r3, [r2, #0]
 80011fc:	4ba2      	ldr	r3, [pc, #648]	@ (8001488 <main+0x910>)
 80011fe:	3907      	subs	r1, #7
 8001200:	681a      	ldr	r2, [r3, #0]
 8001202:	4002      	ands	r2, r0
 8001204:	430a      	orrs	r2, r1
 8001206:	601a      	str	r2, [r3, #0]
 8001208:	6819      	ldr	r1, [r3, #0]
 800120a:	4a97      	ldr	r2, [pc, #604]	@ (8001468 <main+0x8f0>)
 800120c:	2080      	movs	r0, #128	@ 0x80
 800120e:	4011      	ands	r1, r2
 8001210:	22c0      	movs	r2, #192	@ 0xc0
 8001212:	0192      	lsls	r2, r2, #6
 8001214:	430a      	orrs	r2, r1
 8001216:	2120      	movs	r1, #32
 8001218:	601a      	str	r2, [r3, #0]
 800121a:	681a      	ldr	r2, [r3, #0]
 800121c:	438a      	bics	r2, r1
 800121e:	430a      	orrs	r2, r1
 8001220:	601a      	str	r2, [r3, #0]
 8001222:	681a      	ldr	r2, [r3, #0]
 8001224:	3120      	adds	r1, #32
 8001226:	438a      	bics	r2, r1
 8001228:	601a      	str	r2, [r3, #0]
 800122a:	681a      	ldr	r2, [r3, #0]
 800122c:	498f      	ldr	r1, [pc, #572]	@ (800146c <main+0x8f4>)
 800122e:	4382      	bics	r2, r0
 8001230:	4302      	orrs	r2, r0
 8001232:	601a      	str	r2, [r3, #0]
 8001234:	681a      	ldr	r2, [r3, #0]
 8001236:	400a      	ands	r2, r1
 8001238:	2180      	movs	r1, #128	@ 0x80
 800123a:	0049      	lsls	r1, r1, #1
 800123c:	430a      	orrs	r2, r1
 800123e:	601a      	str	r2, [r3, #0]
 8001240:	681a      	ldr	r2, [r3, #0]
 8001242:	498b      	ldr	r1, [pc, #556]	@ (8001470 <main+0x8f8>)
 8001244:	400a      	ands	r2, r1
 8001246:	2180      	movs	r1, #128	@ 0x80
 8001248:	00c9      	lsls	r1, r1, #3
 800124a:	430a      	orrs	r2, r1
 800124c:	601a      	str	r2, [r3, #0]
 800124e:	464b      	mov	r3, r9
 8001250:	4649      	mov	r1, r9
 8001252:	801c      	strh	r4, [r3, #0]
 8001254:	605c      	str	r4, [r3, #4]
 8001256:	234f      	movs	r3, #79	@ 0x4f
 8001258:	608b      	str	r3, [r1, #8]
 800125a:	4b8c      	ldr	r3, [pc, #560]	@ (800148c <main+0x914>)
 800125c:	60cc      	str	r4, [r1, #12]
 800125e:	469a      	mov	sl, r3
 8001260:	0018      	movs	r0, r3
 8001262:	610c      	str	r4, [r1, #16]
 8001264:	f001 fc54 	bl	8002b10 <LL_TIM_Init>
 8001268:	4653      	mov	r3, sl
 800126a:	2080      	movs	r0, #128	@ 0x80
 800126c:	4651      	mov	r1, sl
 800126e:	681b      	ldr	r3, [r3, #0]
 8001270:	2280      	movs	r2, #128	@ 0x80
 8001272:	4383      	bics	r3, r0
 8001274:	600b      	str	r3, [r1, #0]
 8001276:	4b86      	ldr	r3, [pc, #536]	@ (8001490 <main+0x918>)
 8001278:	0112      	lsls	r2, r2, #4
 800127a:	0019      	movs	r1, r3
 800127c:	681b      	ldr	r3, [r3, #0]
 800127e:	4650      	mov	r0, sl
 8001280:	4313      	orrs	r3, r2
 8001282:	600b      	str	r3, [r1, #0]
 8001284:	2260      	movs	r2, #96	@ 0x60
 8001286:	2327      	movs	r3, #39	@ 0x27
 8001288:	2180      	movs	r1, #128	@ 0x80
 800128a:	922f      	str	r2, [sp, #188]	@ 0xbc
 800128c:	0149      	lsls	r1, r1, #5
 800128e:	002a      	movs	r2, r5
 8001290:	60eb      	str	r3, [r5, #12]
 8001292:	606c      	str	r4, [r5, #4]
 8001294:	60ac      	str	r4, [r5, #8]
 8001296:	612c      	str	r4, [r5, #16]
 8001298:	61ac      	str	r4, [r5, #24]
 800129a:	61ec      	str	r4, [r5, #28]
 800129c:	f001 fc86 	bl	8002bac <LL_TIM_OC_Init>
 80012a0:	4b7b      	ldr	r3, [pc, #492]	@ (8001490 <main+0x918>)
 80012a2:	4a7c      	ldr	r2, [pc, #496]	@ (8001494 <main+0x91c>)
 80012a4:	0019      	movs	r1, r3
 80012a6:	681b      	ldr	r3, [r3, #0]
 80012a8:	2080      	movs	r0, #128	@ 0x80
 80012aa:	4013      	ands	r3, r2
 80012ac:	600b      	str	r3, [r1, #0]
 80012ae:	4653      	mov	r3, sl
 80012b0:	2270      	movs	r2, #112	@ 0x70
 80012b2:	685b      	ldr	r3, [r3, #4]
 80012b4:	21e8      	movs	r1, #232	@ 0xe8
 80012b6:	4393      	bics	r3, r2
 80012b8:	4652      	mov	r2, sl
 80012ba:	6053      	str	r3, [r2, #4]
 80012bc:	6853      	ldr	r3, [r2, #4]
 80012be:	4a76      	ldr	r2, [pc, #472]	@ (8001498 <main+0x920>)
 80012c0:	4013      	ands	r3, r2
 80012c2:	4652      	mov	r2, sl
 80012c4:	6053      	str	r3, [r2, #4]
 80012c6:	6893      	ldr	r3, [r2, #8]
 80012c8:	4383      	bics	r3, r0
 80012ca:	6093      	str	r3, [r2, #8]
 80012cc:	2300      	movs	r3, #0
 80012ce:	aa02      	add	r2, sp, #8
 80012d0:	1852      	adds	r2, r2, r1
 80012d2:	9439      	str	r4, [sp, #228]	@ 0xe4
 80012d4:	943a      	str	r4, [sp, #232]	@ 0xe8
 80012d6:	943b      	str	r4, [sp, #236]	@ 0xec
 80012d8:	7013      	strb	r3, [r2, #0]
 80012da:	22ea      	movs	r2, #234	@ 0xea
 80012dc:	ab02      	add	r3, sp, #8
 80012de:	189b      	adds	r3, r3, r2
 80012e0:	801c      	strh	r4, [r3, #0]
 80012e2:	2380      	movs	r3, #128	@ 0x80
 80012e4:	019b      	lsls	r3, r3, #6
 80012e6:	933d      	str	r3, [sp, #244]	@ 0xf4
 80012e8:	2380      	movs	r3, #128	@ 0x80
 80012ea:	049b      	lsls	r3, r3, #18
 80012ec:	9341      	str	r3, [sp, #260]	@ 0x104
 80012ee:	ab39      	add	r3, sp, #228	@ 0xe4
 80012f0:	0019      	movs	r1, r3
 80012f2:	4650      	mov	r0, sl
 80012f4:	943e      	str	r4, [sp, #248]	@ 0xf8
 80012f6:	943f      	str	r4, [sp, #252]	@ 0xfc
 80012f8:	9440      	str	r4, [sp, #256]	@ 0x100
 80012fa:	9442      	str	r4, [sp, #264]	@ 0x108
 80012fc:	9443      	str	r4, [sp, #268]	@ 0x10c
 80012fe:	9444      	str	r4, [sp, #272]	@ 0x110
 8001300:	f001 fdc0 	bl	8002e84 <LL_TIM_BDTR_Init>
 8001304:	4642      	mov	r2, r8
 8001306:	6b73      	ldr	r3, [r6, #52]	@ 0x34
 8001308:	20a0      	movs	r0, #160	@ 0xa0
 800130a:	4313      	orrs	r3, r2
 800130c:	6373      	str	r3, [r6, #52]	@ 0x34
 800130e:	6b73      	ldr	r3, [r6, #52]	@ 0x34
 8001310:	2680      	movs	r6, #128	@ 0x80
 8001312:	0136      	lsls	r6, r6, #4
 8001314:	9626      	str	r6, [sp, #152]	@ 0x98
 8001316:	465e      	mov	r6, fp
 8001318:	4013      	ands	r3, r2
 800131a:	0039      	movs	r1, r7
 800131c:	607e      	str	r6, [r7, #4]
 800131e:	60be      	str	r6, [r7, #8]
 8001320:	60fa      	str	r2, [r7, #12]
 8001322:	617e      	str	r6, [r7, #20]
 8001324:	9315      	str	r3, [sp, #84]	@ 0x54
 8001326:	613c      	str	r4, [r7, #16]
 8001328:	05c0      	lsls	r0, r0, #23
 800132a:	9b15      	ldr	r3, [sp, #84]	@ 0x54
 800132c:	f001 fb2a 	bl	8002984 <LL_GPIO_Init>
 8001330:	4e5a      	ldr	r6, [pc, #360]	@ (800149c <main+0x924>)
 8001332:	464b      	mov	r3, r9
 8001334:	0032      	movs	r2, r6
 8001336:	9611      	str	r6, [sp, #68]	@ 0x44
 8001338:	ca43      	ldmia	r2!, {r0, r1, r6}
 800133a:	c343      	stmia	r3!, {r0, r1, r6}
 800133c:	2080      	movs	r0, #128	@ 0x80
 800133e:	2120      	movs	r1, #32
 8001340:	6812      	ldr	r2, [r2, #0]
 8001342:	4e57      	ldr	r6, [pc, #348]	@ (80014a0 <main+0x928>)
 8001344:	601a      	str	r2, [r3, #0]
 8001346:	23a0      	movs	r3, #160	@ 0xa0
 8001348:	9626      	str	r6, [sp, #152]	@ 0x98
 800134a:	4e56      	ldr	r6, [pc, #344]	@ (80014a4 <main+0x92c>)
 800134c:	0140      	lsls	r0, r0, #5
 800134e:	607e      	str	r6, [r7, #4]
 8001350:	8238      	strh	r0, [r7, #16]
 8001352:	4646      	mov	r6, r8
 8001354:	2008      	movs	r0, #8
 8001356:	8439      	strh	r1, [r7, #32]
 8001358:	4649      	mov	r1, r9
 800135a:	4694      	mov	ip, r2
 800135c:	4a52      	ldr	r2, [pc, #328]	@ (80014a8 <main+0x930>)
 800135e:	05db      	lsls	r3, r3, #23
 8001360:	60fb      	str	r3, [r7, #12]
 8001362:	617b      	str	r3, [r7, #20]
 8001364:	61fb      	str	r3, [r7, #28]
 8001366:	6813      	ldr	r3, [r2, #0]
 8001368:	60be      	str	r6, [r7, #8]
 800136a:	8338      	strh	r0, [r7, #24]
 800136c:	9210      	str	r2, [sp, #64]	@ 0x40
 800136e:	4698      	mov	r8, r3
 8001370:	ab0b      	add	r3, sp, #44	@ 0x2c
 8001372:	c945      	ldmia	r1!, {r0, r2, r6}
 8001374:	c345      	stmia	r3!, {r0, r2, r6}
 8001376:	0019      	movs	r1, r3
 8001378:	4663      	mov	r3, ip
 800137a:	600b      	str	r3, [r1, #0]
 800137c:	465b      	mov	r3, fp
 800137e:	930a      	str	r3, [sp, #40]	@ 0x28
 8001380:	4b4a      	ldr	r3, [pc, #296]	@ (80014ac <main+0x934>)
 8001382:	9709      	str	r7, [sp, #36]	@ 0x24
 8001384:	9308      	str	r3, [sp, #32]
 8001386:	4b4a      	ldr	r3, [pc, #296]	@ (80014b0 <main+0x938>)
 8001388:	a939      	add	r1, sp, #228	@ 0xe4
 800138a:	9307      	str	r3, [sp, #28]
 800138c:	4b49      	ldr	r3, [pc, #292]	@ (80014b4 <main+0x93c>)
 800138e:	22f0      	movs	r2, #240	@ 0xf0
 8001390:	9306      	str	r3, [sp, #24]
 8001392:	4b49      	ldr	r3, [pc, #292]	@ (80014b8 <main+0x940>)
 8001394:	4640      	mov	r0, r8
 8001396:	9305      	str	r3, [sp, #20]
 8001398:	23a0      	movs	r3, #160	@ 0xa0
 800139a:	005b      	lsls	r3, r3, #1
 800139c:	9301      	str	r3, [sp, #4]
 800139e:	3b50      	subs	r3, #80	@ 0x50
 80013a0:	9300      	str	r3, [sp, #0]
 80013a2:	9404      	str	r4, [sp, #16]
 80013a4:	9403      	str	r4, [sp, #12]
 80013a6:	9402      	str	r4, [sp, #8]
 80013a8:	f000 fc42 	bl	8001c30 <LCD_DisplayAdd>
 80013ac:	4680      	mov	r8, r0
 80013ae:	9a10      	ldr	r2, [sp, #64]	@ 0x40
 80013b0:	4f42      	ldr	r7, [pc, #264]	@ (80014bc <main+0x944>)
 80013b2:	6010      	str	r0, [r2, #0]
 80013b4:	f000 fd7a 	bl	8001eac <LCD_Init>
 80013b8:	2100      	movs	r1, #0
 80013ba:	4640      	mov	r0, r8
 80013bc:	f000 ff3a 	bl	8002234 <LCD_Fill>
 80013c0:	4e3f      	ldr	r6, [pc, #252]	@ (80014c0 <main+0x948>)
 80013c2:	2200      	movs	r2, #0
 80013c4:	2100      	movs	r1, #0
 80013c6:	4640      	mov	r0, r8
 80013c8:	4b3e      	ldr	r3, [pc, #248]	@ (80014c4 <main+0x94c>)
 80013ca:	9403      	str	r4, [sp, #12]
 80013cc:	9402      	str	r4, [sp, #8]
 80013ce:	9701      	str	r7, [sp, #4]
 80013d0:	9600      	str	r6, [sp, #0]
 80013d2:	f001 fa07 	bl	80027e4 <LCD_WriteString>
 80013d6:	4643      	mov	r3, r8
 80013d8:	7872      	ldrb	r2, [r6, #1]
 80013da:	8a1b      	ldrh	r3, [r3, #16]
 80013dc:	493a      	ldr	r1, [pc, #232]	@ (80014c8 <main+0x950>)
 80013de:	18d2      	adds	r2, r2, r3
 80013e0:	4643      	mov	r3, r8
 80013e2:	b292      	uxth	r2, r2
 80013e4:	821a      	strh	r2, [r3, #16]
 80013e6:	4640      	mov	r0, r8
 80013e8:	4b38      	ldr	r3, [pc, #224]	@ (80014cc <main+0x954>)
 80013ea:	9101      	str	r1, [sp, #4]
 80013ec:	9403      	str	r4, [sp, #12]
 80013ee:	2100      	movs	r1, #0
 80013f0:	9402      	str	r4, [sp, #8]
 80013f2:	9600      	str	r6, [sp, #0]
 80013f4:	f001 f9f6 	bl	80027e4 <LCD_WriteString>
 80013f8:	4642      	mov	r2, r8
 80013fa:	7873      	ldrb	r3, [r6, #1]
 80013fc:	8a12      	ldrh	r2, [r2, #16]
 80013fe:	20fa      	movs	r0, #250	@ 0xfa
 8001400:	189b      	adds	r3, r3, r2
 8001402:	4642      	mov	r2, r8
 8001404:	00c0      	lsls	r0, r0, #3
 8001406:	8213      	strh	r3, [r2, #16]
 8001408:	f001 fd9a 	bl	8002f40 <LL_mDelay>
 800140c:	2201      	movs	r2, #1
 800140e:	4930      	ldr	r1, [pc, #192]	@ (80014d0 <main+0x958>)
 8001410:	4830      	ldr	r0, [pc, #192]	@ (80014d4 <main+0x95c>)
 8001412:	f002 feb5 	bl	8004180 <f_mount>
 8001416:	2800      	cmp	r0, #0
 8001418:	d064      	beq.n	80014e4 <main+0x96c>
 800141a:	21ff      	movs	r1, #255	@ 0xff
 800141c:	4642      	mov	r2, r8
 800141e:	0409      	lsls	r1, r1, #16
 8001420:	8a12      	ldrh	r2, [r2, #16]
 8001422:	4640      	mov	r0, r8
 8001424:	4b2c      	ldr	r3, [pc, #176]	@ (80014d8 <main+0x960>)
 8001426:	9101      	str	r1, [sp, #4]
 8001428:	9403      	str	r4, [sp, #12]
 800142a:	0021      	movs	r1, r4
 800142c:	9402      	str	r4, [sp, #8]
 800142e:	9600      	str	r6, [sp, #0]
 8001430:	f001 f9d8 	bl	80027e4 <LCD_WriteString>
 8001434:	4643      	mov	r3, r8
 8001436:	7872      	ldrb	r2, [r6, #1]
 8001438:	8a1b      	ldrh	r3, [r3, #16]
 800143a:	4928      	ldr	r1, [pc, #160]	@ (80014dc <main+0x964>)
 800143c:	18d2      	adds	r2, r2, r3
 800143e:	4643      	mov	r3, r8
 8001440:	b292      	uxth	r2, r2
 8001442:	821a      	strh	r2, [r3, #16]
 8001444:	4640      	mov	r0, r8
 8001446:	9102      	str	r1, [sp, #8]
 8001448:	4b25      	ldr	r3, [pc, #148]	@ (80014e0 <main+0x968>)
 800144a:	0021      	movs	r1, r4
 800144c:	9403      	str	r4, [sp, #12]
 800144e:	9701      	str	r7, [sp, #4]
 8001450:	9600      	str	r6, [sp, #0]
 8001452:	f001 f9c7 	bl	80027e4 <LCD_WriteString>
 8001456:	e7fe      	b.n	8001456 <main+0x8de>
 8001458:	50000400 	.word	0x50000400
 800145c:	40020804 	.word	0x40020804
 8001460:	ffffbfef 	.word	0xffffbfef
 8001464:	4002001c 	.word	0x4002001c
 8001468:	ffffcfff 	.word	0xffffcfff
 800146c:	fffffcff 	.word	0xfffffcff
 8001470:	fffff3ff 	.word	0xfffff3ff
 8001474:	40020808 	.word	0x40020808
 8001478:	40020030 	.word	0x40020030
 800147c:	40003800 	.word	0x40003800
 8001480:	ffbfffff 	.word	0xffbfffff
 8001484:	4002080c 	.word	0x4002080c
 8001488:	40020044 	.word	0x40020044
 800148c:	40012c00 	.word	0x40012c00
 8001490:	40012c1c 	.word	0x40012c1c
 8001494:	fffffbff 	.word	0xfffffbff
 8001498:	ff0fffff 	.word	0xff0fffff
 800149c:	080067d8 	.word	0x080067d8
 80014a0:	40013000 	.word	0x40013000
 80014a4:	40020000 	.word	0x40020000
 80014a8:	20000378 	.word	0x20000378
 80014ac:	080028c1 	.word	0x080028c1
 80014b0:	080028b9 	.word	0x080028b9
 80014b4:	08002899 	.word	0x08002899
 80014b8:	0800286d 	.word	0x0800286d
 80014bc:	00ffff00 	.word	0x00ffff00
 80014c0:	20000004 	.word	0x20000004
 80014c4:	08006810 	.word	0x08006810
 80014c8:	0000ffff 	.word	0x0000ffff
 80014cc:	08006828 	.word	0x08006828
 80014d0:	2000036c 	.word	0x2000036c
 80014d4:	20000140 	.word	0x20000140
 80014d8:	08006844 	.word	0x08006844
 80014dc:	00319bb1 	.word	0x00319bb1
 80014e0:	08006850 	.word	0x08006850
 80014e4:	002a      	movs	r2, r5
 80014e6:	9b11      	ldr	r3, [sp, #68]	@ 0x44
 80014e8:	3310      	adds	r3, #16
 80014ea:	cb13      	ldmia	r3!, {r0, r1, r4}
 80014ec:	c213      	stmia	r2!, {r0, r1, r4}
 80014ee:	cb13      	ldmia	r3!, {r0, r1, r4}
 80014f0:	c213      	stmia	r2!, {r0, r1, r4}
 80014f2:	cb13      	ldmia	r3!, {r0, r1, r4}
 80014f4:	c213      	stmia	r2!, {r0, r1, r4}
 80014f6:	681b      	ldr	r3, [r3, #0]
 80014f8:	6013      	str	r3, [r2, #0]
 80014fa:	f004 fb8b 	bl	8005c14 <FileManagerNew>
 80014fe:	4641      	mov	r1, r8
 8001500:	6b83      	ldr	r3, [r0, #56]	@ 0x38
 8001502:	0004      	movs	r4, r0
 8001504:	4798      	blx	r3
 8001506:	4642      	mov	r2, r8
 8001508:	4643      	mov	r3, r8
 800150a:	88d2      	ldrh	r2, [r2, #6]
 800150c:	889b      	ldrh	r3, [r3, #4]
 800150e:	9200      	str	r2, [sp, #0]
 8001510:	2200      	movs	r2, #0
 8001512:	0020      	movs	r0, r4
 8001514:	0011      	movs	r1, r2
 8001516:	6be7      	ldr	r7, [r4, #60]	@ 0x3c
 8001518:	47b8      	blx	r7
 800151a:	2703      	movs	r7, #3
 800151c:	0029      	movs	r1, r5
 800151e:	0020      	movs	r0, r4
 8001520:	6c23      	ldr	r3, [r4, #64]	@ 0x40
 8001522:	4798      	blx	r3
 8001524:	0031      	movs	r1, r6
 8001526:	0020      	movs	r0, r4
 8001528:	6c63      	ldr	r3, [r4, #68]	@ 0x44
 800152a:	4798      	blx	r3
 800152c:	2303      	movs	r3, #3
 800152e:	2201      	movs	r2, #1
 8001530:	2100      	movs	r1, #0
 8001532:	0020      	movs	r0, r4
 8001534:	6ca5      	ldr	r5, [r4, #72]	@ 0x48
 8001536:	47a8      	blx	r5
 8001538:	4b3b      	ldr	r3, [pc, #236]	@ (8001628 <main+0xab0>)
 800153a:	21a0      	movs	r1, #160	@ 0xa0
 800153c:	701f      	strb	r7, [r3, #0]
 800153e:	2380      	movs	r3, #128	@ 0x80
 8001540:	021b      	lsls	r3, r3, #8
 8001542:	9302      	str	r3, [sp, #8]
 8001544:	4b39      	ldr	r3, [pc, #228]	@ (800162c <main+0xab4>)
 8001546:	4d3a      	ldr	r5, [pc, #232]	@ (8001630 <main+0xab8>)
 8001548:	9301      	str	r3, [sp, #4]
 800154a:	2380      	movs	r3, #128	@ 0x80
 800154c:	009b      	lsls	r3, r3, #2
 800154e:	2280      	movs	r2, #128	@ 0x80
 8001550:	0028      	movs	r0, r5
 8001552:	9300      	str	r3, [sp, #0]
 8001554:	05c9      	lsls	r1, r1, #23
 8001556:	4b37      	ldr	r3, [pc, #220]	@ (8001634 <main+0xabc>)
 8001558:	f001 fd0e 	bl	8002f78 <EncoderInit>
 800155c:	2101      	movs	r1, #1
 800155e:	0028      	movs	r0, r5
 8001560:	f001 fdb6 	bl	80030d0 <EncoderSetInversion>
 8001564:	4b34      	ldr	r3, [pc, #208]	@ (8001638 <main+0xac0>)
 8001566:	2196      	movs	r1, #150	@ 0x96
 8001568:	9300      	str	r3, [sp, #0]
 800156a:	2380      	movs	r3, #128	@ 0x80
 800156c:	4652      	mov	r2, sl
 800156e:	9701      	str	r7, [sp, #4]
 8001570:	015b      	lsls	r3, r3, #5
 8001572:	00c9      	lsls	r1, r1, #3
 8001574:	2000      	movs	r0, #0
 8001576:	f004 fc31 	bl	8005ddc <LED_AddNewPort>
 800157a:	223f      	movs	r2, #63	@ 0x3f
 800157c:	0003      	movs	r3, r0
 800157e:	213c      	movs	r1, #60	@ 0x3c
 8001580:	2006      	movs	r0, #6
 8001582:	f004 fcdf 	bl	8005f44 <LED_CreateDevice>
 8001586:	1e07      	subs	r7, r0, #0
 8001588:	d040      	beq.n	800160c <main+0xa94>
 800158a:	f004 fd45 	bl	8006018 <LED_StartDevice>
 800158e:	4b2b      	ldr	r3, [pc, #172]	@ (800163c <main+0xac4>)
 8001590:	2600      	movs	r6, #0
 8001592:	4699      	mov	r9, r3
 8001594:	4640      	mov	r0, r8
 8001596:	492a      	ldr	r1, [pc, #168]	@ (8001640 <main+0xac8>)
 8001598:	f000 fe4c 	bl	8002234 <LCD_Fill>
 800159c:	0020      	movs	r0, r4
 800159e:	6d23      	ldr	r3, [r4, #80]	@ 0x50
 80015a0:	4798      	blx	r3
 80015a2:	0020      	movs	r0, r4
 80015a4:	6d63      	ldr	r3, [r4, #84]	@ 0x54
 80015a6:	4798      	blx	r3
 80015a8:	2800      	cmp	r0, #0
 80015aa:	d11a      	bne.n	80015e2 <main+0xa6a>
 80015ac:	4640      	mov	r0, r8
 80015ae:	f000 fcab 	bl	8001f08 <LCD_SleepIn>
 80015b2:	6da3      	ldr	r3, [r4, #88]	@ 0x58
 80015b4:	0020      	movs	r0, r4
 80015b6:	4798      	blx	r3
 80015b8:	6de3      	ldr	r3, [r4, #92]	@ 0x5c
 80015ba:	0005      	movs	r5, r0
 80015bc:	0020      	movs	r0, r4
 80015be:	4798      	blx	r3
 80015c0:	8a3b      	ldrh	r3, [r7, #16]
 80015c2:	0001      	movs	r1, r0
 80015c4:	9302      	str	r3, [sp, #8]
 80015c6:	89fb      	ldrh	r3, [r7, #14]
 80015c8:	003a      	movs	r2, r7
 80015ca:	9301      	str	r3, [sp, #4]
 80015cc:	0028      	movs	r0, r5
 80015ce:	2300      	movs	r3, #0
 80015d0:	9600      	str	r6, [sp, #0]
 80015d2:	f7ff f80b 	bl	80005ec <PlayAVI>
 80015d6:	2800      	cmp	r0, #0
 80015d8:	d0eb      	beq.n	80015b2 <main+0xa3a>
 80015da:	4640      	mov	r0, r8
 80015dc:	f000 fcc0 	bl	8001f60 <LCD_SleepOut>
 80015e0:	e7d8      	b.n	8001594 <main+0xa1c>
 80015e2:	68e3      	ldr	r3, [r4, #12]
 80015e4:	9603      	str	r6, [sp, #12]
 80015e6:	68da      	ldr	r2, [r3, #12]
 80015e8:	2100      	movs	r1, #0
 80015ea:	9202      	str	r2, [sp, #8]
 80015ec:	685b      	ldr	r3, [r3, #4]
 80015ee:	2200      	movs	r2, #0
 80015f0:	9301      	str	r3, [sp, #4]
 80015f2:	6923      	ldr	r3, [r4, #16]
 80015f4:	4640      	mov	r0, r8
 80015f6:	9300      	str	r3, [sp, #0]
 80015f8:	464b      	mov	r3, r9
 80015fa:	f001 f8f3 	bl	80027e4 <LCD_WriteString>
 80015fe:	f004 fb67 	bl	8005cd0 <KEYB_kbhit>
 8001602:	2800      	cmp	r0, #0
 8001604:	d0fb      	beq.n	80015fe <main+0xa86>
 8001606:	f004 fb45 	bl	8005c94 <KEYB_Inkeys>
 800160a:	e7c3      	b.n	8001594 <main+0xa1c>
 800160c:	21ff      	movs	r1, #255	@ 0xff
 800160e:	4642      	mov	r2, r8
 8001610:	0409      	lsls	r1, r1, #16
 8001612:	8a12      	ldrh	r2, [r2, #16]
 8001614:	4b0b      	ldr	r3, [pc, #44]	@ (8001644 <main+0xacc>)
 8001616:	9003      	str	r0, [sp, #12]
 8001618:	9002      	str	r0, [sp, #8]
 800161a:	9101      	str	r1, [sp, #4]
 800161c:	9600      	str	r6, [sp, #0]
 800161e:	0001      	movs	r1, r0
 8001620:	4640      	mov	r0, r8
 8001622:	f001 f8df 	bl	80027e4 <LCD_WriteString>
 8001626:	e7fe      	b.n	8001626 <main+0xaae>
 8001628:	200003d5 	.word	0x200003d5
 800162c:	50000800 	.word	0x50000800
 8001630:	20000110 	.word	0x20000110
 8001634:	50000400 	.word	0x50000400
 8001638:	40020000 	.word	0x40020000
 800163c:	08006894 	.word	0x08006894
 8001640:	00319bb1 	.word	0x00319bb1
 8001644:	08006874 	.word	0x08006874

08001648 <NMI_Handler>:
 8001648:	e7fe      	b.n	8001648 <NMI_Handler>
 800164a:	46c0      	nop			@ (mov r8, r8)

0800164c <HardFault_Handler>:
 800164c:	e7fe      	b.n	800164c <HardFault_Handler>
 800164e:	46c0      	nop			@ (mov r8, r8)

08001650 <SVC_Handler>:
 8001650:	4770      	bx	lr
 8001652:	46c0      	nop			@ (mov r8, r8)

08001654 <PendSV_Handler>:
 8001654:	4770      	bx	lr
 8001656:	46c0      	nop			@ (mov r8, r8)

08001658 <SysTick_Handler>:
 8001658:	4a02      	ldr	r2, [pc, #8]	@ (8001664 <SysTick_Handler+0xc>)
 800165a:	6813      	ldr	r3, [r2, #0]
 800165c:	3301      	adds	r3, #1
 800165e:	6013      	str	r3, [r2, #0]
 8001660:	4770      	bx	lr
 8001662:	46c0      	nop			@ (mov r8, r8)
 8001664:	20000370 	.word	0x20000370

08001668 <EXTI4_15_IRQHandler>:
 8001668:	2280      	movs	r2, #128	@ 0x80
 800166a:	4b73      	ldr	r3, [pc, #460]	@ (8001838 <EXTI4_15_IRQHandler+0x1d0>)
 800166c:	b510      	push	{r4, lr}
 800166e:	6919      	ldr	r1, [r3, #16]
 8001670:	420a      	tst	r2, r1
 8001672:	d11d      	bne.n	80016b0 <EXTI4_15_IRQHandler+0x48>
 8001674:	2280      	movs	r2, #128	@ 0x80
 8001676:	4b70      	ldr	r3, [pc, #448]	@ (8001838 <EXTI4_15_IRQHandler+0x1d0>)
 8001678:	68d9      	ldr	r1, [r3, #12]
 800167a:	420a      	tst	r2, r1
 800167c:	d14f      	bne.n	800171e <EXTI4_15_IRQHandler+0xb6>
 800167e:	2280      	movs	r2, #128	@ 0x80
 8001680:	4b6d      	ldr	r3, [pc, #436]	@ (8001838 <EXTI4_15_IRQHandler+0x1d0>)
 8001682:	0092      	lsls	r2, r2, #2
 8001684:	6919      	ldr	r1, [r3, #16]
 8001686:	4211      	tst	r1, r2
 8001688:	d13e      	bne.n	8001708 <EXTI4_15_IRQHandler+0xa0>
 800168a:	2280      	movs	r2, #128	@ 0x80
 800168c:	4b6a      	ldr	r3, [pc, #424]	@ (8001838 <EXTI4_15_IRQHandler+0x1d0>)
 800168e:	0092      	lsls	r2, r2, #2
 8001690:	68d9      	ldr	r1, [r3, #12]
 8001692:	4211      	tst	r1, r2
 8001694:	d12d      	bne.n	80016f2 <EXTI4_15_IRQHandler+0x8a>
 8001696:	2280      	movs	r2, #128	@ 0x80
 8001698:	4b67      	ldr	r3, [pc, #412]	@ (8001838 <EXTI4_15_IRQHandler+0x1d0>)
 800169a:	0212      	lsls	r2, r2, #8
 800169c:	6919      	ldr	r1, [r3, #16]
 800169e:	4211      	tst	r1, r2
 80016a0:	d11c      	bne.n	80016dc <EXTI4_15_IRQHandler+0x74>
 80016a2:	2280      	movs	r2, #128	@ 0x80
 80016a4:	4b64      	ldr	r3, [pc, #400]	@ (8001838 <EXTI4_15_IRQHandler+0x1d0>)
 80016a6:	0212      	lsls	r2, r2, #8
 80016a8:	68d9      	ldr	r1, [r3, #12]
 80016aa:	4211      	tst	r1, r2
 80016ac:	d10b      	bne.n	80016c6 <EXTI4_15_IRQHandler+0x5e>
 80016ae:	bd10      	pop	{r4, pc}
 80016b0:	2101      	movs	r1, #1
 80016b2:	4862      	ldr	r0, [pc, #392]	@ (800183c <EXTI4_15_IRQHandler+0x1d4>)
 80016b4:	611a      	str	r2, [r3, #16]
 80016b6:	f001 fc73 	bl	8002fa0 <EncoderUpdate>
 80016ba:	2820      	cmp	r0, #32
 80016bc:	d8da      	bhi.n	8001674 <EXTI4_15_IRQHandler+0xc>
 80016be:	4b60      	ldr	r3, [pc, #384]	@ (8001840 <EXTI4_15_IRQHandler+0x1d8>)
 80016c0:	0080      	lsls	r0, r0, #2
 80016c2:	581b      	ldr	r3, [r3, r0]
 80016c4:	469f      	mov	pc, r3
 80016c6:	2103      	movs	r1, #3
 80016c8:	485c      	ldr	r0, [pc, #368]	@ (800183c <EXTI4_15_IRQHandler+0x1d4>)
 80016ca:	60da      	str	r2, [r3, #12]
 80016cc:	f001 fc68 	bl	8002fa0 <EncoderUpdate>
 80016d0:	2820      	cmp	r0, #32
 80016d2:	d8ec      	bhi.n	80016ae <EXTI4_15_IRQHandler+0x46>
 80016d4:	4b5b      	ldr	r3, [pc, #364]	@ (8001844 <EXTI4_15_IRQHandler+0x1dc>)
 80016d6:	0080      	lsls	r0, r0, #2
 80016d8:	581b      	ldr	r3, [r3, r0]
 80016da:	469f      	mov	pc, r3
 80016dc:	2103      	movs	r1, #3
 80016de:	4857      	ldr	r0, [pc, #348]	@ (800183c <EXTI4_15_IRQHandler+0x1d4>)
 80016e0:	611a      	str	r2, [r3, #16]
 80016e2:	f001 fc5d 	bl	8002fa0 <EncoderUpdate>
 80016e6:	2820      	cmp	r0, #32
 80016e8:	d8db      	bhi.n	80016a2 <EXTI4_15_IRQHandler+0x3a>
 80016ea:	4b57      	ldr	r3, [pc, #348]	@ (8001848 <EXTI4_15_IRQHandler+0x1e0>)
 80016ec:	0080      	lsls	r0, r0, #2
 80016ee:	581b      	ldr	r3, [r3, r0]
 80016f0:	469f      	mov	pc, r3
 80016f2:	2102      	movs	r1, #2
 80016f4:	4851      	ldr	r0, [pc, #324]	@ (800183c <EXTI4_15_IRQHandler+0x1d4>)
 80016f6:	60da      	str	r2, [r3, #12]
 80016f8:	f001 fc52 	bl	8002fa0 <EncoderUpdate>
 80016fc:	2820      	cmp	r0, #32
 80016fe:	d8ca      	bhi.n	8001696 <EXTI4_15_IRQHandler+0x2e>
 8001700:	4b52      	ldr	r3, [pc, #328]	@ (800184c <EXTI4_15_IRQHandler+0x1e4>)
 8001702:	0080      	lsls	r0, r0, #2
 8001704:	581b      	ldr	r3, [r3, r0]
 8001706:	469f      	mov	pc, r3
 8001708:	2102      	movs	r1, #2
 800170a:	484c      	ldr	r0, [pc, #304]	@ (800183c <EXTI4_15_IRQHandler+0x1d4>)
 800170c:	611a      	str	r2, [r3, #16]
 800170e:	f001 fc47 	bl	8002fa0 <EncoderUpdate>
 8001712:	2820      	cmp	r0, #32
 8001714:	d8b9      	bhi.n	800168a <EXTI4_15_IRQHandler+0x22>
 8001716:	4b4e      	ldr	r3, [pc, #312]	@ (8001850 <EXTI4_15_IRQHandler+0x1e8>)
 8001718:	0080      	lsls	r0, r0, #2
 800171a:	581b      	ldr	r3, [r3, r0]
 800171c:	469f      	mov	pc, r3
 800171e:	2101      	movs	r1, #1
 8001720:	4846      	ldr	r0, [pc, #280]	@ (800183c <EXTI4_15_IRQHandler+0x1d4>)
 8001722:	60da      	str	r2, [r3, #12]
 8001724:	f001 fc3c 	bl	8002fa0 <EncoderUpdate>
 8001728:	2820      	cmp	r0, #32
 800172a:	d8a8      	bhi.n	800167e <EXTI4_15_IRQHandler+0x16>
 800172c:	4b49      	ldr	r3, [pc, #292]	@ (8001854 <EXTI4_15_IRQHandler+0x1ec>)
 800172e:	0080      	lsls	r0, r0, #2
 8001730:	581b      	ldr	r3, [r3, r0]
 8001732:	469f      	mov	pc, r3
 8001734:	2020      	movs	r0, #32
 8001736:	4a48      	ldr	r2, [pc, #288]	@ (8001858 <EXTI4_15_IRQHandler+0x1f0>)
 8001738:	7813      	ldrb	r3, [r2, #0]
 800173a:	2b13      	cmp	r3, #19
 800173c:	d89f      	bhi.n	800167e <EXTI4_15_IRQHandler+0x16>
 800173e:	4947      	ldr	r1, [pc, #284]	@ (800185c <EXTI4_15_IRQHandler+0x1f4>)
 8001740:	005c      	lsls	r4, r3, #1
 8001742:	3301      	adds	r3, #1
 8001744:	5260      	strh	r0, [r4, r1]
 8001746:	7013      	strb	r3, [r2, #0]
 8001748:	e799      	b.n	800167e <EXTI4_15_IRQHandler+0x16>
 800174a:	2008      	movs	r0, #8
 800174c:	4a42      	ldr	r2, [pc, #264]	@ (8001858 <EXTI4_15_IRQHandler+0x1f0>)
 800174e:	7813      	ldrb	r3, [r2, #0]
 8001750:	2b13      	cmp	r3, #19
 8001752:	d900      	bls.n	8001756 <EXTI4_15_IRQHandler+0xee>
 8001754:	e78e      	b.n	8001674 <EXTI4_15_IRQHandler+0xc>
 8001756:	4941      	ldr	r1, [pc, #260]	@ (800185c <EXTI4_15_IRQHandler+0x1f4>)
 8001758:	005c      	lsls	r4, r3, #1
 800175a:	3301      	adds	r3, #1
 800175c:	5260      	strh	r0, [r4, r1]
 800175e:	7013      	strb	r3, [r2, #0]
 8001760:	e788      	b.n	8001674 <EXTI4_15_IRQHandler+0xc>
 8001762:	2004      	movs	r0, #4
 8001764:	e7f2      	b.n	800174c <EXTI4_15_IRQHandler+0xe4>
 8001766:	2010      	movs	r0, #16
 8001768:	e7f0      	b.n	800174c <EXTI4_15_IRQHandler+0xe4>
 800176a:	2020      	movs	r0, #32
 800176c:	e7ee      	b.n	800174c <EXTI4_15_IRQHandler+0xe4>
 800176e:	2008      	movs	r0, #8
 8001770:	4a39      	ldr	r2, [pc, #228]	@ (8001858 <EXTI4_15_IRQHandler+0x1f0>)
 8001772:	7813      	ldrb	r3, [r2, #0]
 8001774:	2b13      	cmp	r3, #19
 8001776:	d89a      	bhi.n	80016ae <EXTI4_15_IRQHandler+0x46>
 8001778:	4938      	ldr	r1, [pc, #224]	@ (800185c <EXTI4_15_IRQHandler+0x1f4>)
 800177a:	005c      	lsls	r4, r3, #1
 800177c:	3301      	adds	r3, #1
 800177e:	5260      	strh	r0, [r4, r1]
 8001780:	7013      	strb	r3, [r2, #0]
 8001782:	e794      	b.n	80016ae <EXTI4_15_IRQHandler+0x46>
 8001784:	2004      	movs	r0, #4
 8001786:	e7f3      	b.n	8001770 <EXTI4_15_IRQHandler+0x108>
 8001788:	2010      	movs	r0, #16
 800178a:	e7f1      	b.n	8001770 <EXTI4_15_IRQHandler+0x108>
 800178c:	2020      	movs	r0, #32
 800178e:	e7ef      	b.n	8001770 <EXTI4_15_IRQHandler+0x108>
 8001790:	2008      	movs	r0, #8
 8001792:	4a31      	ldr	r2, [pc, #196]	@ (8001858 <EXTI4_15_IRQHandler+0x1f0>)
 8001794:	7813      	ldrb	r3, [r2, #0]
 8001796:	2b13      	cmp	r3, #19
 8001798:	d900      	bls.n	800179c <EXTI4_15_IRQHandler+0x134>
 800179a:	e782      	b.n	80016a2 <EXTI4_15_IRQHandler+0x3a>
 800179c:	492f      	ldr	r1, [pc, #188]	@ (800185c <EXTI4_15_IRQHandler+0x1f4>)
 800179e:	005c      	lsls	r4, r3, #1
 80017a0:	3301      	adds	r3, #1
 80017a2:	5260      	strh	r0, [r4, r1]
 80017a4:	7013      	strb	r3, [r2, #0]
 80017a6:	e77c      	b.n	80016a2 <EXTI4_15_IRQHandler+0x3a>
 80017a8:	2004      	movs	r0, #4
 80017aa:	e7f2      	b.n	8001792 <EXTI4_15_IRQHandler+0x12a>
 80017ac:	2010      	movs	r0, #16
 80017ae:	e7f0      	b.n	8001792 <EXTI4_15_IRQHandler+0x12a>
 80017b0:	2020      	movs	r0, #32
 80017b2:	e7ee      	b.n	8001792 <EXTI4_15_IRQHandler+0x12a>
 80017b4:	2008      	movs	r0, #8
 80017b6:	4a28      	ldr	r2, [pc, #160]	@ (8001858 <EXTI4_15_IRQHandler+0x1f0>)
 80017b8:	7813      	ldrb	r3, [r2, #0]
 80017ba:	2b13      	cmp	r3, #19
 80017bc:	d900      	bls.n	80017c0 <EXTI4_15_IRQHandler+0x158>
 80017be:	e76a      	b.n	8001696 <EXTI4_15_IRQHandler+0x2e>
 80017c0:	4926      	ldr	r1, [pc, #152]	@ (800185c <EXTI4_15_IRQHandler+0x1f4>)
 80017c2:	005c      	lsls	r4, r3, #1
 80017c4:	3301      	adds	r3, #1
 80017c6:	5260      	strh	r0, [r4, r1]
 80017c8:	7013      	strb	r3, [r2, #0]
 80017ca:	e764      	b.n	8001696 <EXTI4_15_IRQHandler+0x2e>
 80017cc:	2004      	movs	r0, #4
 80017ce:	e7f2      	b.n	80017b6 <EXTI4_15_IRQHandler+0x14e>
 80017d0:	2010      	movs	r0, #16
 80017d2:	e7f0      	b.n	80017b6 <EXTI4_15_IRQHandler+0x14e>
 80017d4:	2020      	movs	r0, #32
 80017d6:	e7ee      	b.n	80017b6 <EXTI4_15_IRQHandler+0x14e>
 80017d8:	2008      	movs	r0, #8
 80017da:	4a1f      	ldr	r2, [pc, #124]	@ (8001858 <EXTI4_15_IRQHandler+0x1f0>)
 80017dc:	7813      	ldrb	r3, [r2, #0]
 80017de:	2b13      	cmp	r3, #19
 80017e0:	d900      	bls.n	80017e4 <EXTI4_15_IRQHandler+0x17c>
 80017e2:	e752      	b.n	800168a <EXTI4_15_IRQHandler+0x22>
 80017e4:	491d      	ldr	r1, [pc, #116]	@ (800185c <EXTI4_15_IRQHandler+0x1f4>)
 80017e6:	005c      	lsls	r4, r3, #1
 80017e8:	3301      	adds	r3, #1
 80017ea:	5260      	strh	r0, [r4, r1]
 80017ec:	7013      	strb	r3, [r2, #0]
 80017ee:	e74c      	b.n	800168a <EXTI4_15_IRQHandler+0x22>
 80017f0:	2004      	movs	r0, #4
 80017f2:	e7f2      	b.n	80017da <EXTI4_15_IRQHandler+0x172>
 80017f4:	2010      	movs	r0, #16
 80017f6:	e7f0      	b.n	80017da <EXTI4_15_IRQHandler+0x172>
 80017f8:	2020      	movs	r0, #32
 80017fa:	e7ee      	b.n	80017da <EXTI4_15_IRQHandler+0x172>
 80017fc:	2008      	movs	r0, #8
 80017fe:	e79a      	b.n	8001736 <EXTI4_15_IRQHandler+0xce>
 8001800:	2004      	movs	r0, #4
 8001802:	e798      	b.n	8001736 <EXTI4_15_IRQHandler+0xce>
 8001804:	2010      	movs	r0, #16
 8001806:	e796      	b.n	8001736 <EXTI4_15_IRQHandler+0xce>
 8001808:	2001      	movs	r0, #1
 800180a:	e7b1      	b.n	8001770 <EXTI4_15_IRQHandler+0x108>
 800180c:	2001      	movs	r0, #1
 800180e:	e7c0      	b.n	8001792 <EXTI4_15_IRQHandler+0x12a>
 8001810:	2001      	movs	r0, #1
 8001812:	e7d0      	b.n	80017b6 <EXTI4_15_IRQHandler+0x14e>
 8001814:	2001      	movs	r0, #1
 8001816:	e7e0      	b.n	80017da <EXTI4_15_IRQHandler+0x172>
 8001818:	2001      	movs	r0, #1
 800181a:	e78c      	b.n	8001736 <EXTI4_15_IRQHandler+0xce>
 800181c:	2001      	movs	r0, #1
 800181e:	e795      	b.n	800174c <EXTI4_15_IRQHandler+0xe4>
 8001820:	2002      	movs	r0, #2
 8001822:	e7a5      	b.n	8001770 <EXTI4_15_IRQHandler+0x108>
 8001824:	2002      	movs	r0, #2
 8001826:	e7d8      	b.n	80017da <EXTI4_15_IRQHandler+0x172>
 8001828:	2002      	movs	r0, #2
 800182a:	e78f      	b.n	800174c <EXTI4_15_IRQHandler+0xe4>
 800182c:	2002      	movs	r0, #2
 800182e:	e7c2      	b.n	80017b6 <EXTI4_15_IRQHandler+0x14e>
 8001830:	2002      	movs	r0, #2
 8001832:	e780      	b.n	8001736 <EXTI4_15_IRQHandler+0xce>
 8001834:	2002      	movs	r0, #2
 8001836:	e7ac      	b.n	8001792 <EXTI4_15_IRQHandler+0x12a>
 8001838:	40021800 	.word	0x40021800
 800183c:	20000110 	.word	0x20000110
 8001840:	080068a8 	.word	0x080068a8
 8001844:	0800692c 	.word	0x0800692c
 8001848:	080069b0 	.word	0x080069b0
 800184c:	08006a34 	.word	0x08006a34
 8001850:	08006ab8 	.word	0x08006ab8
 8001854:	08006b3c 	.word	0x08006b3c
 8001858:	200003d6 	.word	0x200003d6
 800185c:	200003d8 	.word	0x200003d8

08001860 <DMA1_Channel1_IRQHandler>:
 8001860:	b510      	push	{r4, lr}
 8001862:	2101      	movs	r1, #1
 8001864:	4801      	ldr	r0, [pc, #4]	@ (800186c <DMA1_Channel1_IRQHandler+0xc>)
 8001866:	f000 f85b 	bl	8001920 <Display_TC_Callback>
 800186a:	bd10      	pop	{r4, pc}
 800186c:	40020000 	.word	0x40020000

08001870 <DMA1_Channel2_3_IRQHandler>:
 8001870:	4770      	bx	lr
 8001872:	46c0      	nop			@ (mov r8, r8)

08001874 <DMA1_Ch4_5_DMAMUX1_OVR_IRQHandler>:
 8001874:	b510      	push	{r4, lr}
 8001876:	2103      	movs	r1, #3
 8001878:	4801      	ldr	r0, [pc, #4]	@ (8001880 <DMA1_Ch4_5_DMAMUX1_OVR_IRQHandler+0xc>)
 800187a:	f004 fceb 	bl	8006254 <LED_Callback>
 800187e:	bd10      	pop	{r4, pc}
 8001880:	40020000 	.word	0x40020000

08001884 <_sbrk>:
 8001884:	490c      	ldr	r1, [pc, #48]	@ (80018b8 <_sbrk+0x34>)
 8001886:	4a0d      	ldr	r2, [pc, #52]	@ (80018bc <_sbrk+0x38>)
 8001888:	0003      	movs	r3, r0
 800188a:	1a52      	subs	r2, r2, r1
 800188c:	490c      	ldr	r1, [pc, #48]	@ (80018c0 <_sbrk+0x3c>)
 800188e:	b510      	push	{r4, lr}
 8001890:	6808      	ldr	r0, [r1, #0]
 8001892:	2800      	cmp	r0, #0
 8001894:	d004      	beq.n	80018a0 <_sbrk+0x1c>
 8001896:	18c3      	adds	r3, r0, r3
 8001898:	4293      	cmp	r3, r2
 800189a:	d806      	bhi.n	80018aa <_sbrk+0x26>
 800189c:	600b      	str	r3, [r1, #0]
 800189e:	bd10      	pop	{r4, pc}
 80018a0:	4808      	ldr	r0, [pc, #32]	@ (80018c4 <_sbrk+0x40>)
 80018a2:	18c3      	adds	r3, r0, r3
 80018a4:	6008      	str	r0, [r1, #0]
 80018a6:	4293      	cmp	r3, r2
 80018a8:	d9f8      	bls.n	800189c <_sbrk+0x18>
 80018aa:	f004 ff01 	bl	80066b0 <__errno>
 80018ae:	230c      	movs	r3, #12
 80018b0:	6003      	str	r3, [r0, #0]
 80018b2:	2001      	movs	r0, #1
 80018b4:	4240      	negs	r0, r0
 80018b6:	e7f2      	b.n	800189e <_sbrk+0x1a>
 80018b8:	00000400 	.word	0x00000400
 80018bc:	20002000 	.word	0x20002000
 80018c0:	20000374 	.word	0x20000374
 80018c4:	20000550 	.word	0x20000550

080018c8 <SystemInit>:
 80018c8:	4770      	bx	lr
 80018ca:	46c0      	nop			@ (mov r8, r8)

080018cc <Reset_Handler>:
 80018cc:	480d      	ldr	r0, [pc, #52]	@ (8001904 <LoopForever+0x2>)
 80018ce:	4685      	mov	sp, r0
 80018d0:	f7ff fffa 	bl	80018c8 <SystemInit>
 80018d4:	480c      	ldr	r0, [pc, #48]	@ (8001908 <LoopForever+0x6>)
 80018d6:	490d      	ldr	r1, [pc, #52]	@ (800190c <LoopForever+0xa>)
 80018d8:	4a0d      	ldr	r2, [pc, #52]	@ (8001910 <LoopForever+0xe>)
 80018da:	2300      	movs	r3, #0
 80018dc:	e002      	b.n	80018e4 <LoopCopyDataInit>

080018de <CopyDataInit>:
 80018de:	58d4      	ldr	r4, [r2, r3]
 80018e0:	50c4      	str	r4, [r0, r3]
 80018e2:	3304      	adds	r3, #4

080018e4 <LoopCopyDataInit>:
 80018e4:	18c4      	adds	r4, r0, r3
 80018e6:	428c      	cmp	r4, r1
 80018e8:	d3f9      	bcc.n	80018de <CopyDataInit>
 80018ea:	4a0a      	ldr	r2, [pc, #40]	@ (8001914 <LoopForever+0x12>)
 80018ec:	4c0a      	ldr	r4, [pc, #40]	@ (8001918 <LoopForever+0x16>)
 80018ee:	2300      	movs	r3, #0
 80018f0:	e001      	b.n	80018f6 <LoopFillZerobss>

080018f2 <FillZerobss>:
 80018f2:	6013      	str	r3, [r2, #0]
 80018f4:	3204      	adds	r2, #4

080018f6 <LoopFillZerobss>:
 80018f6:	42a2      	cmp	r2, r4
 80018f8:	d3fb      	bcc.n	80018f2 <FillZerobss>
 80018fa:	f004 fedf 	bl	80066bc <__libc_init_array>
 80018fe:	f7ff f93b 	bl	8000b78 <main>

08001902 <LoopForever>:
 8001902:	e7fe      	b.n	8001902 <LoopForever>
 8001904:	20002000 	.word	0x20002000
 8001908:	20000000 	.word	0x20000000
 800190c:	200000f4 	.word	0x200000f4
 8001910:	08007be8 	.word	0x08007be8
 8001914:	200000f4 	.word	0x200000f4
 8001918:	2000054c 	.word	0x2000054c

0800191c <ADC1_IRQHandler>:
 800191c:	e7fe      	b.n	800191c <ADC1_IRQHandler>
	...

08001920 <Display_TC_Callback>:
 8001920:	4b22      	ldr	r3, [pc, #136]	@ (80019ac <Display_TC_Callback+0x8c>)
 8001922:	b510      	push	{r4, lr}
 8001924:	681c      	ldr	r4, [r3, #0]
 8001926:	2c00      	cmp	r4, #0
 8001928:	d022      	beq.n	8001970 <Display_TC_Callback+0x50>
 800192a:	2201      	movs	r2, #1
 800192c:	4920      	ldr	r1, [pc, #128]	@ (80019b0 <Display_TC_Callback+0x90>)
 800192e:	684b      	ldr	r3, [r1, #4]
 8001930:	4313      	orrs	r3, r2
 8001932:	604b      	str	r3, [r1, #4]
 8001934:	491f      	ldr	r1, [pc, #124]	@ (80019b4 <Display_TC_Callback+0x94>)
 8001936:	680b      	ldr	r3, [r1, #0]
 8001938:	4393      	bics	r3, r2
 800193a:	600b      	str	r3, [r1, #0]
 800193c:	0010      	movs	r0, r2
 800193e:	680b      	ldr	r3, [r1, #0]
 8001940:	4018      	ands	r0, r3
 8001942:	421a      	tst	r2, r3
 8001944:	d1fa      	bne.n	800193c <Display_TC_Callback+0x1c>
 8001946:	6e23      	ldr	r3, [r4, #96]	@ 0x60
 8001948:	2b00      	cmp	r3, #0
 800194a:	d119      	bne.n	8001980 <Display_TC_Callback+0x60>
 800194c:	2102      	movs	r1, #2
 800194e:	4a1a      	ldr	r2, [pc, #104]	@ (80019b8 <Display_TC_Callback+0x98>)
 8001950:	6853      	ldr	r3, [r2, #4]
 8001952:	438b      	bics	r3, r1
 8001954:	6053      	str	r3, [r2, #4]
 8001956:	317e      	adds	r1, #126	@ 0x7e
 8001958:	6893      	ldr	r3, [r2, #8]
 800195a:	4219      	tst	r1, r3
 800195c:	d1fc      	bne.n	8001958 <Display_TC_Callback+0x38>
 800195e:	2365      	movs	r3, #101	@ 0x65
 8001960:	5ce3      	ldrb	r3, [r4, r3]
 8001962:	2b00      	cmp	r3, #0
 8001964:	d005      	beq.n	8001972 <Display_TC_Callback+0x52>
 8001966:	2140      	movs	r1, #64	@ 0x40
 8001968:	4a13      	ldr	r2, [pc, #76]	@ (80019b8 <Display_TC_Callback+0x98>)
 800196a:	6813      	ldr	r3, [r2, #0]
 800196c:	438b      	bics	r3, r1
 800196e:	6013      	str	r3, [r2, #0]
 8001970:	bd10      	pop	{r4, pc}
 8001972:	6c23      	ldr	r3, [r4, #64]	@ 0x40
 8001974:	2b00      	cmp	r3, #0
 8001976:	d0f6      	beq.n	8001966 <Display_TC_Callback+0x46>
 8001978:	2244      	movs	r2, #68	@ 0x44
 800197a:	5aa2      	ldrh	r2, [r4, r2]
 800197c:	619a      	str	r2, [r3, #24]
 800197e:	e7f2      	b.n	8001966 <Display_TC_Callback+0x46>
 8001980:	2380      	movs	r3, #128	@ 0x80
 8001982:	6e22      	ldr	r2, [r4, #96]	@ 0x60
 8001984:	025b      	lsls	r3, r3, #9
 8001986:	429a      	cmp	r2, r3
 8001988:	d208      	bcs.n	800199c <Display_TC_Callback+0x7c>
 800198a:	6e23      	ldr	r3, [r4, #96]	@ 0x60
 800198c:	604b      	str	r3, [r1, #4]
 800198e:	6620      	str	r0, [r4, #96]	@ 0x60
 8001990:	2101      	movs	r1, #1
 8001992:	4a08      	ldr	r2, [pc, #32]	@ (80019b4 <Display_TC_Callback+0x94>)
 8001994:	6813      	ldr	r3, [r2, #0]
 8001996:	430b      	orrs	r3, r1
 8001998:	6013      	str	r3, [r2, #0]
 800199a:	e7e9      	b.n	8001970 <Display_TC_Callback+0x50>
 800199c:	4a07      	ldr	r2, [pc, #28]	@ (80019bc <Display_TC_Callback+0x9c>)
 800199e:	4b08      	ldr	r3, [pc, #32]	@ (80019c0 <Display_TC_Callback+0xa0>)
 80019a0:	4694      	mov	ip, r2
 80019a2:	604b      	str	r3, [r1, #4]
 80019a4:	6e23      	ldr	r3, [r4, #96]	@ 0x60
 80019a6:	4463      	add	r3, ip
 80019a8:	6623      	str	r3, [r4, #96]	@ 0x60
 80019aa:	e7f1      	b.n	8001990 <Display_TC_Callback+0x70>
 80019ac:	20000378 	.word	0x20000378
 80019b0:	40020000 	.word	0x40020000
 80019b4:	40020008 	.word	0x40020008
 80019b8:	40013000 	.word	0x40013000
 80019bc:	ffff0001 	.word	0xffff0001
 80019c0:	0000ffff 	.word	0x0000ffff

080019c4 <LCD_String_Interpretator>:
 80019c4:	b5f0      	push	{r4, r5, r6, r7, lr}
 80019c6:	46de      	mov	lr, fp
 80019c8:	4657      	mov	r7, sl
 80019ca:	464e      	mov	r6, r9
 80019cc:	4645      	mov	r5, r8
 80019ce:	000c      	movs	r4, r1
 80019d0:	2140      	movs	r1, #64	@ 0x40
 80019d2:	b5e0      	push	{r5, r6, r7, lr}
 80019d4:	6a43      	ldr	r3, [r0, #36]	@ 0x24
 80019d6:	b083      	sub	sp, #12
 80019d8:	681a      	ldr	r2, [r3, #0]
 80019da:	4211      	tst	r1, r2
 80019dc:	d1fc      	bne.n	80019d8 <LCD_String_Interpretator+0x14>
 80019de:	2265      	movs	r2, #101	@ 0x65
 80019e0:	5c82      	ldrb	r2, [r0, r2]
 80019e2:	2a00      	cmp	r2, #0
 80019e4:	d106      	bne.n	80019f4 <LCD_String_Interpretator+0x30>
 80019e6:	6c02      	ldr	r2, [r0, #64]	@ 0x40
 80019e8:	2a00      	cmp	r2, #0
 80019ea:	d003      	beq.n	80019f4 <LCD_String_Interpretator+0x30>
 80019ec:	2144      	movs	r1, #68	@ 0x44
 80019ee:	5a41      	ldrh	r1, [r0, r1]
 80019f0:	0409      	lsls	r1, r1, #16
 80019f2:	6191      	str	r1, [r2, #24]
 80019f4:	681a      	ldr	r2, [r3, #0]
 80019f6:	494c      	ldr	r1, [pc, #304]	@ (8001b28 <LCD_String_Interpretator+0x164>)
 80019f8:	4d4c      	ldr	r5, [pc, #304]	@ (8001b2c <LCD_String_Interpretator+0x168>)
 80019fa:	400a      	ands	r2, r1
 80019fc:	601a      	str	r2, [r3, #0]
 80019fe:	685a      	ldr	r2, [r3, #4]
 8001a00:	494b      	ldr	r1, [pc, #300]	@ (8001b30 <LCD_String_Interpretator+0x16c>)
 8001a02:	400a      	ands	r2, r1
 8001a04:	605a      	str	r2, [r3, #4]
 8001a06:	22e0      	movs	r2, #224	@ 0xe0
 8001a08:	6859      	ldr	r1, [r3, #4]
 8001a0a:	00d2      	lsls	r2, r2, #3
 8001a0c:	430a      	orrs	r2, r1
 8001a0e:	2140      	movs	r1, #64	@ 0x40
 8001a10:	605a      	str	r2, [r3, #4]
 8001a12:	681a      	ldr	r2, [r3, #0]
 8001a14:	430a      	orrs	r2, r1
 8001a16:	601a      	str	r2, [r3, #0]
 8001a18:	2202      	movs	r2, #2
 8001a1a:	4694      	mov	ip, r2
 8001a1c:	327e      	adds	r2, #126	@ 0x7e
 8001a1e:	4693      	mov	fp, r2
 8001a20:	001a      	movs	r2, r3
 8001a22:	7823      	ldrb	r3, [r4, #0]
 8001a24:	2b01      	cmp	r3, #1
 8001a26:	d04e      	beq.n	8001ac6 <LCD_String_Interpretator+0x102>
 8001a28:	2b02      	cmp	r3, #2
 8001a2a:	d100      	bne.n	8001a2e <LCD_String_Interpretator+0x6a>
 8001a2c:	e06c      	b.n	8001b08 <LCD_String_Interpretator+0x144>
 8001a2e:	2b00      	cmp	r3, #0
 8001a30:	d015      	beq.n	8001a5e <LCD_String_Interpretator+0x9a>
 8001a32:	0013      	movs	r3, r2
 8001a34:	2265      	movs	r2, #101	@ 0x65
 8001a36:	5c82      	ldrb	r2, [r0, r2]
 8001a38:	2a00      	cmp	r2, #0
 8001a3a:	d105      	bne.n	8001a48 <LCD_String_Interpretator+0x84>
 8001a3c:	6c02      	ldr	r2, [r0, #64]	@ 0x40
 8001a3e:	2a00      	cmp	r2, #0
 8001a40:	d002      	beq.n	8001a48 <LCD_String_Interpretator+0x84>
 8001a42:	2144      	movs	r1, #68	@ 0x44
 8001a44:	5a41      	ldrh	r1, [r0, r1]
 8001a46:	6191      	str	r1, [r2, #24]
 8001a48:	2140      	movs	r1, #64	@ 0x40
 8001a4a:	681a      	ldr	r2, [r3, #0]
 8001a4c:	438a      	bics	r2, r1
 8001a4e:	601a      	str	r2, [r3, #0]
 8001a50:	b003      	add	sp, #12
 8001a52:	bcf0      	pop	{r4, r5, r6, r7}
 8001a54:	46bb      	mov	fp, r7
 8001a56:	46b2      	mov	sl, r6
 8001a58:	46a9      	mov	r9, r5
 8001a5a:	46a0      	mov	r8, r4
 8001a5c:	bdf0      	pop	{r4, r5, r6, r7, pc}
 8001a5e:	6b81      	ldr	r1, [r0, #56]	@ 0x38
 8001a60:	7867      	ldrb	r7, [r4, #1]
 8001a62:	4688      	mov	r8, r1
 8001a64:	4646      	mov	r6, r8
 8001a66:	8f81      	ldrh	r1, [r0, #60]	@ 0x3c
 8001a68:	6a43      	ldr	r3, [r0, #36]	@ 0x24
 8001a6a:	0409      	lsls	r1, r1, #16
 8001a6c:	61b1      	str	r1, [r6, #24]
 8001a6e:	731f      	strb	r7, [r3, #12]
 8001a70:	4667      	mov	r7, ip
 8001a72:	6899      	ldr	r1, [r3, #8]
 8001a74:	420f      	tst	r7, r1
 8001a76:	d0fb      	beq.n	8001a70 <LCD_String_Interpretator+0xac>
 8001a78:	465f      	mov	r7, fp
 8001a7a:	6899      	ldr	r1, [r3, #8]
 8001a7c:	420f      	tst	r7, r1
 8001a7e:	d1fb      	bne.n	8001a78 <LCD_String_Interpretator+0xb4>
 8001a80:	78a3      	ldrb	r3, [r4, #2]
 8001a82:	1ce7      	adds	r7, r4, #3
 8001a84:	2b00      	cmp	r3, #0
 8001a86:	d04c      	beq.n	8001b22 <LCD_String_Interpretator+0x15e>
 8001a88:	469a      	mov	sl, r3
 8001a8a:	2402      	movs	r4, #2
 8001a8c:	2180      	movs	r1, #128	@ 0x80
 8001a8e:	44ba      	add	sl, r7
 8001a90:	9201      	str	r2, [sp, #4]
 8001a92:	6b86      	ldr	r6, [r0, #56]	@ 0x38
 8001a94:	783a      	ldrb	r2, [r7, #0]
 8001a96:	46b0      	mov	r8, r6
 8001a98:	8f86      	ldrh	r6, [r0, #60]	@ 0x3c
 8001a9a:	9200      	str	r2, [sp, #0]
 8001a9c:	46b1      	mov	r9, r6
 8001a9e:	4646      	mov	r6, r8
 8001aa0:	464a      	mov	r2, r9
 8001aa2:	6a43      	ldr	r3, [r0, #36]	@ 0x24
 8001aa4:	61b2      	str	r2, [r6, #24]
 8001aa6:	9a00      	ldr	r2, [sp, #0]
 8001aa8:	731a      	strb	r2, [r3, #12]
 8001aaa:	689a      	ldr	r2, [r3, #8]
 8001aac:	4214      	tst	r4, r2
 8001aae:	d0fc      	beq.n	8001aaa <LCD_String_Interpretator+0xe6>
 8001ab0:	689a      	ldr	r2, [r3, #8]
 8001ab2:	4211      	tst	r1, r2
 8001ab4:	d1fc      	bne.n	8001ab0 <LCD_String_Interpretator+0xec>
 8001ab6:	3701      	adds	r7, #1
 8001ab8:	45ba      	cmp	sl, r7
 8001aba:	d1ea      	bne.n	8001a92 <LCD_String_Interpretator+0xce>
 8001abc:	4654      	mov	r4, sl
 8001abe:	9a01      	ldr	r2, [sp, #4]
 8001ac0:	7823      	ldrb	r3, [r4, #0]
 8001ac2:	2b01      	cmp	r3, #1
 8001ac4:	d1b0      	bne.n	8001a28 <LCD_String_Interpretator+0x64>
 8001ac6:	7863      	ldrb	r3, [r4, #1]
 8001ac8:	1ca7      	adds	r7, r4, #2
 8001aca:	2b00      	cmp	r3, #0
 8001acc:	d029      	beq.n	8001b22 <LCD_String_Interpretator+0x15e>
 8001ace:	469a      	mov	sl, r3
 8001ad0:	2402      	movs	r4, #2
 8001ad2:	2180      	movs	r1, #128	@ 0x80
 8001ad4:	44ba      	add	sl, r7
 8001ad6:	9201      	str	r2, [sp, #4]
 8001ad8:	6b86      	ldr	r6, [r0, #56]	@ 0x38
 8001ada:	783a      	ldrb	r2, [r7, #0]
 8001adc:	46b0      	mov	r8, r6
 8001ade:	8f86      	ldrh	r6, [r0, #60]	@ 0x3c
 8001ae0:	9200      	str	r2, [sp, #0]
 8001ae2:	46b1      	mov	r9, r6
 8001ae4:	4646      	mov	r6, r8
 8001ae6:	464a      	mov	r2, r9
 8001ae8:	6a43      	ldr	r3, [r0, #36]	@ 0x24
 8001aea:	61b2      	str	r2, [r6, #24]
 8001aec:	9a00      	ldr	r2, [sp, #0]
 8001aee:	731a      	strb	r2, [r3, #12]
 8001af0:	689a      	ldr	r2, [r3, #8]
 8001af2:	4214      	tst	r4, r2
 8001af4:	d0fc      	beq.n	8001af0 <LCD_String_Interpretator+0x12c>
 8001af6:	689a      	ldr	r2, [r3, #8]
 8001af8:	4211      	tst	r1, r2
 8001afa:	d1fc      	bne.n	8001af6 <LCD_String_Interpretator+0x132>
 8001afc:	3701      	adds	r7, #1
 8001afe:	45ba      	cmp	sl, r7
 8001b00:	d1ea      	bne.n	8001ad8 <LCD_String_Interpretator+0x114>
 8001b02:	4654      	mov	r4, sl
 8001b04:	9a01      	ldr	r2, [sp, #4]
 8001b06:	e7db      	b.n	8001ac0 <LCD_String_Interpretator+0xfc>
 8001b08:	7861      	ldrb	r1, [r4, #1]
 8001b0a:	682b      	ldr	r3, [r5, #0]
 8001b0c:	3101      	adds	r1, #1
 8001b0e:	2680      	movs	r6, #128	@ 0x80
 8001b10:	682b      	ldr	r3, [r5, #0]
 8001b12:	0276      	lsls	r6, r6, #9
 8001b14:	4233      	tst	r3, r6
 8001b16:	d0fa      	beq.n	8001b0e <LCD_String_Interpretator+0x14a>
 8001b18:	3901      	subs	r1, #1
 8001b1a:	2900      	cmp	r1, #0
 8001b1c:	d1f7      	bne.n	8001b0e <LCD_String_Interpretator+0x14a>
 8001b1e:	3402      	adds	r4, #2
 8001b20:	e77f      	b.n	8001a22 <LCD_String_Interpretator+0x5e>
 8001b22:	003c      	movs	r4, r7
 8001b24:	e77d      	b.n	8001a22 <LCD_String_Interpretator+0x5e>
 8001b26:	46c0      	nop			@ (mov r8, r8)
 8001b28:	ffff5bff 	.word	0xffff5bff
 8001b2c:	e000e010 	.word	0xe000e010
 8001b30:	fffff0ff 	.word	0xfffff0ff

08001b34 <LCD_DrawPixel.part.0>:
 8001b34:	b570      	push	{r4, r5, r6, lr}
 8001b36:	0004      	movs	r4, r0
 8001b38:	8940      	ldrh	r0, [r0, #10]
 8001b3a:	001d      	movs	r5, r3
 8001b3c:	1840      	adds	r0, r0, r1
 8001b3e:	89a1      	ldrh	r1, [r4, #12]
 8001b40:	b280      	uxth	r0, r0
 8001b42:	1889      	adds	r1, r1, r2
 8001b44:	b289      	uxth	r1, r1
 8001b46:	000b      	movs	r3, r1
 8001b48:	0002      	movs	r2, r0
 8001b4a:	69a6      	ldr	r6, [r4, #24]
 8001b4c:	47b0      	blx	r6
 8001b4e:	0001      	movs	r1, r0
 8001b50:	0020      	movs	r0, r4
 8001b52:	f7ff ff37 	bl	80019c4 <LCD_String_Interpretator>
 8001b56:	0ceb      	lsrs	r3, r5, #19
 8001b58:	b2e9      	uxtb	r1, r5
 8001b5a:	02db      	lsls	r3, r3, #11
 8001b5c:	08c9      	lsrs	r1, r1, #3
 8001b5e:	4319      	orrs	r1, r3
 8001b60:	23fc      	movs	r3, #252	@ 0xfc
 8001b62:	096d      	lsrs	r5, r5, #5
 8001b64:	00db      	lsls	r3, r3, #3
 8001b66:	401d      	ands	r5, r3
 8001b68:	2348      	movs	r3, #72	@ 0x48
 8001b6a:	4329      	orrs	r1, r5
 8001b6c:	5ce5      	ldrb	r5, [r4, r3]
 8001b6e:	b289      	uxth	r1, r1
 8001b70:	2d01      	cmp	r5, #1
 8001b72:	d101      	bne.n	8001b78 <LCD_DrawPixel.part.0+0x44>
 8001b74:	ba49      	rev16	r1, r1
 8001b76:	b289      	uxth	r1, r1
 8001b78:	2040      	movs	r0, #64	@ 0x40
 8001b7a:	6a63      	ldr	r3, [r4, #36]	@ 0x24
 8001b7c:	681a      	ldr	r2, [r3, #0]
 8001b7e:	4210      	tst	r0, r2
 8001b80:	d1fc      	bne.n	8001b7c <LCD_DrawPixel.part.0+0x48>
 8001b82:	2265      	movs	r2, #101	@ 0x65
 8001b84:	5ca0      	ldrb	r0, [r4, r2]
 8001b86:	2800      	cmp	r0, #0
 8001b88:	d106      	bne.n	8001b98 <LCD_DrawPixel.part.0+0x64>
 8001b8a:	6c26      	ldr	r6, [r4, #64]	@ 0x40
 8001b8c:	2e00      	cmp	r6, #0
 8001b8e:	d003      	beq.n	8001b98 <LCD_DrawPixel.part.0+0x64>
 8001b90:	3a21      	subs	r2, #33	@ 0x21
 8001b92:	5aa2      	ldrh	r2, [r4, r2]
 8001b94:	0412      	lsls	r2, r2, #16
 8001b96:	61b2      	str	r2, [r6, #24]
 8001b98:	2266      	movs	r2, #102	@ 0x66
 8001b9a:	5ca2      	ldrb	r2, [r4, r2]
 8001b9c:	2a00      	cmp	r2, #0
 8001b9e:	d102      	bne.n	8001ba6 <LCD_DrawPixel.part.0+0x72>
 8001ba0:	6ba2      	ldr	r2, [r4, #56]	@ 0x38
 8001ba2:	8fa6      	ldrh	r6, [r4, #60]	@ 0x3c
 8001ba4:	6196      	str	r6, [r2, #24]
 8001ba6:	681a      	ldr	r2, [r3, #0]
 8001ba8:	4e1f      	ldr	r6, [pc, #124]	@ (8001c28 <LCD_DrawPixel.part.0+0xf4>)
 8001baa:	4032      	ands	r2, r6
 8001bac:	601a      	str	r2, [r3, #0]
 8001bae:	685a      	ldr	r2, [r3, #4]
 8001bb0:	4e1e      	ldr	r6, [pc, #120]	@ (8001c2c <LCD_DrawPixel.part.0+0xf8>)
 8001bb2:	4032      	ands	r2, r6
 8001bb4:	605a      	str	r2, [r3, #4]
 8001bb6:	2d02      	cmp	r5, #2
 8001bb8:	d027      	beq.n	8001c0a <LCD_DrawPixel.part.0+0xd6>
 8001bba:	22e0      	movs	r2, #224	@ 0xe0
 8001bbc:	6858      	ldr	r0, [r3, #4]
 8001bbe:	00d2      	lsls	r2, r2, #3
 8001bc0:	4302      	orrs	r2, r0
 8001bc2:	2040      	movs	r0, #64	@ 0x40
 8001bc4:	605a      	str	r2, [r3, #4]
 8001bc6:	681a      	ldr	r2, [r3, #0]
 8001bc8:	4302      	orrs	r2, r0
 8001bca:	601a      	str	r2, [r3, #0]
 8001bcc:	b2ca      	uxtb	r2, r1
 8001bce:	731a      	strb	r2, [r3, #12]
 8001bd0:	383e      	subs	r0, #62	@ 0x3e
 8001bd2:	689a      	ldr	r2, [r3, #8]
 8001bd4:	4210      	tst	r0, r2
 8001bd6:	d0fc      	beq.n	8001bd2 <LCD_DrawPixel.part.0+0x9e>
 8001bd8:	0a09      	lsrs	r1, r1, #8
 8001bda:	7319      	strb	r1, [r3, #12]
 8001bdc:	2102      	movs	r1, #2
 8001bde:	689a      	ldr	r2, [r3, #8]
 8001be0:	4211      	tst	r1, r2
 8001be2:	d0fc      	beq.n	8001bde <LCD_DrawPixel.part.0+0xaa>
 8001be4:	2265      	movs	r2, #101	@ 0x65
 8001be6:	5ca0      	ldrb	r0, [r4, r2]
 8001be8:	2180      	movs	r1, #128	@ 0x80
 8001bea:	689a      	ldr	r2, [r3, #8]
 8001bec:	4211      	tst	r1, r2
 8001bee:	d1fc      	bne.n	8001bea <LCD_DrawPixel.part.0+0xb6>
 8001bf0:	2800      	cmp	r0, #0
 8001bf2:	d105      	bne.n	8001c00 <LCD_DrawPixel.part.0+0xcc>
 8001bf4:	6c22      	ldr	r2, [r4, #64]	@ 0x40
 8001bf6:	2a00      	cmp	r2, #0
 8001bf8:	d002      	beq.n	8001c00 <LCD_DrawPixel.part.0+0xcc>
 8001bfa:	2144      	movs	r1, #68	@ 0x44
 8001bfc:	5a61      	ldrh	r1, [r4, r1]
 8001bfe:	6191      	str	r1, [r2, #24]
 8001c00:	2140      	movs	r1, #64	@ 0x40
 8001c02:	681a      	ldr	r2, [r3, #0]
 8001c04:	438a      	bics	r2, r1
 8001c06:	601a      	str	r2, [r3, #0]
 8001c08:	bd70      	pop	{r4, r5, r6, pc}
 8001c0a:	22f0      	movs	r2, #240	@ 0xf0
 8001c0c:	685d      	ldr	r5, [r3, #4]
 8001c0e:	0112      	lsls	r2, r2, #4
 8001c10:	432a      	orrs	r2, r5
 8001c12:	2540      	movs	r5, #64	@ 0x40
 8001c14:	605a      	str	r2, [r3, #4]
 8001c16:	681a      	ldr	r2, [r3, #0]
 8001c18:	432a      	orrs	r2, r5
 8001c1a:	601a      	str	r2, [r3, #0]
 8001c1c:	60d9      	str	r1, [r3, #12]
 8001c1e:	2102      	movs	r1, #2
 8001c20:	689a      	ldr	r2, [r3, #8]
 8001c22:	4211      	tst	r1, r2
 8001c24:	d0fc      	beq.n	8001c20 <LCD_DrawPixel.part.0+0xec>
 8001c26:	e7df      	b.n	8001be8 <LCD_DrawPixel.part.0+0xb4>
 8001c28:	ffff5bff 	.word	0xffff5bff
 8001c2c:	fffff0ff 	.word	0xfffff0ff

08001c30 <LCD_DisplayAdd>:
 8001c30:	b5f0      	push	{r4, r5, r6, r7, lr}
 8001c32:	4657      	mov	r7, sl
 8001c34:	464e      	mov	r6, r9
 8001c36:	4645      	mov	r5, r8
 8001c38:	46de      	mov	lr, fp
 8001c3a:	b5e0      	push	{r5, r6, r7, lr}
 8001c3c:	b085      	sub	sp, #20
 8001c3e:	001e      	movs	r6, r3
 8001c40:	ab0e      	add	r3, sp, #56	@ 0x38
 8001c42:	881b      	ldrh	r3, [r3, #0]
 8001c44:	0017      	movs	r7, r2
 8001c46:	4699      	mov	r9, r3
 8001c48:	ab0f      	add	r3, sp, #60	@ 0x3c
 8001c4a:	881b      	ldrh	r3, [r3, #0]
 8001c4c:	000c      	movs	r4, r1
 8001c4e:	469a      	mov	sl, r3
 8001c50:	ab10      	add	r3, sp, #64	@ 0x40
 8001c52:	2200      	movs	r2, #0
 8001c54:	5e9b      	ldrsh	r3, [r3, r2]
 8001c56:	9001      	str	r0, [sp, #4]
 8001c58:	4698      	mov	r8, r3
 8001c5a:	ab11      	add	r3, sp, #68	@ 0x44
 8001c5c:	2200      	movs	r2, #0
 8001c5e:	5e9b      	ldrsh	r3, [r3, r2]
 8001c60:	9302      	str	r3, [sp, #8]
 8001c62:	ab12      	add	r3, sp, #72	@ 0x48
 8001c64:	781b      	ldrb	r3, [r3, #0]
 8001c66:	469b      	mov	fp, r3
 8001c68:	ab18      	add	r3, sp, #96	@ 0x60
 8001c6a:	781b      	ldrb	r3, [r3, #0]
 8001c6c:	001d      	movs	r5, r3
 8001c6e:	9303      	str	r3, [sp, #12]
 8001c70:	2900      	cmp	r1, #0
 8001c72:	d100      	bne.n	8001c76 <LCD_DisplayAdd+0x46>
 8001c74:	e0b6      	b.n	8001de4 <LCD_DisplayAdd+0x1b4>
 8001c76:	2100      	movs	r1, #0
 8001c78:	2274      	movs	r2, #116	@ 0x74
 8001c7a:	0020      	movs	r0, r4
 8001c7c:	f004 fcf0 	bl	8006660 <memset>
 8001c80:	2348      	movs	r3, #72	@ 0x48
 8001c82:	0022      	movs	r2, r4
 8001c84:	54e5      	strb	r5, [r4, r3]
 8001c86:	9b17      	ldr	r3, [sp, #92]	@ 0x5c
 8001c88:	3224      	adds	r2, #36	@ 0x24
 8001c8a:	cb23      	ldmia	r3!, {r0, r1, r5}
 8001c8c:	c223      	stmia	r2!, {r0, r1, r5}
 8001c8e:	cb23      	ldmia	r3!, {r0, r1, r5}
 8001c90:	c223      	stmia	r2!, {r0, r1, r5}
 8001c92:	cb23      	ldmia	r3!, {r0, r1, r5}
 8001c94:	c223      	stmia	r2!, {r0, r1, r5}
 8001c96:	6aa3      	ldr	r3, [r4, #40]	@ 0x28
 8001c98:	2b00      	cmp	r3, #0
 8001c9a:	d026      	beq.n	8001cea <LCD_DisplayAdd+0xba>
 8001c9c:	6ae1      	ldr	r1, [r4, #44]	@ 0x2c
 8001c9e:	9d01      	ldr	r5, [sp, #4]
 8001ca0:	008a      	lsls	r2, r1, #2
 8001ca2:	1852      	adds	r2, r2, r1
 8001ca4:	2101      	movs	r1, #1
 8001ca6:	0092      	lsls	r2, r2, #2
 8001ca8:	189b      	adds	r3, r3, r2
 8001caa:	3b0c      	subs	r3, #12
 8001cac:	681a      	ldr	r2, [r3, #0]
 8001cae:	438a      	bics	r2, r1
 8001cb0:	601a      	str	r2, [r3, #0]
 8001cb2:	681a      	ldr	r2, [r3, #0]
 8001cb4:	4211      	tst	r1, r2
 8001cb6:	d1fc      	bne.n	8001cb2 <LCD_DisplayAdd+0x82>
 8001cb8:	681a      	ldr	r2, [r3, #0]
 8001cba:	4956      	ldr	r1, [pc, #344]	@ (8001e14 <LCD_DisplayAdd+0x1e4>)
 8001cbc:	9501      	str	r5, [sp, #4]
 8001cbe:	400a      	ands	r2, r1
 8001cc0:	601a      	str	r2, [r3, #0]
 8001cc2:	9a03      	ldr	r2, [sp, #12]
 8001cc4:	2a02      	cmp	r2, #2
 8001cc6:	d100      	bne.n	8001cca <LCD_DisplayAdd+0x9a>
 8001cc8:	e081      	b.n	8001dce <LCD_DisplayAdd+0x19e>
 8001cca:	210c      	movs	r1, #12
 8001ccc:	681a      	ldr	r2, [r3, #0]
 8001cce:	438a      	bics	r2, r1
 8001cd0:	601a      	str	r2, [r3, #0]
 8001cd2:	681a      	ldr	r2, [r3, #0]
 8001cd4:	390a      	subs	r1, #10
 8001cd6:	430a      	orrs	r2, r1
 8001cd8:	601a      	str	r2, [r3, #0]
 8001cda:	681a      	ldr	r2, [r3, #0]
 8001cdc:	313e      	adds	r1, #62	@ 0x3e
 8001cde:	438a      	bics	r2, r1
 8001ce0:	601a      	str	r2, [r3, #0]
 8001ce2:	681a      	ldr	r2, [r3, #0]
 8001ce4:	3140      	adds	r1, #64	@ 0x40
 8001ce6:	430a      	orrs	r2, r1
 8001ce8:	601a      	str	r2, [r3, #0]
 8001cea:	1c32      	adds	r2, r6, #0
 8001cec:	42be      	cmp	r6, r7
 8001cee:	d368      	bcc.n	8001dc2 <LCD_DisplayAdd+0x192>
 8001cf0:	b292      	uxth	r2, r2
 8001cf2:	1c33      	adds	r3, r6, #0
 8001cf4:	42be      	cmp	r6, r7
 8001cf6:	d85e      	bhi.n	8001db6 <LCD_DisplayAdd+0x186>
 8001cf8:	4659      	mov	r1, fp
 8001cfa:	b29b      	uxth	r3, r3
 8001cfc:	2900      	cmp	r1, #0
 8001cfe:	d145      	bne.n	8001d8c <LCD_DisplayAdd+0x15c>
 8001d00:	4649      	mov	r1, r9
 8001d02:	8021      	strh	r1, [r4, #0]
 8001d04:	4651      	mov	r1, sl
 8001d06:	8061      	strh	r1, [r4, #2]
 8001d08:	4641      	mov	r1, r8
 8001d0a:	8161      	strh	r1, [r4, #10]
 8001d0c:	9902      	ldr	r1, [sp, #8]
 8001d0e:	80a3      	strh	r3, [r4, #4]
 8001d10:	80e2      	strh	r2, [r4, #6]
 8001d12:	81a1      	strh	r1, [r4, #12]
 8001d14:	454b      	cmp	r3, r9
 8001d16:	d860      	bhi.n	8001dda <LCD_DisplayAdd+0x1aa>
 8001d18:	4552      	cmp	r2, sl
 8001d1a:	d85e      	bhi.n	8001dda <LCD_DisplayAdd+0x1aa>
 8001d1c:	9b13      	ldr	r3, [sp, #76]	@ 0x4c
 8001d1e:	2b00      	cmp	r3, #0
 8001d20:	d05b      	beq.n	8001dda <LCD_DisplayAdd+0x1aa>
 8001d22:	9b14      	ldr	r3, [sp, #80]	@ 0x50
 8001d24:	2b00      	cmp	r3, #0
 8001d26:	d058      	beq.n	8001dda <LCD_DisplayAdd+0x1aa>
 8001d28:	465b      	mov	r3, fp
 8001d2a:	7223      	strb	r3, [r4, #8]
 8001d2c:	9b13      	ldr	r3, [sp, #76]	@ 0x4c
 8001d2e:	aa19      	add	r2, sp, #100	@ 0x64
 8001d30:	6163      	str	r3, [r4, #20]
 8001d32:	9b14      	ldr	r3, [sp, #80]	@ 0x50
 8001d34:	61a3      	str	r3, [r4, #24]
 8001d36:	9b15      	ldr	r3, [sp, #84]	@ 0x54
 8001d38:	61e3      	str	r3, [r4, #28]
 8001d3a:	9b16      	ldr	r3, [sp, #88]	@ 0x58
 8001d3c:	6223      	str	r3, [r4, #32]
 8001d3e:	0023      	movs	r3, r4
 8001d40:	334c      	adds	r3, #76	@ 0x4c
 8001d42:	ca43      	ldmia	r2!, {r0, r1, r6}
 8001d44:	c343      	stmia	r3!, {r0, r1, r6}
 8001d46:	6812      	ldr	r2, [r2, #0]
 8001d48:	601a      	str	r2, [r3, #0]
 8001d4a:	2300      	movs	r3, #0
 8001d4c:	2264      	movs	r2, #100	@ 0x64
 8001d4e:	54a3      	strb	r3, [r4, r2]
 8001d50:	6723      	str	r3, [r4, #112]	@ 0x70
 8001d52:	66e3      	str	r3, [r4, #108]	@ 0x6c
 8001d54:	9b01      	ldr	r3, [sp, #4]
 8001d56:	2b00      	cmp	r3, #0
 8001d58:	d010      	beq.n	8001d7c <LCD_DisplayAdd+0x14c>
 8001d5a:	6f1b      	ldr	r3, [r3, #112]	@ 0x70
 8001d5c:	2b00      	cmp	r3, #0
 8001d5e:	d00a      	beq.n	8001d76 <LCD_DisplayAdd+0x146>
 8001d60:	3a63      	subs	r2, #99	@ 0x63
 8001d62:	001d      	movs	r5, r3
 8001d64:	6f1b      	ldr	r3, [r3, #112]	@ 0x70
 8001d66:	0011      	movs	r1, r2
 8001d68:	3201      	adds	r2, #1
 8001d6a:	b2d2      	uxtb	r2, r2
 8001d6c:	2b00      	cmp	r3, #0
 8001d6e:	d1f8      	bne.n	8001d62 <LCD_DisplayAdd+0x132>
 8001d70:	3364      	adds	r3, #100	@ 0x64
 8001d72:	9501      	str	r5, [sp, #4]
 8001d74:	54e1      	strb	r1, [r4, r3]
 8001d76:	9b01      	ldr	r3, [sp, #4]
 8001d78:	66e3      	str	r3, [r4, #108]	@ 0x6c
 8001d7a:	671c      	str	r4, [r3, #112]	@ 0x70
 8001d7c:	0020      	movs	r0, r4
 8001d7e:	b005      	add	sp, #20
 8001d80:	bcf0      	pop	{r4, r5, r6, r7}
 8001d82:	46bb      	mov	fp, r7
 8001d84:	46b2      	mov	sl, r6
 8001d86:	46a9      	mov	r9, r5
 8001d88:	46a0      	mov	r8, r4
 8001d8a:	bdf0      	pop	{r4, r5, r6, r7, pc}
 8001d8c:	2902      	cmp	r1, #2
 8001d8e:	d02b      	beq.n	8001de8 <LCD_DisplayAdd+0x1b8>
 8001d90:	2901      	cmp	r1, #1
 8001d92:	d036      	beq.n	8001e02 <LCD_DisplayAdd+0x1d2>
 8001d94:	2903      	cmp	r1, #3
 8001d96:	d120      	bne.n	8001dda <LCD_DisplayAdd+0x1aa>
 8001d98:	4651      	mov	r1, sl
 8001d9a:	9802      	ldr	r0, [sp, #8]
 8001d9c:	1a09      	subs	r1, r1, r0
 8001d9e:	1a89      	subs	r1, r1, r2
 8001da0:	4640      	mov	r0, r8
 8001da2:	b209      	sxth	r1, r1
 8001da4:	4688      	mov	r8, r1
 8001da6:	9002      	str	r0, [sp, #8]
 8001da8:	0019      	movs	r1, r3
 8001daa:	0013      	movs	r3, r2
 8001dac:	000a      	movs	r2, r1
 8001dae:	4649      	mov	r1, r9
 8001db0:	46d1      	mov	r9, sl
 8001db2:	468a      	mov	sl, r1
 8001db4:	e7a4      	b.n	8001d00 <LCD_DisplayAdd+0xd0>
 8001db6:	4659      	mov	r1, fp
 8001db8:	1c3b      	adds	r3, r7, #0
 8001dba:	b29b      	uxth	r3, r3
 8001dbc:	2900      	cmp	r1, #0
 8001dbe:	d09f      	beq.n	8001d00 <LCD_DisplayAdd+0xd0>
 8001dc0:	e7e4      	b.n	8001d8c <LCD_DisplayAdd+0x15c>
 8001dc2:	1c3a      	adds	r2, r7, #0
 8001dc4:	b292      	uxth	r2, r2
 8001dc6:	1c33      	adds	r3, r6, #0
 8001dc8:	42be      	cmp	r6, r7
 8001dca:	d995      	bls.n	8001cf8 <LCD_DisplayAdd+0xc8>
 8001dcc:	e7f3      	b.n	8001db6 <LCD_DisplayAdd+0x186>
 8001dce:	22a0      	movs	r2, #160	@ 0xa0
 8001dd0:	6819      	ldr	r1, [r3, #0]
 8001dd2:	00d2      	lsls	r2, r2, #3
 8001dd4:	430a      	orrs	r2, r1
 8001dd6:	601a      	str	r2, [r3, #0]
 8001dd8:	e777      	b.n	8001cca <LCD_DisplayAdd+0x9a>
 8001dda:	2274      	movs	r2, #116	@ 0x74
 8001ddc:	2100      	movs	r1, #0
 8001dde:	0020      	movs	r0, r4
 8001de0:	f004 fc3e 	bl	8006660 <memset>
 8001de4:	2000      	movs	r0, #0
 8001de6:	e7ca      	b.n	8001d7e <LCD_DisplayAdd+0x14e>
 8001de8:	4640      	mov	r0, r8
 8001dea:	4649      	mov	r1, r9
 8001dec:	1a09      	subs	r1, r1, r0
 8001dee:	1ac9      	subs	r1, r1, r3
 8001df0:	b209      	sxth	r1, r1
 8001df2:	4688      	mov	r8, r1
 8001df4:	4651      	mov	r1, sl
 8001df6:	9802      	ldr	r0, [sp, #8]
 8001df8:	1a09      	subs	r1, r1, r0
 8001dfa:	1a89      	subs	r1, r1, r2
 8001dfc:	b209      	sxth	r1, r1
 8001dfe:	9102      	str	r1, [sp, #8]
 8001e00:	e77e      	b.n	8001d00 <LCD_DisplayAdd+0xd0>
 8001e02:	4640      	mov	r0, r8
 8001e04:	4649      	mov	r1, r9
 8001e06:	1a09      	subs	r1, r1, r0
 8001e08:	1ac9      	subs	r1, r1, r3
 8001e0a:	9802      	ldr	r0, [sp, #8]
 8001e0c:	b209      	sxth	r1, r1
 8001e0e:	4680      	mov	r8, r0
 8001e10:	9102      	str	r1, [sp, #8]
 8001e12:	e7c9      	b.n	8001da8 <LCD_DisplayAdd+0x178>
 8001e14:	fffff0ff 	.word	0xfffff0ff

08001e18 <LCD_SetBackLight>:
 8001e18:	b570      	push	{r4, r5, r6, lr}
 8001e1a:	1c0b      	adds	r3, r1, #0
 8001e1c:	0004      	movs	r4, r0
 8001e1e:	2964      	cmp	r1, #100	@ 0x64
 8001e20:	d900      	bls.n	8001e24 <LCD_SetBackLight+0xc>
 8001e22:	2364      	movs	r3, #100	@ 0x64
 8001e24:	225a      	movs	r2, #90	@ 0x5a
 8001e26:	54a3      	strb	r3, [r4, r2]
 8001e28:	6ce5      	ldr	r5, [r4, #76]	@ 0x4c
 8001e2a:	b2de      	uxtb	r6, r3
 8001e2c:	2d00      	cmp	r5, #0
 8001e2e:	d025      	beq.n	8001e7c <LCD_SetBackLight+0x64>
 8001e30:	6ae8      	ldr	r0, [r5, #44]	@ 0x2c
 8001e32:	2164      	movs	r1, #100	@ 0x64
 8001e34:	4370      	muls	r0, r6
 8001e36:	f7fe f96d 	bl	8000114 <__udivsi3>
 8001e3a:	6d23      	ldr	r3, [r4, #80]	@ 0x50
 8001e3c:	2b03      	cmp	r3, #3
 8001e3e:	d02f      	beq.n	8001ea0 <LCD_SetBackLight+0x88>
 8001e40:	d814      	bhi.n	8001e6c <LCD_SetBackLight+0x54>
 8001e42:	2b01      	cmp	r3, #1
 8001e44:	d023      	beq.n	8001e8e <LCD_SetBackLight+0x76>
 8001e46:	2b02      	cmp	r3, #2
 8001e48:	d100      	bne.n	8001e4c <LCD_SetBackLight+0x34>
 8001e4a:	63a8      	str	r0, [r5, #56]	@ 0x38
 8001e4c:	2201      	movs	r2, #1
 8001e4e:	6829      	ldr	r1, [r5, #0]
 8001e50:	420a      	tst	r2, r1
 8001e52:	d10a      	bne.n	8001e6a <LCD_SetBackLight+0x52>
 8001e54:	0010      	movs	r0, r2
 8001e56:	3b01      	subs	r3, #1
 8001e58:	009b      	lsls	r3, r3, #2
 8001e5a:	4098      	lsls	r0, r3
 8001e5c:	0003      	movs	r3, r0
 8001e5e:	6a29      	ldr	r1, [r5, #32]
 8001e60:	430b      	orrs	r3, r1
 8001e62:	622b      	str	r3, [r5, #32]
 8001e64:	682b      	ldr	r3, [r5, #0]
 8001e66:	4313      	orrs	r3, r2
 8001e68:	602b      	str	r3, [r5, #0]
 8001e6a:	bd70      	pop	{r4, r5, r6, pc}
 8001e6c:	2b04      	cmp	r3, #4
 8001e6e:	d1ed      	bne.n	8001e4c <LCD_SetBackLight+0x34>
 8001e70:	2201      	movs	r2, #1
 8001e72:	6428      	str	r0, [r5, #64]	@ 0x40
 8001e74:	6829      	ldr	r1, [r5, #0]
 8001e76:	420a      	tst	r2, r1
 8001e78:	d1f7      	bne.n	8001e6a <LCD_SetBackLight+0x52>
 8001e7a:	e7eb      	b.n	8001e54 <LCD_SetBackLight+0x3c>
 8001e7c:	6d63      	ldr	r3, [r4, #84]	@ 0x54
 8001e7e:	2b00      	cmp	r3, #0
 8001e80:	d0f3      	beq.n	8001e6a <LCD_SetBackLight+0x52>
 8001e82:	2258      	movs	r2, #88	@ 0x58
 8001e84:	5aa2      	ldrh	r2, [r4, r2]
 8001e86:	2900      	cmp	r1, #0
 8001e88:	d007      	beq.n	8001e9a <LCD_SetBackLight+0x82>
 8001e8a:	619a      	str	r2, [r3, #24]
 8001e8c:	e7ed      	b.n	8001e6a <LCD_SetBackLight+0x52>
 8001e8e:	2201      	movs	r2, #1
 8001e90:	6368      	str	r0, [r5, #52]	@ 0x34
 8001e92:	6829      	ldr	r1, [r5, #0]
 8001e94:	420a      	tst	r2, r1
 8001e96:	d1e8      	bne.n	8001e6a <LCD_SetBackLight+0x52>
 8001e98:	e7dc      	b.n	8001e54 <LCD_SetBackLight+0x3c>
 8001e9a:	0412      	lsls	r2, r2, #16
 8001e9c:	619a      	str	r2, [r3, #24]
 8001e9e:	e7e4      	b.n	8001e6a <LCD_SetBackLight+0x52>
 8001ea0:	2201      	movs	r2, #1
 8001ea2:	63e8      	str	r0, [r5, #60]	@ 0x3c
 8001ea4:	6829      	ldr	r1, [r5, #0]
 8001ea6:	420a      	tst	r2, r1
 8001ea8:	d1df      	bne.n	8001e6a <LCD_SetBackLight+0x52>
 8001eaa:	e7d3      	b.n	8001e54 <LCD_SetBackLight+0x3c>

08001eac <LCD_Init>:
 8001eac:	b570      	push	{r4, r5, r6, lr}
 8001eae:	0004      	movs	r4, r0
 8001eb0:	6b00      	ldr	r0, [r0, #48]	@ 0x30
 8001eb2:	2800      	cmp	r0, #0
 8001eb4:	d019      	beq.n	8001eea <LCD_Init+0x3e>
 8001eb6:	2180      	movs	r1, #128	@ 0x80
 8001eb8:	251a      	movs	r5, #26
 8001eba:	8ea6      	ldrh	r6, [r4, #52]	@ 0x34
 8001ebc:	4a11      	ldr	r2, [pc, #68]	@ (8001f04 <LCD_Init+0x58>)
 8001ebe:	0433      	lsls	r3, r6, #16
 8001ec0:	6183      	str	r3, [r0, #24]
 8001ec2:	6813      	ldr	r3, [r2, #0]
 8001ec4:	0249      	lsls	r1, r1, #9
 8001ec6:	6813      	ldr	r3, [r2, #0]
 8001ec8:	420b      	tst	r3, r1
 8001eca:	d0fc      	beq.n	8001ec6 <LCD_Init+0x1a>
 8001ecc:	3d01      	subs	r5, #1
 8001ece:	2d00      	cmp	r5, #0
 8001ed0:	d1f9      	bne.n	8001ec6 <LCD_Init+0x1a>
 8001ed2:	6186      	str	r6, [r0, #24]
 8001ed4:	6813      	ldr	r3, [r2, #0]
 8001ed6:	2280      	movs	r2, #128	@ 0x80
 8001ed8:	201a      	movs	r0, #26
 8001eda:	490a      	ldr	r1, [pc, #40]	@ (8001f04 <LCD_Init+0x58>)
 8001edc:	0252      	lsls	r2, r2, #9
 8001ede:	680b      	ldr	r3, [r1, #0]
 8001ee0:	4213      	tst	r3, r2
 8001ee2:	d0fc      	beq.n	8001ede <LCD_Init+0x32>
 8001ee4:	3801      	subs	r0, #1
 8001ee6:	2800      	cmp	r0, #0
 8001ee8:	d1f9      	bne.n	8001ede <LCD_Init+0x32>
 8001eea:	6963      	ldr	r3, [r4, #20]
 8001eec:	7a20      	ldrb	r0, [r4, #8]
 8001eee:	4798      	blx	r3
 8001ef0:	0001      	movs	r1, r0
 8001ef2:	0020      	movs	r0, r4
 8001ef4:	f7ff fd66 	bl	80019c4 <LCD_String_Interpretator>
 8001ef8:	235a      	movs	r3, #90	@ 0x5a
 8001efa:	0020      	movs	r0, r4
 8001efc:	5ce1      	ldrb	r1, [r4, r3]
 8001efe:	f7ff ff8b 	bl	8001e18 <LCD_SetBackLight>
 8001f02:	bd70      	pop	{r4, r5, r6, pc}
 8001f04:	e000e010 	.word	0xe000e010

08001f08 <LCD_SleepIn>:
 8001f08:	6cc2      	ldr	r2, [r0, #76]	@ 0x4c
 8001f0a:	b510      	push	{r4, lr}
 8001f0c:	0004      	movs	r4, r0
 8001f0e:	2a00      	cmp	r2, #0
 8001f10:	d017      	beq.n	8001f42 <LCD_SleepIn+0x3a>
 8001f12:	6d03      	ldr	r3, [r0, #80]	@ 0x50
 8001f14:	2b03      	cmp	r3, #3
 8001f16:	d01f      	beq.n	8001f58 <LCD_SleepIn+0x50>
 8001f18:	d80e      	bhi.n	8001f38 <LCD_SleepIn+0x30>
 8001f1a:	2b01      	cmp	r3, #1
 8001f1c:	d019      	beq.n	8001f52 <LCD_SleepIn+0x4a>
 8001f1e:	2b02      	cmp	r3, #2
 8001f20:	d101      	bne.n	8001f26 <LCD_SleepIn+0x1e>
 8001f22:	2300      	movs	r3, #0
 8001f24:	6393      	str	r3, [r2, #56]	@ 0x38
 8001f26:	69e3      	ldr	r3, [r4, #28]
 8001f28:	2b00      	cmp	r3, #0
 8001f2a:	d004      	beq.n	8001f36 <LCD_SleepIn+0x2e>
 8001f2c:	4798      	blx	r3
 8001f2e:	0001      	movs	r1, r0
 8001f30:	0020      	movs	r0, r4
 8001f32:	f7ff fd47 	bl	80019c4 <LCD_String_Interpretator>
 8001f36:	bd10      	pop	{r4, pc}
 8001f38:	2b04      	cmp	r3, #4
 8001f3a:	d1f4      	bne.n	8001f26 <LCD_SleepIn+0x1e>
 8001f3c:	2300      	movs	r3, #0
 8001f3e:	6413      	str	r3, [r2, #64]	@ 0x40
 8001f40:	e7f1      	b.n	8001f26 <LCD_SleepIn+0x1e>
 8001f42:	6d42      	ldr	r2, [r0, #84]	@ 0x54
 8001f44:	2a00      	cmp	r2, #0
 8001f46:	d0ee      	beq.n	8001f26 <LCD_SleepIn+0x1e>
 8001f48:	2358      	movs	r3, #88	@ 0x58
 8001f4a:	5ac3      	ldrh	r3, [r0, r3]
 8001f4c:	041b      	lsls	r3, r3, #16
 8001f4e:	6193      	str	r3, [r2, #24]
 8001f50:	e7e9      	b.n	8001f26 <LCD_SleepIn+0x1e>
 8001f52:	2300      	movs	r3, #0
 8001f54:	6353      	str	r3, [r2, #52]	@ 0x34
 8001f56:	e7e6      	b.n	8001f26 <LCD_SleepIn+0x1e>
 8001f58:	2300      	movs	r3, #0
 8001f5a:	63d3      	str	r3, [r2, #60]	@ 0x3c
 8001f5c:	e7e3      	b.n	8001f26 <LCD_SleepIn+0x1e>
 8001f5e:	46c0      	nop			@ (mov r8, r8)

08001f60 <LCD_SleepOut>:
 8001f60:	6a03      	ldr	r3, [r0, #32]
 8001f62:	b570      	push	{r4, r5, r6, lr}
 8001f64:	0004      	movs	r4, r0
 8001f66:	2b00      	cmp	r3, #0
 8001f68:	d004      	beq.n	8001f74 <LCD_SleepOut+0x14>
 8001f6a:	4798      	blx	r3
 8001f6c:	0001      	movs	r1, r0
 8001f6e:	0020      	movs	r0, r4
 8001f70:	f7ff fd28 	bl	80019c4 <LCD_String_Interpretator>
 8001f74:	235a      	movs	r3, #90	@ 0x5a
 8001f76:	5ce2      	ldrb	r2, [r4, r3]
 8001f78:	1c13      	adds	r3, r2, #0
 8001f7a:	2a64      	cmp	r2, #100	@ 0x64
 8001f7c:	d900      	bls.n	8001f80 <LCD_SleepOut+0x20>
 8001f7e:	2364      	movs	r3, #100	@ 0x64
 8001f80:	215a      	movs	r1, #90	@ 0x5a
 8001f82:	5463      	strb	r3, [r4, r1]
 8001f84:	6ce5      	ldr	r5, [r4, #76]	@ 0x4c
 8001f86:	b2de      	uxtb	r6, r3
 8001f88:	2d00      	cmp	r5, #0
 8001f8a:	d025      	beq.n	8001fd8 <LCD_SleepOut+0x78>
 8001f8c:	6ae8      	ldr	r0, [r5, #44]	@ 0x2c
 8001f8e:	310a      	adds	r1, #10
 8001f90:	4370      	muls	r0, r6
 8001f92:	f7fe f8bf 	bl	8000114 <__udivsi3>
 8001f96:	6d23      	ldr	r3, [r4, #80]	@ 0x50
 8001f98:	2b03      	cmp	r3, #3
 8001f9a:	d02f      	beq.n	8001ffc <LCD_SleepOut+0x9c>
 8001f9c:	d814      	bhi.n	8001fc8 <LCD_SleepOut+0x68>
 8001f9e:	2b01      	cmp	r3, #1
 8001fa0:	d023      	beq.n	8001fea <LCD_SleepOut+0x8a>
 8001fa2:	2b02      	cmp	r3, #2
 8001fa4:	d100      	bne.n	8001fa8 <LCD_SleepOut+0x48>
 8001fa6:	63a8      	str	r0, [r5, #56]	@ 0x38
 8001fa8:	2201      	movs	r2, #1
 8001faa:	6829      	ldr	r1, [r5, #0]
 8001fac:	420a      	tst	r2, r1
 8001fae:	d10a      	bne.n	8001fc6 <LCD_SleepOut+0x66>
 8001fb0:	0010      	movs	r0, r2
 8001fb2:	3b01      	subs	r3, #1
 8001fb4:	009b      	lsls	r3, r3, #2
 8001fb6:	4098      	lsls	r0, r3
 8001fb8:	0003      	movs	r3, r0
 8001fba:	6a29      	ldr	r1, [r5, #32]
 8001fbc:	430b      	orrs	r3, r1
 8001fbe:	622b      	str	r3, [r5, #32]
 8001fc0:	682b      	ldr	r3, [r5, #0]
 8001fc2:	4313      	orrs	r3, r2
 8001fc4:	602b      	str	r3, [r5, #0]
 8001fc6:	bd70      	pop	{r4, r5, r6, pc}
 8001fc8:	2b04      	cmp	r3, #4
 8001fca:	d1ed      	bne.n	8001fa8 <LCD_SleepOut+0x48>
 8001fcc:	2201      	movs	r2, #1
 8001fce:	6428      	str	r0, [r5, #64]	@ 0x40
 8001fd0:	6829      	ldr	r1, [r5, #0]
 8001fd2:	420a      	tst	r2, r1
 8001fd4:	d1f7      	bne.n	8001fc6 <LCD_SleepOut+0x66>
 8001fd6:	e7eb      	b.n	8001fb0 <LCD_SleepOut+0x50>
 8001fd8:	6d63      	ldr	r3, [r4, #84]	@ 0x54
 8001fda:	2b00      	cmp	r3, #0
 8001fdc:	d0f3      	beq.n	8001fc6 <LCD_SleepOut+0x66>
 8001fde:	2158      	movs	r1, #88	@ 0x58
 8001fe0:	5a61      	ldrh	r1, [r4, r1]
 8001fe2:	2a00      	cmp	r2, #0
 8001fe4:	d007      	beq.n	8001ff6 <LCD_SleepOut+0x96>
 8001fe6:	6199      	str	r1, [r3, #24]
 8001fe8:	e7ed      	b.n	8001fc6 <LCD_SleepOut+0x66>
 8001fea:	2201      	movs	r2, #1
 8001fec:	6368      	str	r0, [r5, #52]	@ 0x34
 8001fee:	6829      	ldr	r1, [r5, #0]
 8001ff0:	420a      	tst	r2, r1
 8001ff2:	d1e8      	bne.n	8001fc6 <LCD_SleepOut+0x66>
 8001ff4:	e7dc      	b.n	8001fb0 <LCD_SleepOut+0x50>
 8001ff6:	0409      	lsls	r1, r1, #16
 8001ff8:	6199      	str	r1, [r3, #24]
 8001ffa:	e7e4      	b.n	8001fc6 <LCD_SleepOut+0x66>
 8001ffc:	2201      	movs	r2, #1
 8001ffe:	63e8      	str	r0, [r5, #60]	@ 0x3c
 8002000:	6829      	ldr	r1, [r5, #0]
 8002002:	420a      	tst	r2, r1
 8002004:	d1df      	bne.n	8001fc6 <LCD_SleepOut+0x66>
 8002006:	e7d3      	b.n	8001fb0 <LCD_SleepOut+0x50>

08002008 <LCD_FillWindow>:
 8002008:	b5f0      	push	{r4, r5, r6, r7, lr}
 800200a:	46c6      	mov	lr, r8
 800200c:	b500      	push	{lr}
 800200e:	0004      	movs	r4, r0
 8002010:	0008      	movs	r0, r1
 8002012:	0011      	movs	r1, r2
 8002014:	001a      	movs	r2, r3
 8002016:	ab06      	add	r3, sp, #24
 8002018:	881b      	ldrh	r3, [r3, #0]
 800201a:	4290      	cmp	r0, r2
 800201c:	d902      	bls.n	8002024 <LCD_FillWindow+0x1c>
 800201e:	0005      	movs	r5, r0
 8002020:	0010      	movs	r0, r2
 8002022:	002a      	movs	r2, r5
 8002024:	4299      	cmp	r1, r3
 8002026:	d902      	bls.n	800202e <LCD_FillWindow+0x26>
 8002028:	000d      	movs	r5, r1
 800202a:	0019      	movs	r1, r3
 800202c:	002b      	movs	r3, r5
 800202e:	88a5      	ldrh	r5, [r4, #4]
 8002030:	4285      	cmp	r5, r0
 8002032:	d800      	bhi.n	8002036 <LCD_FillWindow+0x2e>
 8002034:	e08f      	b.n	8002156 <LCD_FillWindow+0x14e>
 8002036:	88e6      	ldrh	r6, [r4, #6]
 8002038:	428e      	cmp	r6, r1
 800203a:	d800      	bhi.n	800203e <LCD_FillWindow+0x36>
 800203c:	e08b      	b.n	8002156 <LCD_FillWindow+0x14e>
 800203e:	4295      	cmp	r5, r2
 8002040:	d801      	bhi.n	8002046 <LCD_FillWindow+0x3e>
 8002042:	3d01      	subs	r5, #1
 8002044:	b2aa      	uxth	r2, r5
 8002046:	429e      	cmp	r6, r3
 8002048:	d801      	bhi.n	800204e <LCD_FillWindow+0x46>
 800204a:	3e01      	subs	r6, #1
 800204c:	b2b3      	uxth	r3, r6
 800204e:	1a16      	subs	r6, r2, r0
 8002050:	1a5d      	subs	r5, r3, r1
 8002052:	3601      	adds	r6, #1
 8002054:	3501      	adds	r5, #1
 8002056:	89a7      	ldrh	r7, [r4, #12]
 8002058:	4375      	muls	r5, r6
 800205a:	8966      	ldrh	r6, [r4, #10]
 800205c:	19db      	adds	r3, r3, r7
 800205e:	1992      	adds	r2, r2, r6
 8002060:	1980      	adds	r0, r0, r6
 8002062:	19c9      	adds	r1, r1, r7
 8002064:	b29b      	uxth	r3, r3
 8002066:	69a6      	ldr	r6, [r4, #24]
 8002068:	b292      	uxth	r2, r2
 800206a:	b289      	uxth	r1, r1
 800206c:	b280      	uxth	r0, r0
 800206e:	47b0      	blx	r6
 8002070:	0001      	movs	r1, r0
 8002072:	0020      	movs	r0, r4
 8002074:	f7ff fca6 	bl	80019c4 <LCD_String_Interpretator>
 8002078:	2365      	movs	r3, #101	@ 0x65
 800207a:	5ce6      	ldrb	r6, [r4, r3]
 800207c:	2e00      	cmp	r6, #0
 800207e:	d106      	bne.n	800208e <LCD_FillWindow+0x86>
 8002080:	6c22      	ldr	r2, [r4, #64]	@ 0x40
 8002082:	2a00      	cmp	r2, #0
 8002084:	d003      	beq.n	800208e <LCD_FillWindow+0x86>
 8002086:	3b21      	subs	r3, #33	@ 0x21
 8002088:	5ae3      	ldrh	r3, [r4, r3]
 800208a:	041b      	lsls	r3, r3, #16
 800208c:	6193      	str	r3, [r2, #24]
 800208e:	2366      	movs	r3, #102	@ 0x66
 8002090:	5ce3      	ldrb	r3, [r4, r3]
 8002092:	2b00      	cmp	r3, #0
 8002094:	d102      	bne.n	800209c <LCD_FillWindow+0x94>
 8002096:	6ba3      	ldr	r3, [r4, #56]	@ 0x38
 8002098:	8fa2      	ldrh	r2, [r4, #60]	@ 0x3c
 800209a:	619a      	str	r2, [r3, #24]
 800209c:	9a07      	ldr	r2, [sp, #28]
 800209e:	9b07      	ldr	r3, [sp, #28]
 80020a0:	b2d1      	uxtb	r1, r2
 80020a2:	0cdb      	lsrs	r3, r3, #19
 80020a4:	02db      	lsls	r3, r3, #11
 80020a6:	08c9      	lsrs	r1, r1, #3
 80020a8:	4319      	orrs	r1, r3
 80020aa:	0953      	lsrs	r3, r2, #5
 80020ac:	22fc      	movs	r2, #252	@ 0xfc
 80020ae:	00d2      	lsls	r2, r2, #3
 80020b0:	4013      	ands	r3, r2
 80020b2:	4319      	orrs	r1, r3
 80020b4:	2348      	movs	r3, #72	@ 0x48
 80020b6:	5ce3      	ldrb	r3, [r4, r3]
 80020b8:	6aa0      	ldr	r0, [r4, #40]	@ 0x28
 80020ba:	4698      	mov	r8, r3
 80020bc:	4642      	mov	r2, r8
 80020be:	6a63      	ldr	r3, [r4, #36]	@ 0x24
 80020c0:	b289      	uxth	r1, r1
 80020c2:	2a01      	cmp	r2, #1
 80020c4:	d100      	bne.n	80020c8 <LCD_FillWindow+0xc0>
 80020c6:	e07c      	b.n	80021c2 <LCD_FillWindow+0x1ba>
 80020c8:	2768      	movs	r7, #104	@ 0x68
 80020ca:	4a55      	ldr	r2, [pc, #340]	@ (8002220 <LCD_FillWindow+0x218>)
 80020cc:	53e1      	strh	r1, [r4, r7]
 80020ce:	681f      	ldr	r7, [r3, #0]
 80020d0:	4017      	ands	r7, r2
 80020d2:	601f      	str	r7, [r3, #0]
 80020d4:	685f      	ldr	r7, [r3, #4]
 80020d6:	4a53      	ldr	r2, [pc, #332]	@ (8002224 <LCD_FillWindow+0x21c>)
 80020d8:	4017      	ands	r7, r2
 80020da:	4642      	mov	r2, r8
 80020dc:	605f      	str	r7, [r3, #4]
 80020de:	685f      	ldr	r7, [r3, #4]
 80020e0:	2a02      	cmp	r2, #2
 80020e2:	d13b      	bne.n	800215c <LCD_FillWindow+0x154>
 80020e4:	22f0      	movs	r2, #240	@ 0xf0
 80020e6:	0112      	lsls	r2, r2, #4
 80020e8:	433a      	orrs	r2, r7
 80020ea:	605a      	str	r2, [r3, #4]
 80020ec:	685a      	ldr	r2, [r3, #4]
 80020ee:	4f4e      	ldr	r7, [pc, #312]	@ (8002228 <LCD_FillWindow+0x220>)
 80020f0:	403a      	ands	r2, r7
 80020f2:	2740      	movs	r7, #64	@ 0x40
 80020f4:	605a      	str	r2, [r3, #4]
 80020f6:	681a      	ldr	r2, [r3, #0]
 80020f8:	433a      	orrs	r2, r7
 80020fa:	601a      	str	r2, [r3, #0]
 80020fc:	2800      	cmp	r0, #0
 80020fe:	d100      	bne.n	8002102 <LCD_FillWindow+0xfa>
 8002100:	e083      	b.n	800220a <LCD_FillWindow+0x202>
 8002102:	2601      	movs	r6, #1
 8002104:	6ae1      	ldr	r1, [r4, #44]	@ 0x2c
 8002106:	6847      	ldr	r7, [r0, #4]
 8002108:	008a      	lsls	r2, r1, #2
 800210a:	1852      	adds	r2, r2, r1
 800210c:	3901      	subs	r1, #1
 800210e:	0089      	lsls	r1, r1, #2
 8002110:	408e      	lsls	r6, r1
 8002112:	0031      	movs	r1, r6
 8002114:	0092      	lsls	r2, r2, #2
 8002116:	4339      	orrs	r1, r7
 8002118:	6041      	str	r1, [r0, #4]
 800211a:	1882      	adds	r2, r0, r2
 800211c:	2002      	movs	r0, #2
 800211e:	6859      	ldr	r1, [r3, #4]
 8002120:	3a0c      	subs	r2, #12
 8002122:	4301      	orrs	r1, r0
 8002124:	6059      	str	r1, [r3, #4]
 8002126:	330c      	adds	r3, #12
 8002128:	6093      	str	r3, [r2, #8]
 800212a:	0023      	movs	r3, r4
 800212c:	2140      	movs	r1, #64	@ 0x40
 800212e:	3368      	adds	r3, #104	@ 0x68
 8002130:	60d3      	str	r3, [r2, #12]
 8002132:	6813      	ldr	r3, [r2, #0]
 8002134:	438b      	bics	r3, r1
 8002136:	6013      	str	r3, [r2, #0]
 8002138:	6813      	ldr	r3, [r2, #0]
 800213a:	3140      	adds	r1, #64	@ 0x40
 800213c:	438b      	bics	r3, r1
 800213e:	6013      	str	r3, [r2, #0]
 8002140:	2380      	movs	r3, #128	@ 0x80
 8002142:	025b      	lsls	r3, r3, #9
 8002144:	429d      	cmp	r5, r3
 8002146:	d259      	bcs.n	80021fc <LCD_FillWindow+0x1f4>
 8002148:	2300      	movs	r3, #0
 800214a:	6055      	str	r5, [r2, #4]
 800214c:	6623      	str	r3, [r4, #96]	@ 0x60
 800214e:	2101      	movs	r1, #1
 8002150:	6813      	ldr	r3, [r2, #0]
 8002152:	430b      	orrs	r3, r1
 8002154:	6013      	str	r3, [r2, #0]
 8002156:	bc80      	pop	{r7}
 8002158:	46b8      	mov	r8, r7
 800215a:	bdf0      	pop	{r4, r5, r6, r7, pc}
 800215c:	22e0      	movs	r2, #224	@ 0xe0
 800215e:	00d2      	lsls	r2, r2, #3
 8002160:	433a      	orrs	r2, r7
 8002162:	605a      	str	r2, [r3, #4]
 8002164:	685a      	ldr	r2, [r3, #4]
 8002166:	4f30      	ldr	r7, [pc, #192]	@ (8002228 <LCD_FillWindow+0x220>)
 8002168:	403a      	ands	r2, r7
 800216a:	2740      	movs	r7, #64	@ 0x40
 800216c:	605a      	str	r2, [r3, #4]
 800216e:	681a      	ldr	r2, [r3, #0]
 8002170:	433a      	orrs	r2, r7
 8002172:	601a      	str	r2, [r3, #0]
 8002174:	2800      	cmp	r0, #0
 8002176:	d1c4      	bne.n	8002102 <LCD_FillWindow+0xfa>
 8002178:	0a0a      	lsrs	r2, r1, #8
 800217a:	4694      	mov	ip, r2
 800217c:	b2cf      	uxtb	r7, r1
 800217e:	1e68      	subs	r0, r5, #1
 8002180:	2d00      	cmp	r5, #0
 8002182:	d00d      	beq.n	80021a0 <LCD_FillWindow+0x198>
 8002184:	2202      	movs	r2, #2
 8002186:	731f      	strb	r7, [r3, #12]
 8002188:	6899      	ldr	r1, [r3, #8]
 800218a:	420a      	tst	r2, r1
 800218c:	d0fc      	beq.n	8002188 <LCD_FillWindow+0x180>
 800218e:	4661      	mov	r1, ip
 8002190:	7319      	strb	r1, [r3, #12]
 8002192:	6899      	ldr	r1, [r3, #8]
 8002194:	420a      	tst	r2, r1
 8002196:	d0fc      	beq.n	8002192 <LCD_FillWindow+0x18a>
 8002198:	3801      	subs	r0, #1
 800219a:	d2f4      	bcs.n	8002186 <LCD_FillWindow+0x17e>
 800219c:	2265      	movs	r2, #101	@ 0x65
 800219e:	5ca6      	ldrb	r6, [r4, r2]
 80021a0:	2180      	movs	r1, #128	@ 0x80
 80021a2:	689a      	ldr	r2, [r3, #8]
 80021a4:	4211      	tst	r1, r2
 80021a6:	d1fc      	bne.n	80021a2 <LCD_FillWindow+0x19a>
 80021a8:	2e00      	cmp	r6, #0
 80021aa:	d105      	bne.n	80021b8 <LCD_FillWindow+0x1b0>
 80021ac:	6c22      	ldr	r2, [r4, #64]	@ 0x40
 80021ae:	2a00      	cmp	r2, #0
 80021b0:	d002      	beq.n	80021b8 <LCD_FillWindow+0x1b0>
 80021b2:	2144      	movs	r1, #68	@ 0x44
 80021b4:	5a61      	ldrh	r1, [r4, r1]
 80021b6:	6191      	str	r1, [r2, #24]
 80021b8:	2140      	movs	r1, #64	@ 0x40
 80021ba:	681a      	ldr	r2, [r3, #0]
 80021bc:	438a      	bics	r2, r1
 80021be:	601a      	str	r2, [r3, #0]
 80021c0:	e7c9      	b.n	8002156 <LCD_FillWindow+0x14e>
 80021c2:	2768      	movs	r7, #104	@ 0x68
 80021c4:	ba4a      	rev16	r2, r1
 80021c6:	53e2      	strh	r2, [r4, r7]
 80021c8:	b291      	uxth	r1, r2
 80021ca:	4f15      	ldr	r7, [pc, #84]	@ (8002220 <LCD_FillWindow+0x218>)
 80021cc:	681a      	ldr	r2, [r3, #0]
 80021ce:	403a      	ands	r2, r7
 80021d0:	601a      	str	r2, [r3, #0]
 80021d2:	685a      	ldr	r2, [r3, #4]
 80021d4:	4f13      	ldr	r7, [pc, #76]	@ (8002224 <LCD_FillWindow+0x21c>)
 80021d6:	403a      	ands	r2, r7
 80021d8:	605a      	str	r2, [r3, #4]
 80021da:	22e0      	movs	r2, #224	@ 0xe0
 80021dc:	685f      	ldr	r7, [r3, #4]
 80021de:	00d2      	lsls	r2, r2, #3
 80021e0:	433a      	orrs	r2, r7
 80021e2:	605a      	str	r2, [r3, #4]
 80021e4:	685a      	ldr	r2, [r3, #4]
 80021e6:	4f10      	ldr	r7, [pc, #64]	@ (8002228 <LCD_FillWindow+0x220>)
 80021e8:	403a      	ands	r2, r7
 80021ea:	2740      	movs	r7, #64	@ 0x40
 80021ec:	605a      	str	r2, [r3, #4]
 80021ee:	681a      	ldr	r2, [r3, #0]
 80021f0:	433a      	orrs	r2, r7
 80021f2:	601a      	str	r2, [r3, #0]
 80021f4:	2800      	cmp	r0, #0
 80021f6:	d0bf      	beq.n	8002178 <LCD_FillWindow+0x170>
 80021f8:	006d      	lsls	r5, r5, #1
 80021fa:	e782      	b.n	8002102 <LCD_FillWindow+0xfa>
 80021fc:	4b0b      	ldr	r3, [pc, #44]	@ (800222c <LCD_FillWindow+0x224>)
 80021fe:	6053      	str	r3, [r2, #4]
 8002200:	4b0b      	ldr	r3, [pc, #44]	@ (8002230 <LCD_FillWindow+0x228>)
 8002202:	469c      	mov	ip, r3
 8002204:	4465      	add	r5, ip
 8002206:	6625      	str	r5, [r4, #96]	@ 0x60
 8002208:	e7a1      	b.n	800214e <LCD_FillWindow+0x146>
 800220a:	2002      	movs	r0, #2
 800220c:	1e6f      	subs	r7, r5, #1
 800220e:	2d00      	cmp	r5, #0
 8002210:	d0c6      	beq.n	80021a0 <LCD_FillWindow+0x198>
 8002212:	60d9      	str	r1, [r3, #12]
 8002214:	689a      	ldr	r2, [r3, #8]
 8002216:	4210      	tst	r0, r2
 8002218:	d0fc      	beq.n	8002214 <LCD_FillWindow+0x20c>
 800221a:	3f01      	subs	r7, #1
 800221c:	d2f9      	bcs.n	8002212 <LCD_FillWindow+0x20a>
 800221e:	e7bf      	b.n	80021a0 <LCD_FillWindow+0x198>
 8002220:	ffff5bff 	.word	0xffff5bff
 8002224:	fffff0ff 	.word	0xfffff0ff
 8002228:	ffffbfff 	.word	0xffffbfff
 800222c:	0000ffff 	.word	0x0000ffff
 8002230:	ffff0001 	.word	0xffff0001

08002234 <LCD_Fill>:
 8002234:	b500      	push	{lr}
 8002236:	88c2      	ldrh	r2, [r0, #6]
 8002238:	8883      	ldrh	r3, [r0, #4]
 800223a:	3a01      	subs	r2, #1
 800223c:	b083      	sub	sp, #12
 800223e:	b292      	uxth	r2, r2
 8002240:	3b01      	subs	r3, #1
 8002242:	9101      	str	r1, [sp, #4]
 8002244:	9200      	str	r2, [sp, #0]
 8002246:	2100      	movs	r1, #0
 8002248:	2200      	movs	r2, #0
 800224a:	b29b      	uxth	r3, r3
 800224c:	f7ff fedc 	bl	8002008 <LCD_FillWindow>
 8002250:	b003      	add	sp, #12
 8002252:	bd00      	pop	{pc}

08002254 <LCD_DrawLine>:
 8002254:	b5f0      	push	{r4, r5, r6, r7, lr}
 8002256:	4645      	mov	r5, r8
 8002258:	464e      	mov	r6, r9
 800225a:	46de      	mov	lr, fp
 800225c:	4657      	mov	r7, sl
 800225e:	b5e0      	push	{r5, r6, r7, lr}
 8002260:	b083      	sub	sp, #12
 8002262:	001e      	movs	r6, r3
 8002264:	ab0c      	add	r3, sp, #48	@ 0x30
 8002266:	000c      	movs	r4, r1
 8002268:	4680      	mov	r8, r0
 800226a:	0015      	movs	r5, r2
 800226c:	2100      	movs	r1, #0
 800226e:	5e59      	ldrsh	r1, [r3, r1]
 8002270:	42b4      	cmp	r4, r6
 8002272:	d100      	bne.n	8002276 <LCD_DrawLine+0x22>
 8002274:	e07c      	b.n	8002370 <LCD_DrawLine+0x11c>
 8002276:	428a      	cmp	r2, r1
 8002278:	d058      	beq.n	800232c <LCD_DrawLine+0xd8>
 800227a:	1a8b      	subs	r3, r1, r2
 800227c:	4693      	mov	fp, r2
 800227e:	17da      	asrs	r2, r3, #31
 8002280:	189b      	adds	r3, r3, r2
 8002282:	4053      	eors	r3, r2
 8002284:	1b32      	subs	r2, r6, r4
 8002286:	17d0      	asrs	r0, r2, #31
 8002288:	1812      	adds	r2, r2, r0
 800228a:	000f      	movs	r7, r1
 800228c:	46b2      	mov	sl, r6
 800228e:	46a4      	mov	ip, r4
 8002290:	4699      	mov	r9, r3
 8002292:	4042      	eors	r2, r0
 8002294:	4293      	cmp	r3, r2
 8002296:	dd06      	ble.n	80022a6 <LCD_DrawLine+0x52>
 8002298:	0037      	movs	r7, r6
 800229a:	46a3      	mov	fp, r4
 800229c:	000e      	movs	r6, r1
 800229e:	002c      	movs	r4, r5
 80022a0:	4691      	mov	r9, r2
 80022a2:	4651      	mov	r1, sl
 80022a4:	4665      	mov	r5, ip
 80022a6:	42b4      	cmp	r4, r6
 80022a8:	dd68      	ble.n	800237c <LCD_DrawLine+0x128>
 80022aa:	4658      	mov	r0, fp
 80022ac:	1bc0      	subs	r0, r0, r7
 80022ae:	17c7      	asrs	r7, r0, #31
 80022b0:	19c0      	adds	r0, r0, r7
 80022b2:	4078      	eors	r0, r7
 80022b4:	4681      	mov	r9, r0
 80022b6:	1ba0      	subs	r0, r4, r6
 80022b8:	b287      	uxth	r7, r0
 80022ba:	b200      	sxth	r0, r0
 80022bc:	46ba      	mov	sl, r7
 80022be:	0fc7      	lsrs	r7, r0, #31
 80022c0:	183f      	adds	r7, r7, r0
 80022c2:	107f      	asrs	r7, r7, #1
 80022c4:	428d      	cmp	r5, r1
 80022c6:	dd65      	ble.n	8002394 <LCD_DrawLine+0x140>
 80022c8:	000d      	movs	r5, r1
 80022ca:	0031      	movs	r1, r6
 80022cc:	0026      	movs	r6, r4
 80022ce:	000c      	movs	r4, r1
 80022d0:	2101      	movs	r1, #1
 80022d2:	468b      	mov	fp, r1
 80022d4:	4649      	mov	r1, r9
 80022d6:	b289      	uxth	r1, r1
 80022d8:	4689      	mov	r9, r1
 80022da:	4293      	cmp	r3, r2
 80022dc:	dd67      	ble.n	80023ae <LCD_DrawLine+0x15a>
 80022de:	4643      	mov	r3, r8
 80022e0:	889b      	ldrh	r3, [r3, #4]
 80022e2:	429d      	cmp	r5, r3
 80022e4:	da0d      	bge.n	8002302 <LCD_DrawLine+0xae>
 80022e6:	4643      	mov	r3, r8
 80022e8:	88db      	ldrh	r3, [r3, #6]
 80022ea:	42a3      	cmp	r3, r4
 80022ec:	dd09      	ble.n	8002302 <LCD_DrawLine+0xae>
 80022ee:	002b      	movs	r3, r5
 80022f0:	4323      	orrs	r3, r4
 80022f2:	041b      	lsls	r3, r3, #16
 80022f4:	d405      	bmi.n	8002302 <LCD_DrawLine+0xae>
 80022f6:	0022      	movs	r2, r4
 80022f8:	0029      	movs	r1, r5
 80022fa:	4640      	mov	r0, r8
 80022fc:	9b0d      	ldr	r3, [sp, #52]	@ 0x34
 80022fe:	f7ff fc19 	bl	8001b34 <LCD_DrawPixel.part.0>
 8002302:	464b      	mov	r3, r9
 8002304:	1afb      	subs	r3, r7, r3
 8002306:	b29a      	uxth	r2, r3
 8002308:	b21f      	sxth	r7, r3
 800230a:	041b      	lsls	r3, r3, #16
 800230c:	d503      	bpl.n	8002316 <LCD_DrawLine+0xc2>
 800230e:	445d      	add	r5, fp
 8002310:	4452      	add	r2, sl
 8002312:	b22d      	sxth	r5, r5
 8002314:	b217      	sxth	r7, r2
 8002316:	3401      	adds	r4, #1
 8002318:	b224      	sxth	r4, r4
 800231a:	42a6      	cmp	r6, r4
 800231c:	dadf      	bge.n	80022de <LCD_DrawLine+0x8a>
 800231e:	b003      	add	sp, #12
 8002320:	bcf0      	pop	{r4, r5, r6, r7}
 8002322:	46bb      	mov	fp, r7
 8002324:	46b2      	mov	sl, r6
 8002326:	46a9      	mov	r9, r5
 8002328:	46a0      	mov	r8, r4
 800232a:	bdf0      	pop	{r4, r5, r6, r7, pc}
 800232c:	42b4      	cmp	r4, r6
 800232e:	dd02      	ble.n	8002336 <LCD_DrawLine+0xe2>
 8002330:	0023      	movs	r3, r4
 8002332:	0034      	movs	r4, r6
 8002334:	001e      	movs	r6, r3
 8002336:	2e00      	cmp	r6, #0
 8002338:	dbf1      	blt.n	800231e <LCD_DrawLine+0xca>
 800233a:	4643      	mov	r3, r8
 800233c:	889b      	ldrh	r3, [r3, #4]
 800233e:	42a3      	cmp	r3, r4
 8002340:	dded      	ble.n	800231e <LCD_DrawLine+0xca>
 8002342:	2d00      	cmp	r5, #0
 8002344:	dbeb      	blt.n	800231e <LCD_DrawLine+0xca>
 8002346:	4643      	mov	r3, r8
 8002348:	88db      	ldrh	r3, [r3, #6]
 800234a:	428b      	cmp	r3, r1
 800234c:	dde7      	ble.n	800231e <LCD_DrawLine+0xca>
 800234e:	43ca      	mvns	r2, r1
 8002350:	17d2      	asrs	r2, r2, #31
 8002352:	400a      	ands	r2, r1
 8002354:	43e1      	mvns	r1, r4
 8002356:	980d      	ldr	r0, [sp, #52]	@ 0x34
 8002358:	17c9      	asrs	r1, r1, #31
 800235a:	4021      	ands	r1, r4
 800235c:	b2ad      	uxth	r5, r5
 800235e:	9001      	str	r0, [sp, #4]
 8002360:	b2b3      	uxth	r3, r6
 8002362:	4640      	mov	r0, r8
 8002364:	b292      	uxth	r2, r2
 8002366:	b289      	uxth	r1, r1
 8002368:	9500      	str	r5, [sp, #0]
 800236a:	f7ff fe4d 	bl	8002008 <LCD_FillWindow>
 800236e:	e7d6      	b.n	800231e <LCD_DrawLine+0xca>
 8002370:	428a      	cmp	r2, r1
 8002372:	dce0      	bgt.n	8002336 <LCD_DrawLine+0xe2>
 8002374:	000b      	movs	r3, r1
 8002376:	0011      	movs	r1, r2
 8002378:	001d      	movs	r5, r3
 800237a:	e7dc      	b.n	8002336 <LCD_DrawLine+0xe2>
 800237c:	1b30      	subs	r0, r6, r4
 800237e:	b287      	uxth	r7, r0
 8002380:	b200      	sxth	r0, r0
 8002382:	46ba      	mov	sl, r7
 8002384:	0fc7      	lsrs	r7, r0, #31
 8002386:	183f      	adds	r7, r7, r0
 8002388:	107f      	asrs	r7, r7, #1
 800238a:	428d      	cmp	r5, r1
 800238c:	db30      	blt.n	80023f0 <LCD_DrawLine+0x19c>
 800238e:	491a      	ldr	r1, [pc, #104]	@ (80023f8 <LCD_DrawLine+0x1a4>)
 8002390:	468b      	mov	fp, r1
 8002392:	e007      	b.n	80023a4 <LCD_DrawLine+0x150>
 8002394:	000d      	movs	r5, r1
 8002396:	0031      	movs	r1, r6
 8002398:	0026      	movs	r6, r4
 800239a:	000c      	movs	r4, r1
 800239c:	4916      	ldr	r1, [pc, #88]	@ (80023f8 <LCD_DrawLine+0x1a4>)
 800239e:	468b      	mov	fp, r1
 80023a0:	42a6      	cmp	r6, r4
 80023a2:	dbbc      	blt.n	800231e <LCD_DrawLine+0xca>
 80023a4:	4649      	mov	r1, r9
 80023a6:	b289      	uxth	r1, r1
 80023a8:	4689      	mov	r9, r1
 80023aa:	4293      	cmp	r3, r2
 80023ac:	dc97      	bgt.n	80022de <LCD_DrawLine+0x8a>
 80023ae:	4643      	mov	r3, r8
 80023b0:	889b      	ldrh	r3, [r3, #4]
 80023b2:	429c      	cmp	r4, r3
 80023b4:	da0d      	bge.n	80023d2 <LCD_DrawLine+0x17e>
 80023b6:	4643      	mov	r3, r8
 80023b8:	88db      	ldrh	r3, [r3, #6]
 80023ba:	429d      	cmp	r5, r3
 80023bc:	da09      	bge.n	80023d2 <LCD_DrawLine+0x17e>
 80023be:	002b      	movs	r3, r5
 80023c0:	4323      	orrs	r3, r4
 80023c2:	041b      	lsls	r3, r3, #16
 80023c4:	d405      	bmi.n	80023d2 <LCD_DrawLine+0x17e>
 80023c6:	002a      	movs	r2, r5
 80023c8:	0021      	movs	r1, r4
 80023ca:	4640      	mov	r0, r8
 80023cc:	9b0d      	ldr	r3, [sp, #52]	@ 0x34
 80023ce:	f7ff fbb1 	bl	8001b34 <LCD_DrawPixel.part.0>
 80023d2:	464b      	mov	r3, r9
 80023d4:	1afb      	subs	r3, r7, r3
 80023d6:	b29a      	uxth	r2, r3
 80023d8:	b21f      	sxth	r7, r3
 80023da:	041b      	lsls	r3, r3, #16
 80023dc:	d503      	bpl.n	80023e6 <LCD_DrawLine+0x192>
 80023de:	445d      	add	r5, fp
 80023e0:	4452      	add	r2, sl
 80023e2:	b22d      	sxth	r5, r5
 80023e4:	b217      	sxth	r7, r2
 80023e6:	3401      	adds	r4, #1
 80023e8:	b224      	sxth	r4, r4
 80023ea:	42a6      	cmp	r6, r4
 80023ec:	dadf      	bge.n	80023ae <LCD_DrawLine+0x15a>
 80023ee:	e796      	b.n	800231e <LCD_DrawLine+0xca>
 80023f0:	2101      	movs	r1, #1
 80023f2:	468b      	mov	fp, r1
 80023f4:	e7d4      	b.n	80023a0 <LCD_DrawLine+0x14c>
 80023f6:	46c0      	nop			@ (mov r8, r8)
 80023f8:	0000ffff 	.word	0x0000ffff

080023fc <LCD_DrawRectangle>:
 80023fc:	b5f0      	push	{r4, r5, r6, r7, lr}
 80023fe:	46c6      	mov	lr, r8
 8002400:	001d      	movs	r5, r3
 8002402:	0004      	movs	r4, r0
 8002404:	4688      	mov	r8, r1
 8002406:	0016      	movs	r6, r2
 8002408:	b500      	push	{lr}
 800240a:	b082      	sub	sp, #8
 800240c:	ab08      	add	r3, sp, #32
 800240e:	2700      	movs	r7, #0
 8002410:	5fdf      	ldrsh	r7, [r3, r7]
 8002412:	9b09      	ldr	r3, [sp, #36]	@ 0x24
 8002414:	9200      	str	r2, [sp, #0]
 8002416:	9301      	str	r3, [sp, #4]
 8002418:	002b      	movs	r3, r5
 800241a:	f7ff ff1b 	bl	8002254 <LCD_DrawLine>
 800241e:	9b09      	ldr	r3, [sp, #36]	@ 0x24
 8002420:	0032      	movs	r2, r6
 8002422:	4641      	mov	r1, r8
 8002424:	0020      	movs	r0, r4
 8002426:	9301      	str	r3, [sp, #4]
 8002428:	9700      	str	r7, [sp, #0]
 800242a:	4643      	mov	r3, r8
 800242c:	f7ff ff12 	bl	8002254 <LCD_DrawLine>
 8002430:	9b09      	ldr	r3, [sp, #36]	@ 0x24
 8002432:	003a      	movs	r2, r7
 8002434:	4641      	mov	r1, r8
 8002436:	0020      	movs	r0, r4
 8002438:	9301      	str	r3, [sp, #4]
 800243a:	9700      	str	r7, [sp, #0]
 800243c:	002b      	movs	r3, r5
 800243e:	f7ff ff09 	bl	8002254 <LCD_DrawLine>
 8002442:	9b09      	ldr	r3, [sp, #36]	@ 0x24
 8002444:	0032      	movs	r2, r6
 8002446:	9301      	str	r3, [sp, #4]
 8002448:	0029      	movs	r1, r5
 800244a:	002b      	movs	r3, r5
 800244c:	0020      	movs	r0, r4
 800244e:	9700      	str	r7, [sp, #0]
 8002450:	f7ff ff00 	bl	8002254 <LCD_DrawLine>
 8002454:	b002      	add	sp, #8
 8002456:	bc80      	pop	{r7}
 8002458:	46b8      	mov	r8, r7
 800245a:	bdf0      	pop	{r4, r5, r6, r7, pc}

0800245c <LCD_DrawFilledRectangle>:
 800245c:	b530      	push	{r4, r5, lr}
 800245e:	b083      	sub	sp, #12
 8002460:	ac06      	add	r4, sp, #24
 8002462:	2500      	movs	r5, #0
 8002464:	5f64      	ldrsh	r4, [r4, r5]
 8002466:	4299      	cmp	r1, r3
 8002468:	dd02      	ble.n	8002470 <LCD_DrawFilledRectangle+0x14>
 800246a:	000d      	movs	r5, r1
 800246c:	0019      	movs	r1, r3
 800246e:	002b      	movs	r3, r5
 8002470:	42a2      	cmp	r2, r4
 8002472:	dd02      	ble.n	800247a <LCD_DrawFilledRectangle+0x1e>
 8002474:	0015      	movs	r5, r2
 8002476:	0022      	movs	r2, r4
 8002478:	002c      	movs	r4, r5
 800247a:	2b00      	cmp	r3, #0
 800247c:	db07      	blt.n	800248e <LCD_DrawFilledRectangle+0x32>
 800247e:	8885      	ldrh	r5, [r0, #4]
 8002480:	428d      	cmp	r5, r1
 8002482:	dd04      	ble.n	800248e <LCD_DrawFilledRectangle+0x32>
 8002484:	2c00      	cmp	r4, #0
 8002486:	db02      	blt.n	800248e <LCD_DrawFilledRectangle+0x32>
 8002488:	88c5      	ldrh	r5, [r0, #6]
 800248a:	4295      	cmp	r5, r2
 800248c:	dc01      	bgt.n	8002492 <LCD_DrawFilledRectangle+0x36>
 800248e:	b003      	add	sp, #12
 8002490:	bd30      	pop	{r4, r5, pc}
 8002492:	43d5      	mvns	r5, r2
 8002494:	17ed      	asrs	r5, r5, #31
 8002496:	402a      	ands	r2, r5
 8002498:	43cd      	mvns	r5, r1
 800249a:	17ed      	asrs	r5, r5, #31
 800249c:	4029      	ands	r1, r5
 800249e:	9d07      	ldr	r5, [sp, #28]
 80024a0:	b2a4      	uxth	r4, r4
 80024a2:	b29b      	uxth	r3, r3
 80024a4:	b292      	uxth	r2, r2
 80024a6:	b289      	uxth	r1, r1
 80024a8:	9501      	str	r5, [sp, #4]
 80024aa:	9400      	str	r4, [sp, #0]
 80024ac:	f7ff fdac 	bl	8002008 <LCD_FillWindow>
 80024b0:	e7ed      	b.n	800248e <LCD_DrawFilledRectangle+0x32>
 80024b2:	46c0      	nop			@ (mov r8, r8)

080024b4 <LCD_WriteChar>:
 80024b4:	b5f0      	push	{r4, r5, r6, r7, lr}
 80024b6:	464e      	mov	r6, r9
 80024b8:	4645      	mov	r5, r8
 80024ba:	4657      	mov	r7, sl
 80024bc:	46de      	mov	lr, fp
 80024be:	b5e0      	push	{r5, r6, r7, lr}
 80024c0:	27fc      	movs	r7, #252	@ 0xfc
 80024c2:	4680      	mov	r8, r0
 80024c4:	b087      	sub	sp, #28
 80024c6:	9810      	ldr	r0, [sp, #64]	@ 0x40
 80024c8:	00ff      	lsls	r7, r7, #3
 80024ca:	6844      	ldr	r4, [r0, #4]
 80024cc:	9811      	ldr	r0, [sp, #68]	@ 0x44
 80024ce:	9103      	str	r1, [sp, #12]
 80024d0:	0cc6      	lsrs	r6, r0, #19
 80024d2:	b2c5      	uxtb	r5, r0
 80024d4:	02f6      	lsls	r6, r6, #11
 80024d6:	08ed      	lsrs	r5, r5, #3
 80024d8:	4335      	orrs	r5, r6
 80024da:	0946      	lsrs	r6, r0, #5
 80024dc:	403e      	ands	r6, r7
 80024de:	4335      	orrs	r5, r6
 80024e0:	b2a8      	uxth	r0, r5
 80024e2:	9005      	str	r0, [sp, #20]
 80024e4:	2648      	movs	r6, #72	@ 0x48
 80024e6:	4640      	mov	r0, r8
 80024e8:	5d87      	ldrb	r7, [r0, r6]
 80024ea:	a913      	add	r1, sp, #76	@ 0x4c
 80024ec:	4691      	mov	r9, r2
 80024ee:	7809      	ldrb	r1, [r1, #0]
 80024f0:	9a12      	ldr	r2, [sp, #72]	@ 0x48
 80024f2:	2f01      	cmp	r7, #1
 80024f4:	d103      	bne.n	80024fe <LCD_WriteChar+0x4a>
 80024f6:	9805      	ldr	r0, [sp, #20]
 80024f8:	ba45      	rev16	r5, r0
 80024fa:	b2a8      	uxth	r0, r5
 80024fc:	9005      	str	r0, [sp, #20]
 80024fe:	0cd6      	lsrs	r6, r2, #19
 8002500:	b2d0      	uxtb	r0, r2
 8002502:	08c0      	lsrs	r0, r0, #3
 8002504:	02f6      	lsls	r6, r6, #11
 8002506:	4306      	orrs	r6, r0
 8002508:	20fc      	movs	r0, #252	@ 0xfc
 800250a:	0952      	lsrs	r2, r2, #5
 800250c:	00c0      	lsls	r0, r0, #3
 800250e:	4002      	ands	r2, r0
 8002510:	4316      	orrs	r6, r2
 8002512:	b2b2      	uxth	r2, r6
 8002514:	4692      	mov	sl, r2
 8002516:	2f01      	cmp	r7, #1
 8002518:	d102      	bne.n	8002520 <LCD_WriteChar+0x6c>
 800251a:	ba52      	rev16	r2, r2
 800251c:	b292      	uxth	r2, r2
 800251e:	4692      	mov	sl, r2
 8002520:	9a10      	ldr	r2, [sp, #64]	@ 0x40
 8002522:	2700      	movs	r7, #0
 8002524:	7a12      	ldrb	r2, [r2, #8]
 8002526:	429a      	cmp	r2, r3
 8002528:	d804      	bhi.n	8002534 <LCD_WriteChar+0x80>
 800252a:	9810      	ldr	r0, [sp, #64]	@ 0x40
 800252c:	7a46      	ldrb	r6, [r0, #9]
 800252e:	429e      	cmp	r6, r3
 8002530:	d300      	bcc.n	8002534 <LCD_WriteChar+0x80>
 8002532:	e072      	b.n	800261a <LCD_WriteChar+0x166>
 8002534:	9b10      	ldr	r3, [sp, #64]	@ 0x40
 8002536:	781b      	ldrb	r3, [r3, #0]
 8002538:	1e5a      	subs	r2, r3, #1
 800253a:	10d2      	asrs	r2, r2, #3
 800253c:	3201      	adds	r2, #1
 800253e:	4693      	mov	fp, r2
 8002540:	2a04      	cmp	r2, #4
 8002542:	dc63      	bgt.n	800260c <LCD_WriteChar+0x158>
 8002544:	4658      	mov	r0, fp
 8002546:	2601      	movs	r6, #1
 8002548:	00d2      	lsls	r2, r2, #3
 800254a:	3a01      	subs	r2, #1
 800254c:	4347      	muls	r7, r0
 800254e:	4096      	lsls	r6, r2
 8002550:	9a10      	ldr	r2, [sp, #64]	@ 0x40
 8002552:	7852      	ldrb	r2, [r2, #1]
 8002554:	4357      	muls	r7, r2
 8002556:	19e0      	adds	r0, r4, r7
 8002558:	9001      	str	r0, [sp, #4]
 800255a:	4640      	mov	r0, r8
 800255c:	6a44      	ldr	r4, [r0, #36]	@ 0x24
 800255e:	2900      	cmp	r1, #0
 8002560:	d05e      	beq.n	8002620 <LCD_WriteChar+0x16c>
 8002562:	2100      	movs	r1, #0
 8002564:	2700      	movs	r7, #0
 8002566:	9102      	str	r1, [sp, #8]
 8002568:	2a00      	cmp	r2, #0
 800256a:	d04f      	beq.n	800260c <LCD_WriteChar+0x158>
 800256c:	465a      	mov	r2, fp
 800256e:	2a01      	cmp	r2, #1
 8002570:	d045      	beq.n	80025fe <LCD_WriteChar+0x14a>
 8002572:	2a02      	cmp	r2, #2
 8002574:	d100      	bne.n	8002578 <LCD_WriteChar+0xc4>
 8002576:	e0fd      	b.n	8002774 <LCD_WriteChar+0x2c0>
 8002578:	2a03      	cmp	r2, #3
 800257a:	d100      	bne.n	800257e <LCD_WriteChar+0xca>
 800257c:	e0fd      	b.n	800277a <LCD_WriteChar+0x2c6>
 800257e:	2a04      	cmp	r2, #4
 8002580:	d101      	bne.n	8002586 <LCD_WriteChar+0xd2>
 8002582:	9a01      	ldr	r2, [sp, #4]
 8002584:	6817      	ldr	r7, [r2, #0]
 8002586:	9a01      	ldr	r2, [sp, #4]
 8002588:	445a      	add	r2, fp
 800258a:	9201      	str	r2, [sp, #4]
 800258c:	2b00      	cmp	r3, #0
 800258e:	d03d      	beq.n	800260c <LCD_WriteChar+0x158>
 8002590:	464a      	mov	r2, r9
 8002592:	b212      	sxth	r2, r2
 8002594:	2500      	movs	r5, #0
 8002596:	4692      	mov	sl, r2
 8002598:	9c03      	ldr	r4, [sp, #12]
 800259a:	e004      	b.n	80025a6 <LCD_WriteChar+0xf2>
 800259c:	3401      	adds	r4, #1
 800259e:	3501      	adds	r5, #1
 80025a0:	b2a4      	uxth	r4, r4
 80025a2:	42ab      	cmp	r3, r5
 80025a4:	dd1d      	ble.n	80025e2 <LCD_WriteChar+0x12e>
 80025a6:	003a      	movs	r2, r7
 80025a8:	40aa      	lsls	r2, r5
 80025aa:	4216      	tst	r6, r2
 80025ac:	d0f6      	beq.n	800259c <LCD_WriteChar+0xe8>
 80025ae:	4642      	mov	r2, r8
 80025b0:	8892      	ldrh	r2, [r2, #4]
 80025b2:	b221      	sxth	r1, r4
 80025b4:	428a      	cmp	r2, r1
 80025b6:	ddf1      	ble.n	800259c <LCD_WriteChar+0xe8>
 80025b8:	4642      	mov	r2, r8
 80025ba:	88d2      	ldrh	r2, [r2, #6]
 80025bc:	4552      	cmp	r2, sl
 80025be:	dded      	ble.n	800259c <LCD_WriteChar+0xe8>
 80025c0:	464a      	mov	r2, r9
 80025c2:	4322      	orrs	r2, r4
 80025c4:	b212      	sxth	r2, r2
 80025c6:	2a00      	cmp	r2, #0
 80025c8:	dbe8      	blt.n	800259c <LCD_WriteChar+0xe8>
 80025ca:	9b11      	ldr	r3, [sp, #68]	@ 0x44
 80025cc:	4652      	mov	r2, sl
 80025ce:	4640      	mov	r0, r8
 80025d0:	f7ff fab0 	bl	8001b34 <LCD_DrawPixel.part.0>
 80025d4:	9b10      	ldr	r3, [sp, #64]	@ 0x40
 80025d6:	3401      	adds	r4, #1
 80025d8:	781b      	ldrb	r3, [r3, #0]
 80025da:	3501      	adds	r5, #1
 80025dc:	b2a4      	uxth	r4, r4
 80025de:	42ab      	cmp	r3, r5
 80025e0:	dce1      	bgt.n	80025a6 <LCD_WriteChar+0xf2>
 80025e2:	9902      	ldr	r1, [sp, #8]
 80025e4:	9a10      	ldr	r2, [sp, #64]	@ 0x40
 80025e6:	3101      	adds	r1, #1
 80025e8:	9102      	str	r1, [sp, #8]
 80025ea:	7852      	ldrb	r2, [r2, #1]
 80025ec:	428a      	cmp	r2, r1
 80025ee:	dd0d      	ble.n	800260c <LCD_WriteChar+0x158>
 80025f0:	464a      	mov	r2, r9
 80025f2:	3201      	adds	r2, #1
 80025f4:	b292      	uxth	r2, r2
 80025f6:	4691      	mov	r9, r2
 80025f8:	465a      	mov	r2, fp
 80025fa:	2a01      	cmp	r2, #1
 80025fc:	d1b9      	bne.n	8002572 <LCD_WriteChar+0xbe>
 80025fe:	9a01      	ldr	r2, [sp, #4]
 8002600:	7817      	ldrb	r7, [r2, #0]
 8002602:	9a01      	ldr	r2, [sp, #4]
 8002604:	445a      	add	r2, fp
 8002606:	9201      	str	r2, [sp, #4]
 8002608:	2b00      	cmp	r3, #0
 800260a:	d1c1      	bne.n	8002590 <LCD_WriteChar+0xdc>
 800260c:	b007      	add	sp, #28
 800260e:	bcf0      	pop	{r4, r5, r6, r7}
 8002610:	46bb      	mov	fp, r7
 8002612:	46b2      	mov	sl, r6
 8002614:	46a9      	mov	r9, r5
 8002616:	46a0      	mov	r8, r4
 8002618:	bdf0      	pop	{r4, r5, r6, r7, pc}
 800261a:	1a9b      	subs	r3, r3, r2
 800261c:	b2df      	uxtb	r7, r3
 800261e:	e789      	b.n	8002534 <LCD_WriteChar+0x80>
 8002620:	4641      	mov	r1, r8
 8002622:	464d      	mov	r5, r9
 8002624:	8989      	ldrh	r1, [r1, #12]
 8002626:	1e6f      	subs	r7, r5, #1
 8002628:	19cf      	adds	r7, r1, r7
 800262a:	9d03      	ldr	r5, [sp, #12]
 800262c:	19d2      	adds	r2, r2, r7
 800262e:	8940      	ldrh	r0, [r0, #10]
 8002630:	b292      	uxth	r2, r2
 8002632:	4694      	mov	ip, r2
 8002634:	1e6a      	subs	r2, r5, #1
 8002636:	1882      	adds	r2, r0, r2
 8002638:	4449      	add	r1, r9
 800263a:	46a9      	mov	r9, r5
 800263c:	189a      	adds	r2, r3, r2
 800263e:	4643      	mov	r3, r8
 8002640:	4448      	add	r0, r9
 8002642:	699f      	ldr	r7, [r3, #24]
 8002644:	b292      	uxth	r2, r2
 8002646:	4663      	mov	r3, ip
 8002648:	b289      	uxth	r1, r1
 800264a:	b280      	uxth	r0, r0
 800264c:	47b8      	blx	r7
 800264e:	0001      	movs	r1, r0
 8002650:	4640      	mov	r0, r8
 8002652:	f7ff f9b7 	bl	80019c4 <LCD_String_Interpretator>
 8002656:	4643      	mov	r3, r8
 8002658:	6c19      	ldr	r1, [r3, #64]	@ 0x40
 800265a:	2900      	cmp	r1, #0
 800265c:	d004      	beq.n	8002668 <LCD_WriteChar+0x1b4>
 800265e:	2344      	movs	r3, #68	@ 0x44
 8002660:	4642      	mov	r2, r8
 8002662:	5ad3      	ldrh	r3, [r2, r3]
 8002664:	041b      	lsls	r3, r3, #16
 8002666:	618b      	str	r3, [r1, #24]
 8002668:	4643      	mov	r3, r8
 800266a:	4642      	mov	r2, r8
 800266c:	6b9b      	ldr	r3, [r3, #56]	@ 0x38
 800266e:	8f92      	ldrh	r2, [r2, #60]	@ 0x3c
 8002670:	619a      	str	r2, [r3, #24]
 8002672:	2240      	movs	r2, #64	@ 0x40
 8002674:	6823      	ldr	r3, [r4, #0]
 8002676:	4393      	bics	r3, r2
 8002678:	6023      	str	r3, [r4, #0]
 800267a:	6823      	ldr	r3, [r4, #0]
 800267c:	4a57      	ldr	r2, [pc, #348]	@ (80027dc <LCD_WriteChar+0x328>)
 800267e:	4013      	ands	r3, r2
 8002680:	6023      	str	r3, [r4, #0]
 8002682:	6863      	ldr	r3, [r4, #4]
 8002684:	4a56      	ldr	r2, [pc, #344]	@ (80027e0 <LCD_WriteChar+0x32c>)
 8002686:	4013      	ands	r3, r2
 8002688:	6063      	str	r3, [r4, #4]
 800268a:	4642      	mov	r2, r8
 800268c:	2348      	movs	r3, #72	@ 0x48
 800268e:	5cd3      	ldrb	r3, [r2, r3]
 8002690:	6862      	ldr	r2, [r4, #4]
 8002692:	2b02      	cmp	r3, #2
 8002694:	d07a      	beq.n	800278c <LCD_WriteChar+0x2d8>
 8002696:	23e0      	movs	r3, #224	@ 0xe0
 8002698:	00db      	lsls	r3, r3, #3
 800269a:	4313      	orrs	r3, r2
 800269c:	6063      	str	r3, [r4, #4]
 800269e:	2240      	movs	r2, #64	@ 0x40
 80026a0:	6823      	ldr	r3, [r4, #0]
 80026a2:	4313      	orrs	r3, r2
 80026a4:	6023      	str	r3, [r4, #0]
 80026a6:	9b10      	ldr	r3, [sp, #64]	@ 0x40
 80026a8:	785a      	ldrb	r2, [r3, #1]
 80026aa:	2a00      	cmp	r2, #0
 80026ac:	d04e      	beq.n	800274c <LCD_WriteChar+0x298>
 80026ae:	2148      	movs	r1, #72	@ 0x48
 80026b0:	7818      	ldrb	r0, [r3, #0]
 80026b2:	2300      	movs	r3, #0
 80026b4:	9102      	str	r1, [sp, #8]
 80026b6:	469c      	mov	ip, r3
 80026b8:	4659      	mov	r1, fp
 80026ba:	9103      	str	r1, [sp, #12]
 80026bc:	4661      	mov	r1, ip
 80026be:	9104      	str	r1, [sp, #16]
 80026c0:	9905      	ldr	r1, [sp, #20]
 80026c2:	3302      	adds	r3, #2
 80026c4:	468b      	mov	fp, r1
 80026c6:	9910      	ldr	r1, [sp, #64]	@ 0x40
 80026c8:	468c      	mov	ip, r1
 80026ca:	9903      	ldr	r1, [sp, #12]
 80026cc:	2901      	cmp	r1, #1
 80026ce:	d074      	beq.n	80027ba <LCD_WriteChar+0x306>
 80026d0:	2902      	cmp	r1, #2
 80026d2:	d075      	beq.n	80027c0 <LCD_WriteChar+0x30c>
 80026d4:	2903      	cmp	r1, #3
 80026d6:	d076      	beq.n	80027c6 <LCD_WriteChar+0x312>
 80026d8:	9901      	ldr	r1, [sp, #4]
 80026da:	680d      	ldr	r5, [r1, #0]
 80026dc:	9f03      	ldr	r7, [sp, #12]
 80026de:	46b9      	mov	r9, r7
 80026e0:	4449      	add	r1, r9
 80026e2:	9101      	str	r1, [sp, #4]
 80026e4:	2800      	cmp	r0, #0
 80026e6:	d02a      	beq.n	800273e <LCD_WriteChar+0x28a>
 80026e8:	2700      	movs	r7, #0
 80026ea:	4681      	mov	r9, r0
 80026ec:	002a      	movs	r2, r5
 80026ee:	40ba      	lsls	r2, r7
 80026f0:	4651      	mov	r1, sl
 80026f2:	4648      	mov	r0, r9
 80026f4:	4216      	tst	r6, r2
 80026f6:	d000      	beq.n	80026fa <LCD_WriteChar+0x246>
 80026f8:	4659      	mov	r1, fp
 80026fa:	68a2      	ldr	r2, [r4, #8]
 80026fc:	4213      	tst	r3, r2
 80026fe:	d0fc      	beq.n	80026fa <LCD_WriteChar+0x246>
 8002700:	4642      	mov	r2, r8
 8002702:	4681      	mov	r9, r0
 8002704:	9802      	ldr	r0, [sp, #8]
 8002706:	5c12      	ldrb	r2, [r2, r0]
 8002708:	2a02      	cmp	r2, #2
 800270a:	d144      	bne.n	8002796 <LCD_WriteChar+0x2e2>
 800270c:	60e1      	str	r1, [r4, #12]
 800270e:	1c79      	adds	r1, r7, #1
 8002710:	4648      	mov	r0, r9
 8002712:	4549      	cmp	r1, r9
 8002714:	da11      	bge.n	800273a <LCD_WriteChar+0x286>
 8002716:	4658      	mov	r0, fp
 8002718:	46cb      	mov	fp, r9
 800271a:	002a      	movs	r2, r5
 800271c:	408a      	lsls	r2, r1
 800271e:	0007      	movs	r7, r0
 8002720:	4216      	tst	r6, r2
 8002722:	d100      	bne.n	8002726 <LCD_WriteChar+0x272>
 8002724:	4657      	mov	r7, sl
 8002726:	68a2      	ldr	r2, [r4, #8]
 8002728:	4213      	tst	r3, r2
 800272a:	d0fc      	beq.n	8002726 <LCD_WriteChar+0x272>
 800272c:	3101      	adds	r1, #1
 800272e:	60e7      	str	r7, [r4, #12]
 8002730:	458b      	cmp	fp, r1
 8002732:	dcf2      	bgt.n	800271a <LCD_WriteChar+0x266>
 8002734:	465a      	mov	r2, fp
 8002736:	4683      	mov	fp, r0
 8002738:	0010      	movs	r0, r2
 800273a:	4662      	mov	r2, ip
 800273c:	7852      	ldrb	r2, [r2, #1]
 800273e:	9904      	ldr	r1, [sp, #16]
 8002740:	3101      	adds	r1, #1
 8002742:	9104      	str	r1, [sp, #16]
 8002744:	428a      	cmp	r2, r1
 8002746:	dcc0      	bgt.n	80026ca <LCD_WriteChar+0x216>
 8002748:	4643      	mov	r3, r8
 800274a:	6c19      	ldr	r1, [r3, #64]	@ 0x40
 800274c:	2202      	movs	r2, #2
 800274e:	68a3      	ldr	r3, [r4, #8]
 8002750:	421a      	tst	r2, r3
 8002752:	d0fc      	beq.n	800274e <LCD_WriteChar+0x29a>
 8002754:	2280      	movs	r2, #128	@ 0x80
 8002756:	68a3      	ldr	r3, [r4, #8]
 8002758:	421a      	tst	r2, r3
 800275a:	d1fc      	bne.n	8002756 <LCD_WriteChar+0x2a2>
 800275c:	2240      	movs	r2, #64	@ 0x40
 800275e:	6823      	ldr	r3, [r4, #0]
 8002760:	4393      	bics	r3, r2
 8002762:	6023      	str	r3, [r4, #0]
 8002764:	2900      	cmp	r1, #0
 8002766:	d100      	bne.n	800276a <LCD_WriteChar+0x2b6>
 8002768:	e750      	b.n	800260c <LCD_WriteChar+0x158>
 800276a:	2344      	movs	r3, #68	@ 0x44
 800276c:	4642      	mov	r2, r8
 800276e:	5ad3      	ldrh	r3, [r2, r3]
 8002770:	618b      	str	r3, [r1, #24]
 8002772:	e74b      	b.n	800260c <LCD_WriteChar+0x158>
 8002774:	9a01      	ldr	r2, [sp, #4]
 8002776:	8817      	ldrh	r7, [r2, #0]
 8002778:	e705      	b.n	8002586 <LCD_WriteChar+0xd2>
 800277a:	9901      	ldr	r1, [sp, #4]
 800277c:	784f      	ldrb	r7, [r1, #1]
 800277e:	788a      	ldrb	r2, [r1, #2]
 8002780:	023f      	lsls	r7, r7, #8
 8002782:	0412      	lsls	r2, r2, #16
 8002784:	4317      	orrs	r7, r2
 8002786:	780a      	ldrb	r2, [r1, #0]
 8002788:	4317      	orrs	r7, r2
 800278a:	e6fc      	b.n	8002586 <LCD_WriteChar+0xd2>
 800278c:	23f0      	movs	r3, #240	@ 0xf0
 800278e:	011b      	lsls	r3, r3, #4
 8002790:	4313      	orrs	r3, r2
 8002792:	6063      	str	r3, [r4, #4]
 8002794:	e783      	b.n	800269e <LCD_WriteChar+0x1ea>
 8002796:	b2ca      	uxtb	r2, r1
 8002798:	0a09      	lsrs	r1, r1, #8
 800279a:	b2c9      	uxtb	r1, r1
 800279c:	7322      	strb	r2, [r4, #12]
 800279e:	68a2      	ldr	r2, [r4, #8]
 80027a0:	4213      	tst	r3, r2
 80027a2:	d0fc      	beq.n	800279e <LCD_WriteChar+0x2ea>
 80027a4:	4662      	mov	r2, ip
 80027a6:	7321      	strb	r1, [r4, #12]
 80027a8:	7812      	ldrb	r2, [r2, #0]
 80027aa:	3701      	adds	r7, #1
 80027ac:	4691      	mov	r9, r2
 80027ae:	42ba      	cmp	r2, r7
 80027b0:	dc9c      	bgt.n	80026ec <LCD_WriteChar+0x238>
 80027b2:	0010      	movs	r0, r2
 80027b4:	4662      	mov	r2, ip
 80027b6:	7852      	ldrb	r2, [r2, #1]
 80027b8:	e7c1      	b.n	800273e <LCD_WriteChar+0x28a>
 80027ba:	9901      	ldr	r1, [sp, #4]
 80027bc:	780d      	ldrb	r5, [r1, #0]
 80027be:	e78d      	b.n	80026dc <LCD_WriteChar+0x228>
 80027c0:	9901      	ldr	r1, [sp, #4]
 80027c2:	880d      	ldrh	r5, [r1, #0]
 80027c4:	e78a      	b.n	80026dc <LCD_WriteChar+0x228>
 80027c6:	9f01      	ldr	r7, [sp, #4]
 80027c8:	7879      	ldrb	r1, [r7, #1]
 80027ca:	78bd      	ldrb	r5, [r7, #2]
 80027cc:	0209      	lsls	r1, r1, #8
 80027ce:	042d      	lsls	r5, r5, #16
 80027d0:	430d      	orrs	r5, r1
 80027d2:	7839      	ldrb	r1, [r7, #0]
 80027d4:	430d      	orrs	r5, r1
 80027d6:	0039      	movs	r1, r7
 80027d8:	e780      	b.n	80026dc <LCD_WriteChar+0x228>
 80027da:	46c0      	nop			@ (mov r8, r8)
 80027dc:	ffff5bff 	.word	0xffff5bff
 80027e0:	fffff0ff 	.word	0xfffff0ff

080027e4 <LCD_WriteString>:
 80027e4:	b5f0      	push	{r4, r5, r6, r7, lr}
 80027e6:	4657      	mov	r7, sl
 80027e8:	464e      	mov	r6, r9
 80027ea:	4645      	mov	r5, r8
 80027ec:	46de      	mov	lr, fp
 80027ee:	b5e0      	push	{r5, r6, r7, lr}
 80027f0:	001e      	movs	r6, r3
 80027f2:	b085      	sub	sp, #20
 80027f4:	9b0e      	ldr	r3, [sp, #56]	@ 0x38
 80027f6:	0007      	movs	r7, r0
 80027f8:	4698      	mov	r8, r3
 80027fa:	9b0f      	ldr	r3, [sp, #60]	@ 0x3c
 80027fc:	000c      	movs	r4, r1
 80027fe:	4699      	mov	r9, r3
 8002800:	9b10      	ldr	r3, [sp, #64]	@ 0x40
 8002802:	0015      	movs	r5, r2
 8002804:	469a      	mov	sl, r3
 8002806:	ab11      	add	r3, sp, #68	@ 0x44
 8002808:	781b      	ldrb	r3, [r3, #0]
 800280a:	469b      	mov	fp, r3
 800280c:	7833      	ldrb	r3, [r6, #0]
 800280e:	2b00      	cmp	r3, #0
 8002810:	d023      	beq.n	800285a <LCD_WriteString+0x76>
 8002812:	4642      	mov	r2, r8
 8002814:	7812      	ldrb	r2, [r2, #0]
 8002816:	88b9      	ldrh	r1, [r7, #4]
 8002818:	18a2      	adds	r2, r4, r2
 800281a:	428a      	cmp	r2, r1
 800281c:	dd08      	ble.n	8002830 <LCD_WriteString+0x4c>
 800281e:	4642      	mov	r2, r8
 8002820:	7852      	ldrb	r2, [r2, #1]
 8002822:	88f9      	ldrh	r1, [r7, #6]
 8002824:	1955      	adds	r5, r2, r5
 8002826:	b2ad      	uxth	r5, r5
 8002828:	18aa      	adds	r2, r5, r2
 800282a:	2400      	movs	r4, #0
 800282c:	428a      	cmp	r2, r1
 800282e:	dc14      	bgt.n	800285a <LCD_WriteString+0x76>
 8002830:	465a      	mov	r2, fp
 8002832:	9203      	str	r2, [sp, #12]
 8002834:	4652      	mov	r2, sl
 8002836:	9202      	str	r2, [sp, #8]
 8002838:	464a      	mov	r2, r9
 800283a:	9201      	str	r2, [sp, #4]
 800283c:	4642      	mov	r2, r8
 800283e:	0021      	movs	r1, r4
 8002840:	9200      	str	r2, [sp, #0]
 8002842:	0038      	movs	r0, r7
 8002844:	002a      	movs	r2, r5
 8002846:	f7ff fe35 	bl	80024b4 <LCD_WriteChar>
 800284a:	4643      	mov	r3, r8
 800284c:	3601      	adds	r6, #1
 800284e:	781a      	ldrb	r2, [r3, #0]
 8002850:	7833      	ldrb	r3, [r6, #0]
 8002852:	1914      	adds	r4, r2, r4
 8002854:	b2a4      	uxth	r4, r4
 8002856:	2b00      	cmp	r3, #0
 8002858:	d1dd      	bne.n	8002816 <LCD_WriteString+0x32>
 800285a:	81fc      	strh	r4, [r7, #14]
 800285c:	823d      	strh	r5, [r7, #16]
 800285e:	b005      	add	sp, #20
 8002860:	bcf0      	pop	{r4, r5, r6, r7}
 8002862:	46bb      	mov	fp, r7
 8002864:	46b2      	mov	sl, r6
 8002866:	46a9      	mov	r9, r5
 8002868:	46a0      	mov	r8, r4
 800286a:	bdf0      	pop	{r4, r5, r6, r7, pc}

0800286c <ST7789_Init>:
 800286c:	1e03      	subs	r3, r0, #0
 800286e:	d00a      	beq.n	8002886 <ST7789_Init+0x1a>
 8002870:	2802      	cmp	r0, #2
 8002872:	d00b      	beq.n	800288c <ST7789_Init+0x20>
 8002874:	2801      	cmp	r0, #1
 8002876:	d00b      	beq.n	8002890 <ST7789_Init+0x24>
 8002878:	3b03      	subs	r3, #3
 800287a:	1e5a      	subs	r2, r3, #1
 800287c:	4193      	sbcs	r3, r2
 800287e:	22af      	movs	r2, #175	@ 0xaf
 8002880:	425b      	negs	r3, r3
 8002882:	4393      	bics	r3, r2
 8002884:	33b0      	adds	r3, #176	@ 0xb0
 8002886:	4803      	ldr	r0, [pc, #12]	@ (8002894 <ST7789_Init+0x28>)
 8002888:	75c3      	strb	r3, [r0, #23]
 800288a:	4770      	bx	lr
 800288c:	23d4      	movs	r3, #212	@ 0xd4
 800288e:	e7fa      	b.n	8002886 <ST7789_Init+0x1a>
 8002890:	2364      	movs	r3, #100	@ 0x64
 8002892:	e7f8      	b.n	8002886 <ST7789_Init+0x1a>
 8002894:	20000034 	.word	0x20000034

08002898 <ST7789_SetWindow>:
 8002898:	b530      	push	{r4, r5, lr}
 800289a:	0004      	movs	r4, r0
 800289c:	4805      	ldr	r0, [pc, #20]	@ (80028b4 <ST7789_SetWindow+0x1c>)
 800289e:	0a25      	lsrs	r5, r4, #8
 80028a0:	7104      	strb	r4, [r0, #4]
 80028a2:	ba49      	rev16	r1, r1
 80028a4:	0a14      	lsrs	r4, r2, #8
 80028a6:	ba5b      	rev16	r3, r3
 80028a8:	70c5      	strb	r5, [r0, #3]
 80028aa:	7144      	strb	r4, [r0, #5]
 80028ac:	7182      	strb	r2, [r0, #6]
 80028ae:	8141      	strh	r1, [r0, #10]
 80028b0:	8183      	strh	r3, [r0, #12]
 80028b2:	bd30      	pop	{r4, r5, pc}
 80028b4:	20000020 	.word	0x20000020

080028b8 <ST7789_SleepIn>:
 80028b8:	4800      	ldr	r0, [pc, #0]	@ (80028bc <ST7789_SleepIn+0x4>)
 80028ba:	4770      	bx	lr
 80028bc:	20000018 	.word	0x20000018

080028c0 <ST7789_SleepOut>:
 80028c0:	4800      	ldr	r0, [pc, #0]	@ (80028c4 <ST7789_SleepOut+0x4>)
 80028c2:	4770      	bx	lr
 80028c4:	20000010 	.word	0x20000010

080028c8 <LL_EXTI_Init>:
 80028c8:	b510      	push	{r4, lr}
 80028ca:	7902      	ldrb	r2, [r0, #4]
 80028cc:	0003      	movs	r3, r0
 80028ce:	6801      	ldr	r1, [r0, #0]
 80028d0:	2a00      	cmp	r2, #0
 80028d2:	d003      	beq.n	80028dc <LL_EXTI_Init+0x14>
 80028d4:	2900      	cmp	r1, #0
 80028d6:	d10b      	bne.n	80028f0 <LL_EXTI_Init+0x28>
 80028d8:	2000      	movs	r0, #0
 80028da:	bd10      	pop	{r4, pc}
 80028dc:	2080      	movs	r0, #128	@ 0x80
 80028de:	4b28      	ldr	r3, [pc, #160]	@ (8002980 <LL_EXTI_Init+0xb8>)
 80028e0:	581a      	ldr	r2, [r3, r0]
 80028e2:	438a      	bics	r2, r1
 80028e4:	501a      	str	r2, [r3, r0]
 80028e6:	3004      	adds	r0, #4
 80028e8:	581a      	ldr	r2, [r3, r0]
 80028ea:	438a      	bics	r2, r1
 80028ec:	501a      	str	r2, [r3, r0]
 80028ee:	e7f3      	b.n	80028d8 <LL_EXTI_Init+0x10>
 80028f0:	7942      	ldrb	r2, [r0, #5]
 80028f2:	2a01      	cmp	r2, #1
 80028f4:	d02d      	beq.n	8002952 <LL_EXTI_Init+0x8a>
 80028f6:	2a02      	cmp	r2, #2
 80028f8:	d015      	beq.n	8002926 <LL_EXTI_Init+0x5e>
 80028fa:	2a00      	cmp	r2, #0
 80028fc:	d01f      	beq.n	800293e <LL_EXTI_Init+0x76>
 80028fe:	2003      	movs	r0, #3
 8002900:	2201      	movs	r2, #1
 8002902:	799b      	ldrb	r3, [r3, #6]
 8002904:	2b00      	cmp	r3, #0
 8002906:	d00c      	beq.n	8002922 <LL_EXTI_Init+0x5a>
 8002908:	2b02      	cmp	r3, #2
 800290a:	d030      	beq.n	800296e <LL_EXTI_Init+0xa6>
 800290c:	2b03      	cmp	r3, #3
 800290e:	d025      	beq.n	800295c <LL_EXTI_Init+0x94>
 8002910:	2b01      	cmp	r3, #1
 8002912:	d1e2      	bne.n	80028da <LL_EXTI_Init+0x12>
 8002914:	4b1a      	ldr	r3, [pc, #104]	@ (8002980 <LL_EXTI_Init+0xb8>)
 8002916:	6858      	ldr	r0, [r3, #4]
 8002918:	4388      	bics	r0, r1
 800291a:	6058      	str	r0, [r3, #4]
 800291c:	6818      	ldr	r0, [r3, #0]
 800291e:	4301      	orrs	r1, r0
 8002920:	6019      	str	r1, [r3, #0]
 8002922:	0010      	movs	r0, r2
 8002924:	e7d9      	b.n	80028da <LL_EXTI_Init+0x12>
 8002926:	2480      	movs	r4, #128	@ 0x80
 8002928:	4a15      	ldr	r2, [pc, #84]	@ (8002980 <LL_EXTI_Init+0xb8>)
 800292a:	5910      	ldr	r0, [r2, r4]
 800292c:	4308      	orrs	r0, r1
 800292e:	5110      	str	r0, [r2, r4]
 8002930:	3404      	adds	r4, #4
 8002932:	5910      	ldr	r0, [r2, r4]
 8002934:	4308      	orrs	r0, r1
 8002936:	5110      	str	r0, [r2, r4]
 8002938:	2002      	movs	r0, #2
 800293a:	2200      	movs	r2, #0
 800293c:	e7e1      	b.n	8002902 <LL_EXTI_Init+0x3a>
 800293e:	2484      	movs	r4, #132	@ 0x84
 8002940:	4a0f      	ldr	r2, [pc, #60]	@ (8002980 <LL_EXTI_Init+0xb8>)
 8002942:	5910      	ldr	r0, [r2, r4]
 8002944:	4388      	bics	r0, r1
 8002946:	5110      	str	r0, [r2, r4]
 8002948:	3c04      	subs	r4, #4
 800294a:	5910      	ldr	r0, [r2, r4]
 800294c:	4308      	orrs	r0, r1
 800294e:	5110      	str	r0, [r2, r4]
 8002950:	e7f2      	b.n	8002938 <LL_EXTI_Init+0x70>
 8002952:	2480      	movs	r4, #128	@ 0x80
 8002954:	4a0a      	ldr	r2, [pc, #40]	@ (8002980 <LL_EXTI_Init+0xb8>)
 8002956:	5910      	ldr	r0, [r2, r4]
 8002958:	4388      	bics	r0, r1
 800295a:	e7e8      	b.n	800292e <LL_EXTI_Init+0x66>
 800295c:	4b08      	ldr	r3, [pc, #32]	@ (8002980 <LL_EXTI_Init+0xb8>)
 800295e:	6818      	ldr	r0, [r3, #0]
 8002960:	4308      	orrs	r0, r1
 8002962:	6018      	str	r0, [r3, #0]
 8002964:	6858      	ldr	r0, [r3, #4]
 8002966:	4301      	orrs	r1, r0
 8002968:	6059      	str	r1, [r3, #4]
 800296a:	0010      	movs	r0, r2
 800296c:	e7b5      	b.n	80028da <LL_EXTI_Init+0x12>
 800296e:	4b04      	ldr	r3, [pc, #16]	@ (8002980 <LL_EXTI_Init+0xb8>)
 8002970:	6818      	ldr	r0, [r3, #0]
 8002972:	4388      	bics	r0, r1
 8002974:	6018      	str	r0, [r3, #0]
 8002976:	6858      	ldr	r0, [r3, #4]
 8002978:	4301      	orrs	r1, r0
 800297a:	6059      	str	r1, [r3, #4]
 800297c:	0010      	movs	r0, r2
 800297e:	e7ac      	b.n	80028da <LL_EXTI_Init+0x12>
 8002980:	40021800 	.word	0x40021800

08002984 <LL_GPIO_Init>:
 8002984:	b5f0      	push	{r4, r5, r6, r7, lr}
 8002986:	464e      	mov	r6, r9
 8002988:	46de      	mov	lr, fp
 800298a:	4657      	mov	r7, sl
 800298c:	4645      	mov	r5, r8
 800298e:	b5e0      	push	{r5, r6, r7, lr}
 8002990:	680e      	ldr	r6, [r1, #0]
 8002992:	2400      	movs	r4, #0
 8002994:	2e00      	cmp	r6, #0
 8002996:	d113      	bne.n	80029c0 <LL_GPIO_Init+0x3c>
 8002998:	e05f      	b.n	8002a5a <LL_GPIO_Init+0xd6>
 800299a:	68c5      	ldr	r5, [r0, #12]
 800299c:	46a8      	mov	r8, r5
 800299e:	4647      	mov	r7, r8
 80029a0:	690d      	ldr	r5, [r1, #16]
 80029a2:	401f      	ands	r7, r3
 80029a4:	4355      	muls	r5, r2
 80029a6:	433d      	orrs	r5, r7
 80029a8:	60c5      	str	r5, [r0, #12]
 80029aa:	465b      	mov	r3, fp
 80029ac:	6805      	ldr	r5, [r0, #0]
 80029ae:	402b      	ands	r3, r5
 80029b0:	4665      	mov	r5, ip
 80029b2:	436a      	muls	r2, r5
 80029b4:	4313      	orrs	r3, r2
 80029b6:	6003      	str	r3, [r0, #0]
 80029b8:	0033      	movs	r3, r6
 80029ba:	3401      	adds	r4, #1
 80029bc:	40e3      	lsrs	r3, r4
 80029be:	d04c      	beq.n	8002a5a <LL_GPIO_Init+0xd6>
 80029c0:	2301      	movs	r3, #1
 80029c2:	0035      	movs	r5, r6
 80029c4:	40a3      	lsls	r3, r4
 80029c6:	401d      	ands	r5, r3
 80029c8:	421e      	tst	r6, r3
 80029ca:	d0f5      	beq.n	80029b8 <LL_GPIO_Init+0x34>
 80029cc:	002a      	movs	r2, r5
 80029ce:	436a      	muls	r2, r5
 80029d0:	684b      	ldr	r3, [r1, #4]
 80029d2:	2701      	movs	r7, #1
 80029d4:	469c      	mov	ip, r3
 80029d6:	0053      	lsls	r3, r2, #1
 80029d8:	189b      	adds	r3, r3, r2
 80029da:	43db      	mvns	r3, r3
 80029dc:	427f      	negs	r7, r7
 80029de:	4467      	add	r7, ip
 80029e0:	469b      	mov	fp, r3
 80029e2:	2f01      	cmp	r7, #1
 80029e4:	d8d9      	bhi.n	800299a <LL_GPIO_Init+0x16>
 80029e6:	6887      	ldr	r7, [r0, #8]
 80029e8:	46b9      	mov	r9, r7
 80029ea:	688f      	ldr	r7, [r1, #8]
 80029ec:	4357      	muls	r7, r2
 80029ee:	46b8      	mov	r8, r7
 80029f0:	464f      	mov	r7, r9
 80029f2:	401f      	ands	r7, r3
 80029f4:	46b9      	mov	r9, r7
 80029f6:	4647      	mov	r7, r8
 80029f8:	464b      	mov	r3, r9
 80029fa:	431f      	orrs	r7, r3
 80029fc:	6087      	str	r7, [r0, #8]
 80029fe:	6843      	ldr	r3, [r0, #4]
 8002a00:	001f      	movs	r7, r3
 8002a02:	68cb      	ldr	r3, [r1, #12]
 8002a04:	43af      	bics	r7, r5
 8002a06:	46b8      	mov	r8, r7
 8002a08:	001f      	movs	r7, r3
 8002a0a:	436f      	muls	r7, r5
 8002a0c:	46b9      	mov	r9, r7
 8002a0e:	4647      	mov	r7, r8
 8002a10:	464b      	mov	r3, r9
 8002a12:	431f      	orrs	r7, r3
 8002a14:	6047      	str	r7, [r0, #4]
 8002a16:	68c3      	ldr	r3, [r0, #12]
 8002a18:	4699      	mov	r9, r3
 8002a1a:	690b      	ldr	r3, [r1, #16]
 8002a1c:	001f      	movs	r7, r3
 8002a1e:	4357      	muls	r7, r2
 8002a20:	465b      	mov	r3, fp
 8002a22:	46b8      	mov	r8, r7
 8002a24:	464f      	mov	r7, r9
 8002a26:	401f      	ands	r7, r3
 8002a28:	46b9      	mov	r9, r7
 8002a2a:	4647      	mov	r7, r8
 8002a2c:	464b      	mov	r3, r9
 8002a2e:	431f      	orrs	r7, r3
 8002a30:	4663      	mov	r3, ip
 8002a32:	60c7      	str	r7, [r0, #12]
 8002a34:	2b02      	cmp	r3, #2
 8002a36:	d1b8      	bne.n	80029aa <LL_GPIO_Init+0x26>
 8002a38:	694b      	ldr	r3, [r1, #20]
 8002a3a:	4698      	mov	r8, r3
 8002a3c:	2dff      	cmp	r5, #255	@ 0xff
 8002a3e:	d813      	bhi.n	8002a68 <LL_GPIO_Init+0xe4>
 8002a40:	0013      	movs	r3, r2
 8002a42:	4353      	muls	r3, r2
 8002a44:	4699      	mov	r9, r3
 8002a46:	464f      	mov	r7, r9
 8002a48:	6a05      	ldr	r5, [r0, #32]
 8002a4a:	011b      	lsls	r3, r3, #4
 8002a4c:	1bdb      	subs	r3, r3, r7
 8002a4e:	439d      	bics	r5, r3
 8002a50:	4643      	mov	r3, r8
 8002a52:	437b      	muls	r3, r7
 8002a54:	431d      	orrs	r5, r3
 8002a56:	6205      	str	r5, [r0, #32]
 8002a58:	e7a7      	b.n	80029aa <LL_GPIO_Init+0x26>
 8002a5a:	2000      	movs	r0, #0
 8002a5c:	bcf0      	pop	{r4, r5, r6, r7}
 8002a5e:	46bb      	mov	fp, r7
 8002a60:	46b2      	mov	sl, r6
 8002a62:	46a9      	mov	r9, r5
 8002a64:	46a0      	mov	r8, r4
 8002a66:	bdf0      	pop	{r4, r5, r6, r7, pc}
 8002a68:	0a2d      	lsrs	r5, r5, #8
 8002a6a:	436d      	muls	r5, r5
 8002a6c:	436d      	muls	r5, r5
 8002a6e:	6a43      	ldr	r3, [r0, #36]	@ 0x24
 8002a70:	4699      	mov	r9, r3
 8002a72:	012b      	lsls	r3, r5, #4
 8002a74:	1b5b      	subs	r3, r3, r5
 8002a76:	469a      	mov	sl, r3
 8002a78:	464b      	mov	r3, r9
 8002a7a:	4657      	mov	r7, sl
 8002a7c:	43bb      	bics	r3, r7
 8002a7e:	4699      	mov	r9, r3
 8002a80:	4643      	mov	r3, r8
 8002a82:	436b      	muls	r3, r5
 8002a84:	001d      	movs	r5, r3
 8002a86:	464b      	mov	r3, r9
 8002a88:	431d      	orrs	r5, r3
 8002a8a:	6245      	str	r5, [r0, #36]	@ 0x24
 8002a8c:	e78d      	b.n	80029aa <LL_GPIO_Init+0x26>
 8002a8e:	46c0      	nop			@ (mov r8, r8)

08002a90 <LL_SPI_Init>:
 8002a90:	6803      	ldr	r3, [r0, #0]
 8002a92:	0002      	movs	r2, r0
 8002a94:	b570      	push	{r4, r5, r6, lr}
 8002a96:	2001      	movs	r0, #1
 8002a98:	065b      	lsls	r3, r3, #25
 8002a9a:	d429      	bmi.n	8002af0 <LL_SPI_Init+0x60>
 8002a9c:	684e      	ldr	r6, [r1, #4]
 8002a9e:	680b      	ldr	r3, [r1, #0]
 8002aa0:	6948      	ldr	r0, [r1, #20]
 8002aa2:	4333      	orrs	r3, r6
 8002aa4:	68ce      	ldr	r6, [r1, #12]
 8002aa6:	6815      	ldr	r5, [r2, #0]
 8002aa8:	4333      	orrs	r3, r6
 8002aaa:	690e      	ldr	r6, [r1, #16]
 8002aac:	6a0c      	ldr	r4, [r1, #32]
 8002aae:	4333      	orrs	r3, r6
 8002ab0:	698e      	ldr	r6, [r1, #24]
 8002ab2:	4303      	orrs	r3, r0
 8002ab4:	4333      	orrs	r3, r6
 8002ab6:	69ce      	ldr	r6, [r1, #28]
 8002ab8:	0c00      	lsrs	r0, r0, #16
 8002aba:	4333      	orrs	r3, r6
 8002abc:	4e11      	ldr	r6, [pc, #68]	@ (8002b04 <LL_SPI_Init+0x74>)
 8002abe:	4323      	orrs	r3, r4
 8002ac0:	4035      	ands	r5, r6
 8002ac2:	432b      	orrs	r3, r5
 8002ac4:	6013      	str	r3, [r2, #0]
 8002ac6:	6853      	ldr	r3, [r2, #4]
 8002ac8:	688d      	ldr	r5, [r1, #8]
 8002aca:	4e0f      	ldr	r6, [pc, #60]	@ (8002b08 <LL_SPI_Init+0x78>)
 8002acc:	4328      	orrs	r0, r5
 8002ace:	4033      	ands	r3, r6
 8002ad0:	4318      	orrs	r0, r3
 8002ad2:	2380      	movs	r3, #128	@ 0x80
 8002ad4:	6050      	str	r0, [r2, #4]
 8002ad6:	011b      	lsls	r3, r3, #4
 8002ad8:	429d      	cmp	r5, r3
 8002ada:	d204      	bcs.n	8002ae6 <LL_SPI_Init+0x56>
 8002adc:	2080      	movs	r0, #128	@ 0x80
 8002ade:	6853      	ldr	r3, [r2, #4]
 8002ae0:	0140      	lsls	r0, r0, #5
 8002ae2:	4303      	orrs	r3, r0
 8002ae4:	6053      	str	r3, [r2, #4]
 8002ae6:	2380      	movs	r3, #128	@ 0x80
 8002ae8:	019b      	lsls	r3, r3, #6
 8002aea:	429c      	cmp	r4, r3
 8002aec:	d005      	beq.n	8002afa <LL_SPI_Init+0x6a>
 8002aee:	2000      	movs	r0, #0
 8002af0:	69d3      	ldr	r3, [r2, #28]
 8002af2:	4906      	ldr	r1, [pc, #24]	@ (8002b0c <LL_SPI_Init+0x7c>)
 8002af4:	400b      	ands	r3, r1
 8002af6:	61d3      	str	r3, [r2, #28]
 8002af8:	bd70      	pop	{r4, r5, r6, pc}
 8002afa:	8c8b      	ldrh	r3, [r1, #36]	@ 0x24
 8002afc:	2000      	movs	r0, #0
 8002afe:	6113      	str	r3, [r2, #16]
 8002b00:	e7f6      	b.n	8002af0 <LL_SPI_Init+0x60>
 8002b02:	46c0      	nop			@ (mov r8, r8)
 8002b04:	ffff0040 	.word	0xffff0040
 8002b08:	fffff0fb 	.word	0xfffff0fb
 8002b0c:	fffff7ff 	.word	0xfffff7ff

08002b10 <LL_TIM_Init>:
 8002b10:	b530      	push	{r4, r5, lr}
 8002b12:	4d20      	ldr	r5, [pc, #128]	@ (8002b94 <LL_TIM_Init+0x84>)
 8002b14:	6803      	ldr	r3, [r0, #0]
 8002b16:	688c      	ldr	r4, [r1, #8]
 8002b18:	880a      	ldrh	r2, [r1, #0]
 8002b1a:	42a8      	cmp	r0, r5
 8002b1c:	d027      	beq.n	8002b6e <LL_TIM_Init+0x5e>
 8002b1e:	2580      	movs	r5, #128	@ 0x80
 8002b20:	05ed      	lsls	r5, r5, #23
 8002b22:	42a8      	cmp	r0, r5
 8002b24:	d00f      	beq.n	8002b46 <LL_TIM_Init+0x36>
 8002b26:	4d1c      	ldr	r5, [pc, #112]	@ (8002b98 <LL_TIM_Init+0x88>)
 8002b28:	42a8      	cmp	r0, r5
 8002b2a:	d00c      	beq.n	8002b46 <LL_TIM_Init+0x36>
 8002b2c:	4d1b      	ldr	r5, [pc, #108]	@ (8002b9c <LL_TIM_Init+0x8c>)
 8002b2e:	42a8      	cmp	r0, r5
 8002b30:	d02b      	beq.n	8002b8a <LL_TIM_Init+0x7a>
 8002b32:	4d1b      	ldr	r5, [pc, #108]	@ (8002ba0 <LL_TIM_Init+0x90>)
 8002b34:	42a8      	cmp	r0, r5
 8002b36:	d01e      	beq.n	8002b76 <LL_TIM_Init+0x66>
 8002b38:	4d1a      	ldr	r5, [pc, #104]	@ (8002ba4 <LL_TIM_Init+0x94>)
 8002b3a:	42a8      	cmp	r0, r5
 8002b3c:	d01b      	beq.n	8002b76 <LL_TIM_Init+0x66>
 8002b3e:	6003      	str	r3, [r0, #0]
 8002b40:	62c4      	str	r4, [r0, #44]	@ 0x2c
 8002b42:	6282      	str	r2, [r0, #40]	@ 0x28
 8002b44:	e00d      	b.n	8002b62 <LL_TIM_Init+0x52>
 8002b46:	2570      	movs	r5, #112	@ 0x70
 8002b48:	43ab      	bics	r3, r5
 8002b4a:	684d      	ldr	r5, [r1, #4]
 8002b4c:	432b      	orrs	r3, r5
 8002b4e:	4d16      	ldr	r5, [pc, #88]	@ (8002ba8 <LL_TIM_Init+0x98>)
 8002b50:	402b      	ands	r3, r5
 8002b52:	68cd      	ldr	r5, [r1, #12]
 8002b54:	432b      	orrs	r3, r5
 8002b56:	6003      	str	r3, [r0, #0]
 8002b58:	4b12      	ldr	r3, [pc, #72]	@ (8002ba4 <LL_TIM_Init+0x94>)
 8002b5a:	62c4      	str	r4, [r0, #44]	@ 0x2c
 8002b5c:	6282      	str	r2, [r0, #40]	@ 0x28
 8002b5e:	4298      	cmp	r0, r3
 8002b60:	d010      	beq.n	8002b84 <LL_TIM_Init+0x74>
 8002b62:	2201      	movs	r2, #1
 8002b64:	6943      	ldr	r3, [r0, #20]
 8002b66:	4313      	orrs	r3, r2
 8002b68:	6143      	str	r3, [r0, #20]
 8002b6a:	2000      	movs	r0, #0
 8002b6c:	bd30      	pop	{r4, r5, pc}
 8002b6e:	2570      	movs	r5, #112	@ 0x70
 8002b70:	43ab      	bics	r3, r5
 8002b72:	684d      	ldr	r5, [r1, #4]
 8002b74:	432b      	orrs	r3, r5
 8002b76:	4d0c      	ldr	r5, [pc, #48]	@ (8002ba8 <LL_TIM_Init+0x98>)
 8002b78:	402b      	ands	r3, r5
 8002b7a:	68cd      	ldr	r5, [r1, #12]
 8002b7c:	432b      	orrs	r3, r5
 8002b7e:	6003      	str	r3, [r0, #0]
 8002b80:	62c4      	str	r4, [r0, #44]	@ 0x2c
 8002b82:	6282      	str	r2, [r0, #40]	@ 0x28
 8002b84:	690b      	ldr	r3, [r1, #16]
 8002b86:	6303      	str	r3, [r0, #48]	@ 0x30
 8002b88:	e7eb      	b.n	8002b62 <LL_TIM_Init+0x52>
 8002b8a:	4d07      	ldr	r5, [pc, #28]	@ (8002ba8 <LL_TIM_Init+0x98>)
 8002b8c:	68c9      	ldr	r1, [r1, #12]
 8002b8e:	402b      	ands	r3, r5
 8002b90:	430b      	orrs	r3, r1
 8002b92:	e7d4      	b.n	8002b3e <LL_TIM_Init+0x2e>
 8002b94:	40012c00 	.word	0x40012c00
 8002b98:	40000400 	.word	0x40000400
 8002b9c:	40002000 	.word	0x40002000
 8002ba0:	40014400 	.word	0x40014400
 8002ba4:	40014800 	.word	0x40014800
 8002ba8:	fffffcff 	.word	0xfffffcff

08002bac <LL_TIM_OC_Init>:
 8002bac:	2380      	movs	r3, #128	@ 0x80
 8002bae:	b570      	push	{r4, r5, r6, lr}
 8002bb0:	015b      	lsls	r3, r3, #5
 8002bb2:	4299      	cmp	r1, r3
 8002bb4:	d100      	bne.n	8002bb8 <LL_TIM_OC_Init+0xc>
 8002bb6:	e0db      	b.n	8002d70 <LL_TIM_OC_Init+0x1c4>
 8002bb8:	d82d      	bhi.n	8002c16 <LL_TIM_OC_Init+0x6a>
 8002bba:	2910      	cmp	r1, #16
 8002bbc:	d100      	bne.n	8002bc0 <LL_TIM_OC_Init+0x14>
 8002bbe:	e102      	b.n	8002dc6 <LL_TIM_OC_Init+0x21a>
 8002bc0:	2380      	movs	r3, #128	@ 0x80
 8002bc2:	005b      	lsls	r3, r3, #1
 8002bc4:	4299      	cmp	r1, r3
 8002bc6:	d152      	bne.n	8002c6e <LL_TIM_OC_Init+0xc2>
 8002bc8:	6a03      	ldr	r3, [r0, #32]
 8002bca:	4e9b      	ldr	r6, [pc, #620]	@ (8002e38 <LL_TIM_OC_Init+0x28c>)
 8002bcc:	4033      	ands	r3, r6
 8002bce:	6203      	str	r3, [r0, #32]
 8002bd0:	6a04      	ldr	r4, [r0, #32]
 8002bd2:	4b9a      	ldr	r3, [pc, #616]	@ (8002e3c <LL_TIM_OC_Init+0x290>)
 8002bd4:	6845      	ldr	r5, [r0, #4]
 8002bd6:	69c1      	ldr	r1, [r0, #28]
 8002bd8:	4019      	ands	r1, r3
 8002bda:	6813      	ldr	r3, [r2, #0]
 8002bdc:	4319      	orrs	r1, r3
 8002bde:	4b98      	ldr	r3, [pc, #608]	@ (8002e40 <LL_TIM_OC_Init+0x294>)
 8002be0:	401c      	ands	r4, r3
 8002be2:	6913      	ldr	r3, [r2, #16]
 8002be4:	021b      	lsls	r3, r3, #8
 8002be6:	4323      	orrs	r3, r4
 8002be8:	6854      	ldr	r4, [r2, #4]
 8002bea:	4033      	ands	r3, r6
 8002bec:	0224      	lsls	r4, r4, #8
 8002bee:	431c      	orrs	r4, r3
 8002bf0:	4b94      	ldr	r3, [pc, #592]	@ (8002e44 <LL_TIM_OC_Init+0x298>)
 8002bf2:	4298      	cmp	r0, r3
 8002bf4:	d100      	bne.n	8002bf8 <LL_TIM_OC_Init+0x4c>
 8002bf6:	e073      	b.n	8002ce0 <LL_TIM_OC_Init+0x134>
 8002bf8:	4b93      	ldr	r3, [pc, #588]	@ (8002e48 <LL_TIM_OC_Init+0x29c>)
 8002bfa:	4298      	cmp	r0, r3
 8002bfc:	d100      	bne.n	8002c00 <LL_TIM_OC_Init+0x54>
 8002bfe:	e06f      	b.n	8002ce0 <LL_TIM_OC_Init+0x134>
 8002c00:	4b92      	ldr	r3, [pc, #584]	@ (8002e4c <LL_TIM_OC_Init+0x2a0>)
 8002c02:	4298      	cmp	r0, r3
 8002c04:	d100      	bne.n	8002c08 <LL_TIM_OC_Init+0x5c>
 8002c06:	e06b      	b.n	8002ce0 <LL_TIM_OC_Init+0x134>
 8002c08:	68d3      	ldr	r3, [r2, #12]
 8002c0a:	6045      	str	r5, [r0, #4]
 8002c0c:	61c1      	str	r1, [r0, #28]
 8002c0e:	63c3      	str	r3, [r0, #60]	@ 0x3c
 8002c10:	6204      	str	r4, [r0, #32]
 8002c12:	2000      	movs	r0, #0
 8002c14:	e04f      	b.n	8002cb6 <LL_TIM_OC_Init+0x10a>
 8002c16:	2380      	movs	r3, #128	@ 0x80
 8002c18:	025b      	lsls	r3, r3, #9
 8002c1a:	4299      	cmp	r1, r3
 8002c1c:	d100      	bne.n	8002c20 <LL_TIM_OC_Init+0x74>
 8002c1e:	e07c      	b.n	8002d1a <LL_TIM_OC_Init+0x16e>
 8002c20:	2380      	movs	r3, #128	@ 0x80
 8002c22:	035b      	lsls	r3, r3, #13
 8002c24:	4299      	cmp	r1, r3
 8002c26:	d145      	bne.n	8002cb4 <LL_TIM_OC_Init+0x108>
 8002c28:	6a03      	ldr	r3, [r0, #32]
 8002c2a:	4d89      	ldr	r5, [pc, #548]	@ (8002e50 <LL_TIM_OC_Init+0x2a4>)
 8002c2c:	4c89      	ldr	r4, [pc, #548]	@ (8002e54 <LL_TIM_OC_Init+0x2a8>)
 8002c2e:	402b      	ands	r3, r5
 8002c30:	6203      	str	r3, [r0, #32]
 8002c32:	6a01      	ldr	r1, [r0, #32]
 8002c34:	6d43      	ldr	r3, [r0, #84]	@ 0x54
 8002c36:	4023      	ands	r3, r4
 8002c38:	6814      	ldr	r4, [r2, #0]
 8002c3a:	0224      	lsls	r4, r4, #8
 8002c3c:	431c      	orrs	r4, r3
 8002c3e:	4b86      	ldr	r3, [pc, #536]	@ (8002e58 <LL_TIM_OC_Init+0x2ac>)
 8002c40:	4019      	ands	r1, r3
 8002c42:	6913      	ldr	r3, [r2, #16]
 8002c44:	051b      	lsls	r3, r3, #20
 8002c46:	430b      	orrs	r3, r1
 8002c48:	6851      	ldr	r1, [r2, #4]
 8002c4a:	402b      	ands	r3, r5
 8002c4c:	0509      	lsls	r1, r1, #20
 8002c4e:	430b      	orrs	r3, r1
 8002c50:	497c      	ldr	r1, [pc, #496]	@ (8002e44 <LL_TIM_OC_Init+0x298>)
 8002c52:	4288      	cmp	r0, r1
 8002c54:	d059      	beq.n	8002d0a <LL_TIM_OC_Init+0x15e>
 8002c56:	497c      	ldr	r1, [pc, #496]	@ (8002e48 <LL_TIM_OC_Init+0x29c>)
 8002c58:	4288      	cmp	r0, r1
 8002c5a:	d056      	beq.n	8002d0a <LL_TIM_OC_Init+0x15e>
 8002c5c:	497b      	ldr	r1, [pc, #492]	@ (8002e4c <LL_TIM_OC_Init+0x2a0>)
 8002c5e:	4288      	cmp	r0, r1
 8002c60:	d053      	beq.n	8002d0a <LL_TIM_OC_Init+0x15e>
 8002c62:	68d2      	ldr	r2, [r2, #12]
 8002c64:	6544      	str	r4, [r0, #84]	@ 0x54
 8002c66:	65c2      	str	r2, [r0, #92]	@ 0x5c
 8002c68:	6203      	str	r3, [r0, #32]
 8002c6a:	2000      	movs	r0, #0
 8002c6c:	e023      	b.n	8002cb6 <LL_TIM_OC_Init+0x10a>
 8002c6e:	2901      	cmp	r1, #1
 8002c70:	d120      	bne.n	8002cb4 <LL_TIM_OC_Init+0x108>
 8002c72:	6a03      	ldr	r3, [r0, #32]
 8002c74:	4e71      	ldr	r6, [pc, #452]	@ (8002e3c <LL_TIM_OC_Init+0x290>)
 8002c76:	438b      	bics	r3, r1
 8002c78:	6203      	str	r3, [r0, #32]
 8002c7a:	6a03      	ldr	r3, [r0, #32]
 8002c7c:	6845      	ldr	r5, [r0, #4]
 8002c7e:	6984      	ldr	r4, [r0, #24]
 8002c80:	4034      	ands	r4, r6
 8002c82:	6816      	ldr	r6, [r2, #0]
 8002c84:	4334      	orrs	r4, r6
 8002c86:	2602      	movs	r6, #2
 8002c88:	43b3      	bics	r3, r6
 8002c8a:	6916      	ldr	r6, [r2, #16]
 8002c8c:	4333      	orrs	r3, r6
 8002c8e:	438b      	bics	r3, r1
 8002c90:	6851      	ldr	r1, [r2, #4]
 8002c92:	430b      	orrs	r3, r1
 8002c94:	496b      	ldr	r1, [pc, #428]	@ (8002e44 <LL_TIM_OC_Init+0x298>)
 8002c96:	4288      	cmp	r0, r1
 8002c98:	d00e      	beq.n	8002cb8 <LL_TIM_OC_Init+0x10c>
 8002c9a:	496b      	ldr	r1, [pc, #428]	@ (8002e48 <LL_TIM_OC_Init+0x29c>)
 8002c9c:	4288      	cmp	r0, r1
 8002c9e:	d00b      	beq.n	8002cb8 <LL_TIM_OC_Init+0x10c>
 8002ca0:	496a      	ldr	r1, [pc, #424]	@ (8002e4c <LL_TIM_OC_Init+0x2a0>)
 8002ca2:	4288      	cmp	r0, r1
 8002ca4:	d008      	beq.n	8002cb8 <LL_TIM_OC_Init+0x10c>
 8002ca6:	68d2      	ldr	r2, [r2, #12]
 8002ca8:	6045      	str	r5, [r0, #4]
 8002caa:	6184      	str	r4, [r0, #24]
 8002cac:	6342      	str	r2, [r0, #52]	@ 0x34
 8002cae:	6203      	str	r3, [r0, #32]
 8002cb0:	2000      	movs	r0, #0
 8002cb2:	e000      	b.n	8002cb6 <LL_TIM_OC_Init+0x10a>
 8002cb4:	2001      	movs	r0, #1
 8002cb6:	bd70      	pop	{r4, r5, r6, pc}
 8002cb8:	2108      	movs	r1, #8
 8002cba:	438b      	bics	r3, r1
 8002cbc:	6951      	ldr	r1, [r2, #20]
 8002cbe:	0089      	lsls	r1, r1, #2
 8002cc0:	4319      	orrs	r1, r3
 8002cc2:	2304      	movs	r3, #4
 8002cc4:	4399      	bics	r1, r3
 8002cc6:	6893      	ldr	r3, [r2, #8]
 8002cc8:	009b      	lsls	r3, r3, #2
 8002cca:	430b      	orrs	r3, r1
 8002ccc:	495a      	ldr	r1, [pc, #360]	@ (8002e38 <LL_TIM_OC_Init+0x28c>)
 8002cce:	4029      	ands	r1, r5
 8002cd0:	6995      	ldr	r5, [r2, #24]
 8002cd2:	4329      	orrs	r1, r5
 8002cd4:	4d5a      	ldr	r5, [pc, #360]	@ (8002e40 <LL_TIM_OC_Init+0x294>)
 8002cd6:	4029      	ands	r1, r5
 8002cd8:	69d5      	ldr	r5, [r2, #28]
 8002cda:	006d      	lsls	r5, r5, #1
 8002cdc:	430d      	orrs	r5, r1
 8002cde:	e7e2      	b.n	8002ca6 <LL_TIM_OC_Init+0xfa>
 8002ce0:	4b5e      	ldr	r3, [pc, #376]	@ (8002e5c <LL_TIM_OC_Init+0x2b0>)
 8002ce2:	401c      	ands	r4, r3
 8002ce4:	6953      	ldr	r3, [r2, #20]
 8002ce6:	029b      	lsls	r3, r3, #10
 8002ce8:	4323      	orrs	r3, r4
 8002cea:	4c5d      	ldr	r4, [pc, #372]	@ (8002e60 <LL_TIM_OC_Init+0x2b4>)
 8002cec:	4023      	ands	r3, r4
 8002cee:	6894      	ldr	r4, [r2, #8]
 8002cf0:	02a4      	lsls	r4, r4, #10
 8002cf2:	431c      	orrs	r4, r3
 8002cf4:	4b5b      	ldr	r3, [pc, #364]	@ (8002e64 <LL_TIM_OC_Init+0x2b8>)
 8002cf6:	401d      	ands	r5, r3
 8002cf8:	6993      	ldr	r3, [r2, #24]
 8002cfa:	011b      	lsls	r3, r3, #4
 8002cfc:	432b      	orrs	r3, r5
 8002cfe:	4d5a      	ldr	r5, [pc, #360]	@ (8002e68 <LL_TIM_OC_Init+0x2bc>)
 8002d00:	402b      	ands	r3, r5
 8002d02:	69d5      	ldr	r5, [r2, #28]
 8002d04:	016d      	lsls	r5, r5, #5
 8002d06:	431d      	orrs	r5, r3
 8002d08:	e77e      	b.n	8002c08 <LL_TIM_OC_Init+0x5c>
 8002d0a:	6845      	ldr	r5, [r0, #4]
 8002d0c:	6991      	ldr	r1, [r2, #24]
 8002d0e:	4e57      	ldr	r6, [pc, #348]	@ (8002e6c <LL_TIM_OC_Init+0x2c0>)
 8002d10:	0289      	lsls	r1, r1, #10
 8002d12:	4035      	ands	r5, r6
 8002d14:	4329      	orrs	r1, r5
 8002d16:	6041      	str	r1, [r0, #4]
 8002d18:	e7a3      	b.n	8002c62 <LL_TIM_OC_Init+0xb6>
 8002d1a:	6a03      	ldr	r3, [r0, #32]
 8002d1c:	4d54      	ldr	r5, [pc, #336]	@ (8002e70 <LL_TIM_OC_Init+0x2c4>)
 8002d1e:	4c55      	ldr	r4, [pc, #340]	@ (8002e74 <LL_TIM_OC_Init+0x2c8>)
 8002d20:	402b      	ands	r3, r5
 8002d22:	6203      	str	r3, [r0, #32]
 8002d24:	6a01      	ldr	r1, [r0, #32]
 8002d26:	6d43      	ldr	r3, [r0, #84]	@ 0x54
 8002d28:	4023      	ands	r3, r4
 8002d2a:	6814      	ldr	r4, [r2, #0]
 8002d2c:	431c      	orrs	r4, r3
 8002d2e:	4b52      	ldr	r3, [pc, #328]	@ (8002e78 <LL_TIM_OC_Init+0x2cc>)
 8002d30:	4019      	ands	r1, r3
 8002d32:	6913      	ldr	r3, [r2, #16]
 8002d34:	041b      	lsls	r3, r3, #16
 8002d36:	430b      	orrs	r3, r1
 8002d38:	6851      	ldr	r1, [r2, #4]
 8002d3a:	402b      	ands	r3, r5
 8002d3c:	0409      	lsls	r1, r1, #16
 8002d3e:	430b      	orrs	r3, r1
 8002d40:	4940      	ldr	r1, [pc, #256]	@ (8002e44 <LL_TIM_OC_Init+0x298>)
 8002d42:	4288      	cmp	r0, r1
 8002d44:	d00c      	beq.n	8002d60 <LL_TIM_OC_Init+0x1b4>
 8002d46:	4940      	ldr	r1, [pc, #256]	@ (8002e48 <LL_TIM_OC_Init+0x29c>)
 8002d48:	4288      	cmp	r0, r1
 8002d4a:	d009      	beq.n	8002d60 <LL_TIM_OC_Init+0x1b4>
 8002d4c:	493f      	ldr	r1, [pc, #252]	@ (8002e4c <LL_TIM_OC_Init+0x2a0>)
 8002d4e:	4288      	cmp	r0, r1
 8002d50:	d006      	beq.n	8002d60 <LL_TIM_OC_Init+0x1b4>
 8002d52:	68d2      	ldr	r2, [r2, #12]
 8002d54:	6544      	str	r4, [r0, #84]	@ 0x54
 8002d56:	6d81      	ldr	r1, [r0, #88]	@ 0x58
 8002d58:	6582      	str	r2, [r0, #88]	@ 0x58
 8002d5a:	6203      	str	r3, [r0, #32]
 8002d5c:	2000      	movs	r0, #0
 8002d5e:	e7aa      	b.n	8002cb6 <LL_TIM_OC_Init+0x10a>
 8002d60:	6845      	ldr	r5, [r0, #4]
 8002d62:	6991      	ldr	r1, [r2, #24]
 8002d64:	4e42      	ldr	r6, [pc, #264]	@ (8002e70 <LL_TIM_OC_Init+0x2c4>)
 8002d66:	0209      	lsls	r1, r1, #8
 8002d68:	4035      	ands	r5, r6
 8002d6a:	4329      	orrs	r1, r5
 8002d6c:	6041      	str	r1, [r0, #4]
 8002d6e:	e7f0      	b.n	8002d52 <LL_TIM_OC_Init+0x1a6>
 8002d70:	6a03      	ldr	r3, [r0, #32]
 8002d72:	4e3c      	ldr	r6, [pc, #240]	@ (8002e64 <LL_TIM_OC_Init+0x2b8>)
 8002d74:	4c41      	ldr	r4, [pc, #260]	@ (8002e7c <LL_TIM_OC_Init+0x2d0>)
 8002d76:	4033      	ands	r3, r6
 8002d78:	6203      	str	r3, [r0, #32]
 8002d7a:	6a01      	ldr	r1, [r0, #32]
 8002d7c:	6845      	ldr	r5, [r0, #4]
 8002d7e:	69c3      	ldr	r3, [r0, #28]
 8002d80:	4023      	ands	r3, r4
 8002d82:	6814      	ldr	r4, [r2, #0]
 8002d84:	0224      	lsls	r4, r4, #8
 8002d86:	431c      	orrs	r4, r3
 8002d88:	4b37      	ldr	r3, [pc, #220]	@ (8002e68 <LL_TIM_OC_Init+0x2bc>)
 8002d8a:	4019      	ands	r1, r3
 8002d8c:	6913      	ldr	r3, [r2, #16]
 8002d8e:	031b      	lsls	r3, r3, #12
 8002d90:	430b      	orrs	r3, r1
 8002d92:	6851      	ldr	r1, [r2, #4]
 8002d94:	4033      	ands	r3, r6
 8002d96:	0309      	lsls	r1, r1, #12
 8002d98:	430b      	orrs	r3, r1
 8002d9a:	492a      	ldr	r1, [pc, #168]	@ (8002e44 <LL_TIM_OC_Init+0x298>)
 8002d9c:	4288      	cmp	r0, r1
 8002d9e:	d00c      	beq.n	8002dba <LL_TIM_OC_Init+0x20e>
 8002da0:	4929      	ldr	r1, [pc, #164]	@ (8002e48 <LL_TIM_OC_Init+0x29c>)
 8002da2:	4288      	cmp	r0, r1
 8002da4:	d009      	beq.n	8002dba <LL_TIM_OC_Init+0x20e>
 8002da6:	4929      	ldr	r1, [pc, #164]	@ (8002e4c <LL_TIM_OC_Init+0x2a0>)
 8002da8:	4288      	cmp	r0, r1
 8002daa:	d006      	beq.n	8002dba <LL_TIM_OC_Init+0x20e>
 8002dac:	68d2      	ldr	r2, [r2, #12]
 8002dae:	6045      	str	r5, [r0, #4]
 8002db0:	61c4      	str	r4, [r0, #28]
 8002db2:	6402      	str	r2, [r0, #64]	@ 0x40
 8002db4:	6203      	str	r3, [r0, #32]
 8002db6:	2000      	movs	r0, #0
 8002db8:	e77d      	b.n	8002cb6 <LL_TIM_OC_Init+0x10a>
 8002dba:	4931      	ldr	r1, [pc, #196]	@ (8002e80 <LL_TIM_OC_Init+0x2d4>)
 8002dbc:	4029      	ands	r1, r5
 8002dbe:	6995      	ldr	r5, [r2, #24]
 8002dc0:	01ad      	lsls	r5, r5, #6
 8002dc2:	430d      	orrs	r5, r1
 8002dc4:	e7f2      	b.n	8002dac <LL_TIM_OC_Init+0x200>
 8002dc6:	6a03      	ldr	r3, [r0, #32]
 8002dc8:	4c2c      	ldr	r4, [pc, #176]	@ (8002e7c <LL_TIM_OC_Init+0x2d0>)
 8002dca:	438b      	bics	r3, r1
 8002dcc:	6203      	str	r3, [r0, #32]
 8002dce:	6a06      	ldr	r6, [r0, #32]
 8002dd0:	6845      	ldr	r5, [r0, #4]
 8002dd2:	6983      	ldr	r3, [r0, #24]
 8002dd4:	4023      	ands	r3, r4
 8002dd6:	6814      	ldr	r4, [r2, #0]
 8002dd8:	0224      	lsls	r4, r4, #8
 8002dda:	431c      	orrs	r4, r3
 8002ddc:	2320      	movs	r3, #32
 8002dde:	439e      	bics	r6, r3
 8002de0:	6913      	ldr	r3, [r2, #16]
 8002de2:	011b      	lsls	r3, r3, #4
 8002de4:	4333      	orrs	r3, r6
 8002de6:	438b      	bics	r3, r1
 8002de8:	6851      	ldr	r1, [r2, #4]
 8002dea:	0109      	lsls	r1, r1, #4
 8002dec:	4319      	orrs	r1, r3
 8002dee:	4b15      	ldr	r3, [pc, #84]	@ (8002e44 <LL_TIM_OC_Init+0x298>)
 8002df0:	4298      	cmp	r0, r3
 8002df2:	d00c      	beq.n	8002e0e <LL_TIM_OC_Init+0x262>
 8002df4:	4b14      	ldr	r3, [pc, #80]	@ (8002e48 <LL_TIM_OC_Init+0x29c>)
 8002df6:	4298      	cmp	r0, r3
 8002df8:	d009      	beq.n	8002e0e <LL_TIM_OC_Init+0x262>
 8002dfa:	4b14      	ldr	r3, [pc, #80]	@ (8002e4c <LL_TIM_OC_Init+0x2a0>)
 8002dfc:	4298      	cmp	r0, r3
 8002dfe:	d006      	beq.n	8002e0e <LL_TIM_OC_Init+0x262>
 8002e00:	68d3      	ldr	r3, [r2, #12]
 8002e02:	6045      	str	r5, [r0, #4]
 8002e04:	6184      	str	r4, [r0, #24]
 8002e06:	6383      	str	r3, [r0, #56]	@ 0x38
 8002e08:	6201      	str	r1, [r0, #32]
 8002e0a:	2000      	movs	r0, #0
 8002e0c:	e753      	b.n	8002cb6 <LL_TIM_OC_Init+0x10a>
 8002e0e:	2380      	movs	r3, #128	@ 0x80
 8002e10:	4399      	bics	r1, r3
 8002e12:	6953      	ldr	r3, [r2, #20]
 8002e14:	019b      	lsls	r3, r3, #6
 8002e16:	430b      	orrs	r3, r1
 8002e18:	2140      	movs	r1, #64	@ 0x40
 8002e1a:	438b      	bics	r3, r1
 8002e1c:	6891      	ldr	r1, [r2, #8]
 8002e1e:	0189      	lsls	r1, r1, #6
 8002e20:	4319      	orrs	r1, r3
 8002e22:	4b0f      	ldr	r3, [pc, #60]	@ (8002e60 <LL_TIM_OC_Init+0x2b4>)
 8002e24:	401d      	ands	r5, r3
 8002e26:	6993      	ldr	r3, [r2, #24]
 8002e28:	009b      	lsls	r3, r3, #2
 8002e2a:	432b      	orrs	r3, r5
 8002e2c:	4d0b      	ldr	r5, [pc, #44]	@ (8002e5c <LL_TIM_OC_Init+0x2b0>)
 8002e2e:	402b      	ands	r3, r5
 8002e30:	69d5      	ldr	r5, [r2, #28]
 8002e32:	00ed      	lsls	r5, r5, #3
 8002e34:	431d      	orrs	r5, r3
 8002e36:	e7e3      	b.n	8002e00 <LL_TIM_OC_Init+0x254>
 8002e38:	fffffeff 	.word	0xfffffeff
 8002e3c:	fffeff8c 	.word	0xfffeff8c
 8002e40:	fffffdff 	.word	0xfffffdff
 8002e44:	40012c00 	.word	0x40012c00
 8002e48:	40014400 	.word	0x40014400
 8002e4c:	40014800 	.word	0x40014800
 8002e50:	ffefffff 	.word	0xffefffff
 8002e54:	feff8fff 	.word	0xfeff8fff
 8002e58:	ffdfffff 	.word	0xffdfffff
 8002e5c:	fffff7ff 	.word	0xfffff7ff
 8002e60:	fffffbff 	.word	0xfffffbff
 8002e64:	ffffefff 	.word	0xffffefff
 8002e68:	ffffdfff 	.word	0xffffdfff
 8002e6c:	fffbffff 	.word	0xfffbffff
 8002e70:	fffeffff 	.word	0xfffeffff
 8002e74:	fffeff8f 	.word	0xfffeff8f
 8002e78:	fffdffff 	.word	0xfffdffff
 8002e7c:	feff8cff 	.word	0xfeff8cff
 8002e80:	ffffbfff 	.word	0xffffbfff

08002e84 <LL_TIM_BDTR_Init>:
 8002e84:	688b      	ldr	r3, [r1, #8]
 8002e86:	7b0a      	ldrb	r2, [r1, #12]
 8002e88:	431a      	orrs	r2, r3
 8002e8a:	4b19      	ldr	r3, [pc, #100]	@ (8002ef0 <LL_TIM_BDTR_Init+0x6c>)
 8002e8c:	401a      	ands	r2, r3
 8002e8e:	684b      	ldr	r3, [r1, #4]
 8002e90:	431a      	orrs	r2, r3
 8002e92:	4b18      	ldr	r3, [pc, #96]	@ (8002ef4 <LL_TIM_BDTR_Init+0x70>)
 8002e94:	401a      	ands	r2, r3
 8002e96:	680b      	ldr	r3, [r1, #0]
 8002e98:	431a      	orrs	r2, r3
 8002e9a:	4b17      	ldr	r3, [pc, #92]	@ (8002ef8 <LL_TIM_BDTR_Init+0x74>)
 8002e9c:	401a      	ands	r2, r3
 8002e9e:	89cb      	ldrh	r3, [r1, #14]
 8002ea0:	4313      	orrs	r3, r2
 8002ea2:	4a16      	ldr	r2, [pc, #88]	@ (8002efc <LL_TIM_BDTR_Init+0x78>)
 8002ea4:	4013      	ands	r3, r2
 8002ea6:	690a      	ldr	r2, [r1, #16]
 8002ea8:	4313      	orrs	r3, r2
 8002eaa:	4a15      	ldr	r2, [pc, #84]	@ (8002f00 <LL_TIM_BDTR_Init+0x7c>)
 8002eac:	4013      	ands	r3, r2
 8002eae:	6aca      	ldr	r2, [r1, #44]	@ 0x2c
 8002eb0:	4313      	orrs	r3, r2
 8002eb2:	4a14      	ldr	r2, [pc, #80]	@ (8002f04 <LL_TIM_BDTR_Init+0x80>)
 8002eb4:	4290      	cmp	r0, r2
 8002eb6:	d002      	beq.n	8002ebe <LL_TIM_BDTR_Init+0x3a>
 8002eb8:	6443      	str	r3, [r0, #68]	@ 0x44
 8002eba:	2000      	movs	r0, #0
 8002ebc:	4770      	bx	lr
 8002ebe:	4a12      	ldr	r2, [pc, #72]	@ (8002f08 <LL_TIM_BDTR_Init+0x84>)
 8002ec0:	4013      	ands	r3, r2
 8002ec2:	694a      	ldr	r2, [r1, #20]
 8002ec4:	4313      	orrs	r3, r2
 8002ec6:	4a11      	ldr	r2, [pc, #68]	@ (8002f0c <LL_TIM_BDTR_Init+0x88>)
 8002ec8:	4013      	ands	r3, r2
 8002eca:	698a      	ldr	r2, [r1, #24]
 8002ecc:	4313      	orrs	r3, r2
 8002ece:	4a10      	ldr	r2, [pc, #64]	@ (8002f10 <LL_TIM_BDTR_Init+0x8c>)
 8002ed0:	4013      	ands	r3, r2
 8002ed2:	6a4a      	ldr	r2, [r1, #36]	@ 0x24
 8002ed4:	4313      	orrs	r3, r2
 8002ed6:	4a0f      	ldr	r2, [pc, #60]	@ (8002f14 <LL_TIM_BDTR_Init+0x90>)
 8002ed8:	4013      	ands	r3, r2
 8002eda:	69ca      	ldr	r2, [r1, #28]
 8002edc:	4313      	orrs	r3, r2
 8002ede:	4a0e      	ldr	r2, [pc, #56]	@ (8002f18 <LL_TIM_BDTR_Init+0x94>)
 8002ee0:	4013      	ands	r3, r2
 8002ee2:	6a0a      	ldr	r2, [r1, #32]
 8002ee4:	4313      	orrs	r3, r2
 8002ee6:	4a0d      	ldr	r2, [pc, #52]	@ (8002f1c <LL_TIM_BDTR_Init+0x98>)
 8002ee8:	4013      	ands	r3, r2
 8002eea:	6a8a      	ldr	r2, [r1, #40]	@ 0x28
 8002eec:	4313      	orrs	r3, r2
 8002eee:	e7e3      	b.n	8002eb8 <LL_TIM_BDTR_Init+0x34>
 8002ef0:	fffffbff 	.word	0xfffffbff
 8002ef4:	fffff7ff 	.word	0xfffff7ff
 8002ef8:	ffffefff 	.word	0xffffefff
 8002efc:	ffffdfff 	.word	0xffffdfff
 8002f00:	ffff3fff 	.word	0xffff3fff
 8002f04:	40012c00 	.word	0x40012c00
 8002f08:	fff0ffff 	.word	0xfff0ffff
 8002f0c:	efffffff 	.word	0xefffffff
 8002f10:	ff0fffff 	.word	0xff0fffff
 8002f14:	feffffff 	.word	0xfeffffff
 8002f18:	fdffffff 	.word	0xfdffffff
 8002f1c:	dfffffff 	.word	0xdfffffff

08002f20 <LL_Init1msTick>:
 8002f20:	21fa      	movs	r1, #250	@ 0xfa
 8002f22:	b510      	push	{r4, lr}
 8002f24:	0089      	lsls	r1, r1, #2
 8002f26:	f7fd f8f5 	bl	8000114 <__udivsi3>
 8002f2a:	2200      	movs	r2, #0
 8002f2c:	4b03      	ldr	r3, [pc, #12]	@ (8002f3c <LL_Init1msTick+0x1c>)
 8002f2e:	3801      	subs	r0, #1
 8002f30:	6058      	str	r0, [r3, #4]
 8002f32:	609a      	str	r2, [r3, #8]
 8002f34:	3205      	adds	r2, #5
 8002f36:	601a      	str	r2, [r3, #0]
 8002f38:	bd10      	pop	{r4, pc}
 8002f3a:	46c0      	nop			@ (mov r8, r8)
 8002f3c:	e000e010 	.word	0xe000e010

08002f40 <LL_mDelay>:
 8002f40:	4a09      	ldr	r2, [pc, #36]	@ (8002f68 <LL_mDelay+0x28>)
 8002f42:	b082      	sub	sp, #8
 8002f44:	6813      	ldr	r3, [r2, #0]
 8002f46:	9301      	str	r3, [sp, #4]
 8002f48:	9b01      	ldr	r3, [sp, #4]
 8002f4a:	1c43      	adds	r3, r0, #1
 8002f4c:	1e59      	subs	r1, r3, #1
 8002f4e:	418b      	sbcs	r3, r1
 8002f50:	2180      	movs	r1, #128	@ 0x80
 8002f52:	18c0      	adds	r0, r0, r3
 8002f54:	0249      	lsls	r1, r1, #9
 8002f56:	6813      	ldr	r3, [r2, #0]
 8002f58:	420b      	tst	r3, r1
 8002f5a:	d0fc      	beq.n	8002f56 <LL_mDelay+0x16>
 8002f5c:	3801      	subs	r0, #1
 8002f5e:	2800      	cmp	r0, #0
 8002f60:	d1f9      	bne.n	8002f56 <LL_mDelay+0x16>
 8002f62:	b002      	add	sp, #8
 8002f64:	4770      	bx	lr
 8002f66:	46c0      	nop			@ (mov r8, r8)
 8002f68:	e000e010 	.word	0xe000e010

08002f6c <LL_SetSystemCoreClock>:
 8002f6c:	4b01      	ldr	r3, [pc, #4]	@ (8002f74 <LL_SetSystemCoreClock+0x8>)
 8002f6e:	6018      	str	r0, [r3, #0]
 8002f70:	4770      	bx	lr
 8002f72:	46c0      	nop			@ (mov r8, r8)
 8002f74:	20000000 	.word	0x20000000

08002f78 <EncoderInit>:
 8002f78:	b5f8      	push	{r3, r4, r5, r6, r7, lr}
 8002f7a:	0004      	movs	r4, r0
 8002f7c:	001d      	movs	r5, r3
 8002f7e:	000f      	movs	r7, r1
 8002f80:	0016      	movs	r6, r2
 8002f82:	2100      	movs	r1, #0
 8002f84:	2218      	movs	r2, #24
 8002f86:	3018      	adds	r0, #24
 8002f88:	f003 fb6a 	bl	8006660 <memset>
 8002f8c:	9b06      	ldr	r3, [sp, #24]
 8002f8e:	6027      	str	r7, [r4, #0]
 8002f90:	60e3      	str	r3, [r4, #12]
 8002f92:	9b07      	ldr	r3, [sp, #28]
 8002f94:	6066      	str	r6, [r4, #4]
 8002f96:	6123      	str	r3, [r4, #16]
 8002f98:	9b08      	ldr	r3, [sp, #32]
 8002f9a:	60a5      	str	r5, [r4, #8]
 8002f9c:	6163      	str	r3, [r4, #20]
 8002f9e:	bdf8      	pop	{r3, r4, r5, r6, r7, pc}

08002fa0 <EncoderUpdate>:
 8002fa0:	0003      	movs	r3, r0
 8002fa2:	6802      	ldr	r2, [r0, #0]
 8002fa4:	b570      	push	{r4, r5, r6, lr}
 8002fa6:	6910      	ldr	r0, [r2, #16]
 8002fa8:	685a      	ldr	r2, [r3, #4]
 8002faa:	68dc      	ldr	r4, [r3, #12]
 8002fac:	4002      	ands	r2, r0
 8002fae:	4250      	negs	r0, r2
 8002fb0:	4142      	adcs	r2, r0
 8002fb2:	6898      	ldr	r0, [r3, #8]
 8002fb4:	b2d2      	uxtb	r2, r2
 8002fb6:	6900      	ldr	r0, [r0, #16]
 8002fb8:	4204      	tst	r4, r0
 8002fba:	d101      	bne.n	8002fc0 <EncoderUpdate+0x20>
 8002fbc:	2002      	movs	r0, #2
 8002fbe:	4302      	orrs	r2, r0
 8002fc0:	6918      	ldr	r0, [r3, #16]
 8002fc2:	695d      	ldr	r5, [r3, #20]
 8002fc4:	6900      	ldr	r0, [r0, #16]
 8002fc6:	0014      	movs	r4, r2
 8002fc8:	4205      	tst	r5, r0
 8002fca:	d101      	bne.n	8002fd0 <EncoderUpdate+0x30>
 8002fcc:	2404      	movs	r4, #4
 8002fce:	4314      	orrs	r4, r2
 8002fd0:	202c      	movs	r0, #44	@ 0x2c
 8002fd2:	5c1d      	ldrb	r5, [r3, r0]
 8002fd4:	2d10      	cmp	r5, #16
 8002fd6:	d01f      	beq.n	8003018 <EncoderUpdate+0x78>
 8002fd8:	5c18      	ldrb	r0, [r3, r0]
 8002fda:	2820      	cmp	r0, #32
 8002fdc:	d01c      	beq.n	8003018 <EncoderUpdate+0x78>
 8002fde:	1e48      	subs	r0, r1, #1
 8002fe0:	2801      	cmp	r0, #1
 8002fe2:	d91e      	bls.n	8003022 <EncoderUpdate+0x82>
 8002fe4:	2903      	cmp	r1, #3
 8002fe6:	d113      	bne.n	8003010 <EncoderUpdate+0x70>
 8002fe8:	4a36      	ldr	r2, [pc, #216]	@ (80030c4 <EncoderUpdate+0x124>)
 8002fea:	6a19      	ldr	r1, [r3, #32]
 8002fec:	6812      	ldr	r2, [r2, #0]
 8002fee:	4291      	cmp	r1, r2
 8002ff0:	d80e      	bhi.n	8003010 <EncoderUpdate+0x70>
 8002ff2:	2004      	movs	r0, #4
 8002ff4:	7e19      	ldrb	r1, [r3, #24]
 8002ff6:	4004      	ands	r4, r0
 8002ff8:	2900      	cmp	r1, #0
 8002ffa:	d14e      	bne.n	800309a <EncoderUpdate+0xfa>
 8002ffc:	7e19      	ldrb	r1, [r3, #24]
 8002ffe:	2900      	cmp	r1, #0
 8003000:	d106      	bne.n	8003010 <EncoderUpdate+0x70>
 8003002:	2c00      	cmp	r4, #0
 8003004:	d004      	beq.n	8003010 <EncoderUpdate+0x70>
 8003006:	2101      	movs	r1, #1
 8003008:	7619      	strb	r1, [r3, #24]
 800300a:	61da      	str	r2, [r3, #28]
 800300c:	3232      	adds	r2, #50	@ 0x32
 800300e:	621a      	str	r2, [r3, #32]
 8003010:	2000      	movs	r0, #0
 8003012:	222c      	movs	r2, #44	@ 0x2c
 8003014:	5498      	strb	r0, [r3, r2]
 8003016:	bd70      	pop	{r4, r5, r6, pc}
 8003018:	2903      	cmp	r1, #3
 800301a:	d032      	beq.n	8003082 <EncoderUpdate+0xe2>
 800301c:	3901      	subs	r1, #1
 800301e:	2901      	cmp	r1, #1
 8003020:	d8f6      	bhi.n	8003010 <EncoderUpdate+0x70>
 8003022:	2124      	movs	r1, #36	@ 0x24
 8003024:	5c58      	ldrb	r0, [r3, r1]
 8003026:	1e41      	subs	r1, r0, #1
 8003028:	4188      	sbcs	r0, r1
 800302a:	2101      	movs	r1, #1
 800302c:	4240      	negs	r0, r0
 800302e:	4301      	orrs	r1, r0
 8003030:	2025      	movs	r0, #37	@ 0x25
 8003032:	5c1d      	ldrb	r5, [r3, r0]
 8003034:	00ad      	lsls	r5, r5, #2
 8003036:	b2ed      	uxtb	r5, r5
 8003038:	541d      	strb	r5, [r3, r0]
 800303a:	5c1d      	ldrb	r5, [r3, r0]
 800303c:	432a      	orrs	r2, r5
 800303e:	541a      	strb	r2, [r3, r0]
 8003040:	220f      	movs	r2, #15
 8003042:	5c1e      	ldrb	r6, [r3, r0]
 8003044:	4820      	ldr	r0, [pc, #128]	@ (80030c8 <EncoderUpdate+0x128>)
 8003046:	4032      	ands	r2, r6
 8003048:	5682      	ldrsb	r2, [r0, r2]
 800304a:	6a9d      	ldr	r5, [r3, #40]	@ 0x28
 800304c:	4351      	muls	r1, r2
 800304e:	1949      	adds	r1, r1, r5
 8003050:	6299      	str	r1, [r3, #40]	@ 0x28
 8003052:	6a9a      	ldr	r2, [r3, #40]	@ 0x28
 8003054:	2a03      	cmp	r2, #3
 8003056:	dd0a      	ble.n	800306e <EncoderUpdate+0xce>
 8003058:	2001      	movs	r0, #1
 800305a:	0764      	lsls	r4, r4, #29
 800305c:	d502      	bpl.n	8003064 <EncoderUpdate+0xc4>
 800305e:	2200      	movs	r2, #0
 8003060:	300f      	adds	r0, #15
 8003062:	761a      	strb	r2, [r3, #24]
 8003064:	2200      	movs	r2, #0
 8003066:	2125      	movs	r1, #37	@ 0x25
 8003068:	629a      	str	r2, [r3, #40]	@ 0x28
 800306a:	545a      	strb	r2, [r3, r1]
 800306c:	e7d1      	b.n	8003012 <EncoderUpdate+0x72>
 800306e:	6a9a      	ldr	r2, [r3, #40]	@ 0x28
 8003070:	3203      	adds	r2, #3
 8003072:	dacd      	bge.n	8003010 <EncoderUpdate+0x70>
 8003074:	2002      	movs	r0, #2
 8003076:	0764      	lsls	r4, r4, #29
 8003078:	d5f4      	bpl.n	8003064 <EncoderUpdate+0xc4>
 800307a:	2200      	movs	r2, #0
 800307c:	301e      	adds	r0, #30
 800307e:	761a      	strb	r2, [r3, #24]
 8003080:	e7f0      	b.n	8003064 <EncoderUpdate+0xc4>
 8003082:	4812      	ldr	r0, [pc, #72]	@ (80030cc <EncoderUpdate+0x12c>)
 8003084:	2100      	movs	r1, #0
 8003086:	4684      	mov	ip, r0
 8003088:	4a0e      	ldr	r2, [pc, #56]	@ (80030c4 <EncoderUpdate+0x124>)
 800308a:	7619      	strb	r1, [r3, #24]
 800308c:	6812      	ldr	r2, [r2, #0]
 800308e:	2000      	movs	r0, #0
 8003090:	4462      	add	r2, ip
 8003092:	621a      	str	r2, [r3, #32]
 8003094:	222c      	movs	r2, #44	@ 0x2c
 8003096:	5499      	strb	r1, [r3, r2]
 8003098:	e7bd      	b.n	8003016 <EncoderUpdate+0x76>
 800309a:	2c00      	cmp	r4, #0
 800309c:	d10d      	bne.n	80030ba <EncoderUpdate+0x11a>
 800309e:	0011      	movs	r1, r2
 80030a0:	3132      	adds	r1, #50	@ 0x32
 80030a2:	761c      	strb	r4, [r3, #24]
 80030a4:	6219      	str	r1, [r3, #32]
 80030a6:	69d9      	ldr	r1, [r3, #28]
 80030a8:	1a52      	subs	r2, r2, r1
 80030aa:	21fa      	movs	r1, #250	@ 0xfa
 80030ac:	00c9      	lsls	r1, r1, #3
 80030ae:	428a      	cmp	r2, r1
 80030b0:	4164      	adcs	r4, r4
 80030b2:	4264      	negs	r4, r4
 80030b4:	4020      	ands	r0, r4
 80030b6:	3004      	adds	r0, #4
 80030b8:	e7ab      	b.n	8003012 <EncoderUpdate+0x72>
 80030ba:	7e19      	ldrb	r1, [r3, #24]
 80030bc:	2900      	cmp	r1, #0
 80030be:	d0a2      	beq.n	8003006 <EncoderUpdate+0x66>
 80030c0:	e7a6      	b.n	8003010 <EncoderUpdate+0x70>
 80030c2:	46c0      	nop			@ (mov r8, r8)
 80030c4:	20000370 	.word	0x20000370
 80030c8:	08007720 	.word	0x08007720
 80030cc:	00000bb8 	.word	0x00000bb8

080030d0 <EncoderSetInversion>:
 80030d0:	2324      	movs	r3, #36	@ 0x24
 80030d2:	54c1      	strb	r1, [r0, r3]
 80030d4:	4770      	bx	lr
 80030d6:	46c0      	nop			@ (mov r8, r8)

080030d8 <disk_status>:
 80030d8:	b510      	push	{r4, lr}
 80030da:	f002 f95b 	bl	8005394 <USER_SPI_status>
 80030de:	bd10      	pop	{r4, pc}

080030e0 <disk_initialize>:
 80030e0:	b510      	push	{r4, lr}
 80030e2:	f002 f851 	bl	8005188 <USER_SPI_initialize>
 80030e6:	bd10      	pop	{r4, pc}

080030e8 <disk_read>:
 80030e8:	b570      	push	{r4, r5, r6, lr}
 80030ea:	24a0      	movs	r4, #160	@ 0xa0
 80030ec:	2580      	movs	r5, #128	@ 0x80
 80030ee:	05e4      	lsls	r4, r4, #23
 80030f0:	036d      	lsls	r5, r5, #13
 80030f2:	61a5      	str	r5, [r4, #24]
 80030f4:	f002 f954 	bl	80053a0 <USER_SPI_read>
 80030f8:	2310      	movs	r3, #16
 80030fa:	61a3      	str	r3, [r4, #24]
 80030fc:	bd70      	pop	{r4, r5, r6, pc}
 80030fe:	46c0      	nop			@ (mov r8, r8)

08003100 <get_fileinfo>:
 8003100:	b5f8      	push	{r3, r4, r5, r6, r7, lr}
 8003102:	6803      	ldr	r3, [r0, #0]
 8003104:	464e      	mov	r6, r9
 8003106:	4645      	mov	r5, r8
 8003108:	46de      	mov	lr, fp
 800310a:	4657      	mov	r7, sl
 800310c:	4699      	mov	r9, r3
 800310e:	2300      	movs	r3, #0
 8003110:	b5e0      	push	{r5, r6, r7, lr}
 8003112:	758b      	strb	r3, [r1, #22]
 8003114:	6983      	ldr	r3, [r0, #24]
 8003116:	4680      	mov	r8, r0
 8003118:	000c      	movs	r4, r1
 800311a:	2b00      	cmp	r3, #0
 800311c:	d100      	bne.n	8003120 <get_fileinfo+0x20>
 800311e:	e0bf      	b.n	80032a0 <get_fileinfo+0x1a0>
 8003120:	6ac3      	ldr	r3, [r0, #44]	@ 0x2c
 8003122:	3301      	adds	r3, #1
 8003124:	d100      	bne.n	8003128 <get_fileinfo+0x28>
 8003126:	e0c1      	b.n	80032ac <get_fileinfo+0x1ac>
 8003128:	464b      	mov	r3, r9
 800312a:	68d9      	ldr	r1, [r3, #12]
 800312c:	880a      	ldrh	r2, [r1, #0]
 800312e:	2a00      	cmp	r2, #0
 8003130:	d022      	beq.n	8003178 <get_fileinfo+0x78>
 8003132:	2328      	movs	r3, #40	@ 0x28
 8003134:	2502      	movs	r5, #2
 8003136:	2600      	movs	r6, #0
 8003138:	2700      	movs	r7, #0
 800313a:	469a      	mov	sl, r3
 800313c:	2e00      	cmp	r6, #0
 800313e:	d108      	bne.n	8003152 <get_fileinfo+0x52>
 8003140:	23a0      	movs	r3, #160	@ 0xa0
 8003142:	2080      	movs	r0, #128	@ 0x80
 8003144:	019b      	lsls	r3, r3, #6
 8003146:	18d3      	adds	r3, r2, r3
 8003148:	b29b      	uxth	r3, r3
 800314a:	0100      	lsls	r0, r0, #4
 800314c:	4283      	cmp	r3, r0
 800314e:	d200      	bcs.n	8003152 <get_fileinfo+0x52>
 8003150:	e0ca      	b.n	80032e8 <get_fileinfo+0x1e8>
 8003152:	4653      	mov	r3, sl
 8003154:	0430      	lsls	r0, r6, #16
 8003156:	1bdb      	subs	r3, r3, r7
 8003158:	4988      	ldr	r1, [pc, #544]	@ (800337c <get_fileinfo+0x27c>)
 800315a:	4310      	orrs	r0, r2
 800315c:	469b      	mov	fp, r3
 800315e:	f001 fd9d 	bl	8004c9c <ff_uni2oem>
 8003162:	28ff      	cmp	r0, #255	@ 0xff
 8003164:	d800      	bhi.n	8003168 <get_fileinfo+0x68>
 8003166:	e0aa      	b.n	80032be <get_fileinfo+0x1be>
 8003168:	465b      	mov	r3, fp
 800316a:	2b01      	cmp	r3, #1
 800316c:	d900      	bls.n	8003170 <get_fileinfo+0x70>
 800316e:	e0bd      	b.n	80032ec <get_fileinfo+0x1ec>
 8003170:	2300      	movs	r3, #0
 8003172:	469b      	mov	fp, r3
 8003174:	2e00      	cmp	r6, #0
 8003176:	d001      	beq.n	800317c <get_fileinfo+0x7c>
 8003178:	2300      	movs	r3, #0
 800317a:	469b      	mov	fp, r3
 800317c:	465b      	mov	r3, fp
 800317e:	2200      	movs	r2, #0
 8003180:	18e3      	adds	r3, r4, r3
 8003182:	759a      	strb	r2, [r3, #22]
 8003184:	4643      	mov	r3, r8
 8003186:	69db      	ldr	r3, [r3, #28]
 8003188:	7da0      	ldrb	r0, [r4, #22]
 800318a:	781a      	ldrb	r2, [r3, #0]
 800318c:	2a20      	cmp	r2, #32
 800318e:	d100      	bne.n	8003192 <get_fileinfo+0x92>
 8003190:	e093      	b.n	80032ba <get_fileinfo+0x1ba>
 8003192:	2a05      	cmp	r2, #5
 8003194:	d100      	bne.n	8003198 <get_fileinfo+0x98>
 8003196:	32e0      	adds	r2, #224	@ 0xe0
 8003198:	2101      	movs	r1, #1
 800319a:	7262      	strb	r2, [r4, #9]
 800319c:	785d      	ldrb	r5, [r3, #1]
 800319e:	000a      	movs	r2, r1
 80031a0:	2d20      	cmp	r5, #32
 80031a2:	d005      	beq.n	80031b0 <get_fileinfo+0xb0>
 80031a4:	2d05      	cmp	r5, #5
 80031a6:	d100      	bne.n	80031aa <get_fileinfo+0xaa>
 80031a8:	35e0      	adds	r5, #224	@ 0xe0
 80031aa:	1c4a      	adds	r2, r1, #1
 80031ac:	1861      	adds	r1, r4, r1
 80031ae:	724d      	strb	r5, [r1, #9]
 80031b0:	789d      	ldrb	r5, [r3, #2]
 80031b2:	0011      	movs	r1, r2
 80031b4:	2d20      	cmp	r5, #32
 80031b6:	d005      	beq.n	80031c4 <get_fileinfo+0xc4>
 80031b8:	2d05      	cmp	r5, #5
 80031ba:	d100      	bne.n	80031be <get_fileinfo+0xbe>
 80031bc:	35e0      	adds	r5, #224	@ 0xe0
 80031be:	1c51      	adds	r1, r2, #1
 80031c0:	18a2      	adds	r2, r4, r2
 80031c2:	7255      	strb	r5, [r2, #9]
 80031c4:	78dd      	ldrb	r5, [r3, #3]
 80031c6:	000a      	movs	r2, r1
 80031c8:	2d20      	cmp	r5, #32
 80031ca:	d005      	beq.n	80031d8 <get_fileinfo+0xd8>
 80031cc:	2d05      	cmp	r5, #5
 80031ce:	d100      	bne.n	80031d2 <get_fileinfo+0xd2>
 80031d0:	35e0      	adds	r5, #224	@ 0xe0
 80031d2:	1c4a      	adds	r2, r1, #1
 80031d4:	1861      	adds	r1, r4, r1
 80031d6:	724d      	strb	r5, [r1, #9]
 80031d8:	791d      	ldrb	r5, [r3, #4]
 80031da:	0011      	movs	r1, r2
 80031dc:	2d20      	cmp	r5, #32
 80031de:	d005      	beq.n	80031ec <get_fileinfo+0xec>
 80031e0:	2d05      	cmp	r5, #5
 80031e2:	d100      	bne.n	80031e6 <get_fileinfo+0xe6>
 80031e4:	35e0      	adds	r5, #224	@ 0xe0
 80031e6:	1c51      	adds	r1, r2, #1
 80031e8:	18a2      	adds	r2, r4, r2
 80031ea:	7255      	strb	r5, [r2, #9]
 80031ec:	795d      	ldrb	r5, [r3, #5]
 80031ee:	000a      	movs	r2, r1
 80031f0:	2d20      	cmp	r5, #32
 80031f2:	d005      	beq.n	8003200 <get_fileinfo+0x100>
 80031f4:	2d05      	cmp	r5, #5
 80031f6:	d100      	bne.n	80031fa <get_fileinfo+0xfa>
 80031f8:	35e0      	adds	r5, #224	@ 0xe0
 80031fa:	1c4a      	adds	r2, r1, #1
 80031fc:	1861      	adds	r1, r4, r1
 80031fe:	724d      	strb	r5, [r1, #9]
 8003200:	799d      	ldrb	r5, [r3, #6]
 8003202:	0011      	movs	r1, r2
 8003204:	2d20      	cmp	r5, #32
 8003206:	d005      	beq.n	8003214 <get_fileinfo+0x114>
 8003208:	2d05      	cmp	r5, #5
 800320a:	d100      	bne.n	800320e <get_fileinfo+0x10e>
 800320c:	35e0      	adds	r5, #224	@ 0xe0
 800320e:	1c51      	adds	r1, r2, #1
 8003210:	18a2      	adds	r2, r4, r2
 8003212:	7255      	strb	r5, [r2, #9]
 8003214:	79dd      	ldrb	r5, [r3, #7]
 8003216:	000a      	movs	r2, r1
 8003218:	2d20      	cmp	r5, #32
 800321a:	d005      	beq.n	8003228 <get_fileinfo+0x128>
 800321c:	2d05      	cmp	r5, #5
 800321e:	d100      	bne.n	8003222 <get_fileinfo+0x122>
 8003220:	35e0      	adds	r5, #224	@ 0xe0
 8003222:	1c4a      	adds	r2, r1, #1
 8003224:	1861      	adds	r1, r4, r1
 8003226:	724d      	strb	r5, [r1, #9]
 8003228:	7a1d      	ldrb	r5, [r3, #8]
 800322a:	2d20      	cmp	r5, #32
 800322c:	d009      	beq.n	8003242 <get_fileinfo+0x142>
 800322e:	2d05      	cmp	r5, #5
 8003230:	d100      	bne.n	8003234 <get_fileinfo+0x134>
 8003232:	35e0      	adds	r5, #224	@ 0xe0
 8003234:	272e      	movs	r7, #46	@ 0x2e
 8003236:	1c51      	adds	r1, r2, #1
 8003238:	18a6      	adds	r6, r4, r2
 800323a:	1861      	adds	r1, r4, r1
 800323c:	7277      	strb	r7, [r6, #9]
 800323e:	3202      	adds	r2, #2
 8003240:	724d      	strb	r5, [r1, #9]
 8003242:	7a5d      	ldrb	r5, [r3, #9]
 8003244:	2d20      	cmp	r5, #32
 8003246:	d100      	bne.n	800324a <get_fileinfo+0x14a>
 8003248:	e084      	b.n	8003354 <get_fileinfo+0x254>
 800324a:	2d05      	cmp	r5, #5
 800324c:	d100      	bne.n	8003250 <get_fileinfo+0x150>
 800324e:	35e0      	adds	r5, #224	@ 0xe0
 8003250:	1c51      	adds	r1, r2, #1
 8003252:	18a2      	adds	r2, r4, r2
 8003254:	7255      	strb	r5, [r2, #9]
 8003256:	7a9d      	ldrb	r5, [r3, #10]
 8003258:	2d20      	cmp	r5, #32
 800325a:	d04d      	beq.n	80032f8 <get_fileinfo+0x1f8>
 800325c:	2d05      	cmp	r5, #5
 800325e:	d100      	bne.n	8003262 <get_fileinfo+0x162>
 8003260:	35e0      	adds	r5, #224	@ 0xe0
 8003262:	1862      	adds	r2, r4, r1
 8003264:	2100      	movs	r1, #0
 8003266:	7255      	strb	r5, [r2, #9]
 8003268:	7291      	strb	r1, [r2, #10]
 800326a:	2800      	cmp	r0, #0
 800326c:	d049      	beq.n	8003302 <get_fileinfo+0x202>
 800326e:	223f      	movs	r2, #63	@ 0x3f
 8003270:	7ad9      	ldrb	r1, [r3, #11]
 8003272:	400a      	ands	r2, r1
 8003274:	7222      	strb	r2, [r4, #8]
 8003276:	7f5a      	ldrb	r2, [r3, #29]
 8003278:	7f19      	ldrb	r1, [r3, #28]
 800327a:	0212      	lsls	r2, r2, #8
 800327c:	430a      	orrs	r2, r1
 800327e:	7f99      	ldrb	r1, [r3, #30]
 8003280:	0409      	lsls	r1, r1, #16
 8003282:	4311      	orrs	r1, r2
 8003284:	7fda      	ldrb	r2, [r3, #31]
 8003286:	0612      	lsls	r2, r2, #24
 8003288:	430a      	orrs	r2, r1
 800328a:	6022      	str	r2, [r4, #0]
 800328c:	7dda      	ldrb	r2, [r3, #23]
 800328e:	7d99      	ldrb	r1, [r3, #22]
 8003290:	0212      	lsls	r2, r2, #8
 8003292:	430a      	orrs	r2, r1
 8003294:	80e2      	strh	r2, [r4, #6]
 8003296:	7e1a      	ldrb	r2, [r3, #24]
 8003298:	7e5b      	ldrb	r3, [r3, #25]
 800329a:	021b      	lsls	r3, r3, #8
 800329c:	4313      	orrs	r3, r2
 800329e:	80a3      	strh	r3, [r4, #4]
 80032a0:	bcf0      	pop	{r4, r5, r6, r7}
 80032a2:	46bb      	mov	fp, r7
 80032a4:	46b2      	mov	sl, r6
 80032a6:	46a9      	mov	r9, r5
 80032a8:	46a0      	mov	r8, r4
 80032aa:	bdf8      	pop	{r3, r4, r5, r6, r7, pc}
 80032ac:	4643      	mov	r3, r8
 80032ae:	69db      	ldr	r3, [r3, #28]
 80032b0:	2000      	movs	r0, #0
 80032b2:	781a      	ldrb	r2, [r3, #0]
 80032b4:	2a20      	cmp	r2, #32
 80032b6:	d000      	beq.n	80032ba <get_fileinfo+0x1ba>
 80032b8:	e76b      	b.n	8003192 <get_fileinfo+0x92>
 80032ba:	2100      	movs	r1, #0
 80032bc:	e76e      	b.n	800319c <get_fileinfo+0x9c>
 80032be:	2800      	cmp	r0, #0
 80032c0:	d100      	bne.n	80032c4 <get_fileinfo+0x1c4>
 80032c2:	e755      	b.n	8003170 <get_fileinfo+0x70>
 80032c4:	465b      	mov	r3, fp
 80032c6:	2b00      	cmp	r3, #0
 80032c8:	d100      	bne.n	80032cc <get_fileinfo+0x1cc>
 80032ca:	e753      	b.n	8003174 <get_fileinfo+0x74>
 80032cc:	19e3      	adds	r3, r4, r7
 80032ce:	7598      	strb	r0, [r3, #22]
 80032d0:	2301      	movs	r3, #1
 80032d2:	18ff      	adds	r7, r7, r3
 80032d4:	464b      	mov	r3, r9
 80032d6:	2600      	movs	r6, #0
 80032d8:	68d9      	ldr	r1, [r3, #12]
 80032da:	5b4a      	ldrh	r2, [r1, r5]
 80032dc:	3502      	adds	r5, #2
 80032de:	2a00      	cmp	r2, #0
 80032e0:	d000      	beq.n	80032e4 <get_fileinfo+0x1e4>
 80032e2:	e72b      	b.n	800313c <get_fileinfo+0x3c>
 80032e4:	46bb      	mov	fp, r7
 80032e6:	e745      	b.n	8003174 <get_fileinfo+0x74>
 80032e8:	0016      	movs	r6, r2
 80032ea:	e7f6      	b.n	80032da <get_fileinfo+0x1da>
 80032ec:	19e3      	adds	r3, r4, r7
 80032ee:	0a02      	lsrs	r2, r0, #8
 80032f0:	759a      	strb	r2, [r3, #22]
 80032f2:	75d8      	strb	r0, [r3, #23]
 80032f4:	2302      	movs	r3, #2
 80032f6:	e7ec      	b.n	80032d2 <get_fileinfo+0x1d2>
 80032f8:	1862      	adds	r2, r4, r1
 80032fa:	2100      	movs	r1, #0
 80032fc:	7251      	strb	r1, [r2, #9]
 80032fe:	2800      	cmp	r0, #0
 8003300:	d1b5      	bne.n	800326e <get_fileinfo+0x16e>
 8003302:	0021      	movs	r1, r4
 8003304:	7a62      	ldrb	r2, [r4, #9]
 8003306:	2508      	movs	r5, #8
 8003308:	310a      	adds	r1, #10
 800330a:	2a00      	cmp	r2, #0
 800330c:	d10f      	bne.n	800332e <get_fileinfo+0x22e>
 800330e:	e032      	b.n	8003376 <get_fileinfo+0x276>
 8003310:	0010      	movs	r0, r2
 8003312:	3841      	subs	r0, #65	@ 0x41
 8003314:	2819      	cmp	r0, #25
 8003316:	d804      	bhi.n	8003322 <get_fileinfo+0x222>
 8003318:	7b18      	ldrb	r0, [r3, #12]
 800331a:	4228      	tst	r0, r5
 800331c:	d001      	beq.n	8003322 <get_fileinfo+0x222>
 800331e:	3220      	adds	r2, #32
 8003320:	b2d2      	uxtb	r2, r2
 8003322:	730a      	strb	r2, [r1, #12]
 8003324:	780a      	ldrb	r2, [r1, #0]
 8003326:	1c48      	adds	r0, r1, #1
 8003328:	2a00      	cmp	r2, #0
 800332a:	d008      	beq.n	800333e <get_fileinfo+0x23e>
 800332c:	0001      	movs	r1, r0
 800332e:	2a2e      	cmp	r2, #46	@ 0x2e
 8003330:	d1ee      	bne.n	8003310 <get_fileinfo+0x210>
 8003332:	730a      	strb	r2, [r1, #12]
 8003334:	780a      	ldrb	r2, [r1, #0]
 8003336:	2510      	movs	r5, #16
 8003338:	1c48      	adds	r0, r1, #1
 800333a:	2a00      	cmp	r2, #0
 800333c:	d1f6      	bne.n	800332c <get_fileinfo+0x22c>
 800333e:	1b09      	subs	r1, r1, r4
 8003340:	3909      	subs	r1, #9
 8003342:	2200      	movs	r2, #0
 8003344:	1861      	adds	r1, r4, r1
 8003346:	758a      	strb	r2, [r1, #22]
 8003348:	7b1a      	ldrb	r2, [r3, #12]
 800334a:	2a00      	cmp	r2, #0
 800334c:	d000      	beq.n	8003350 <get_fileinfo+0x250>
 800334e:	e78e      	b.n	800326e <get_fileinfo+0x16e>
 8003350:	7262      	strb	r2, [r4, #9]
 8003352:	e78c      	b.n	800326e <get_fileinfo+0x16e>
 8003354:	7a9d      	ldrb	r5, [r3, #10]
 8003356:	2d20      	cmp	r5, #32
 8003358:	d001      	beq.n	800335e <get_fileinfo+0x25e>
 800335a:	0011      	movs	r1, r2
 800335c:	e77e      	b.n	800325c <get_fileinfo+0x15c>
 800335e:	2500      	movs	r5, #0
 8003360:	18a1      	adds	r1, r4, r2
 8003362:	724d      	strb	r5, [r1, #9]
 8003364:	2800      	cmp	r0, #0
 8003366:	d000      	beq.n	800336a <get_fileinfo+0x26a>
 8003368:	e781      	b.n	800326e <get_fileinfo+0x16e>
 800336a:	2a00      	cmp	r2, #0
 800336c:	d1c9      	bne.n	8003302 <get_fileinfo+0x202>
 800336e:	223f      	movs	r2, #63	@ 0x3f
 8003370:	2101      	movs	r1, #1
 8003372:	75a2      	strb	r2, [r4, #22]
 8003374:	e7e5      	b.n	8003342 <get_fileinfo+0x242>
 8003376:	2100      	movs	r1, #0
 8003378:	e7e3      	b.n	8003342 <get_fileinfo+0x242>
 800337a:	46c0      	nop			@ (mov r8, r8)
 800337c:	00000362 	.word	0x00000362

08003380 <check_fs>:
 8003380:	b570      	push	{r4, r5, r6, lr}
 8003382:	2601      	movs	r6, #1
 8003384:	2300      	movs	r3, #0
 8003386:	4276      	negs	r6, r6
 8003388:	0004      	movs	r4, r0
 800338a:	000d      	movs	r5, r1
 800338c:	7103      	strb	r3, [r0, #4]
 800338e:	6286      	str	r6, [r0, #40]	@ 0x28
 8003390:	1c4b      	adds	r3, r1, #1
 8003392:	d000      	beq.n	8003396 <check_fs+0x16>
 8003394:	e07a      	b.n	800348c <check_fs+0x10c>
 8003396:	4a44      	ldr	r2, [pc, #272]	@ (80034a8 <check_fs+0x128>)
 8003398:	4b43      	ldr	r3, [pc, #268]	@ (80034a8 <check_fs+0x128>)
 800339a:	18a2      	adds	r2, r4, r2
 800339c:	7855      	ldrb	r5, [r2, #1]
 800339e:	5ce3      	ldrb	r3, [r4, r3]
 80033a0:	022d      	lsls	r5, r5, #8
 80033a2:	431d      	orrs	r5, r3
 80033a4:	232c      	movs	r3, #44	@ 0x2c
 80033a6:	5ce3      	ldrb	r3, [r4, r3]
 80033a8:	2beb      	cmp	r3, #235	@ 0xeb
 80033aa:	d009      	beq.n	80033c0 <check_fs+0x40>
 80033ac:	3318      	adds	r3, #24
 80033ae:	b2db      	uxtb	r3, r3
 80033b0:	2b01      	cmp	r3, #1
 80033b2:	d905      	bls.n	80033c0 <check_fs+0x40>
 80033b4:	4b3d      	ldr	r3, [pc, #244]	@ (80034ac <check_fs+0x12c>)
 80033b6:	18e8      	adds	r0, r5, r3
 80033b8:	1e43      	subs	r3, r0, #1
 80033ba:	4198      	sbcs	r0, r3
 80033bc:	3002      	adds	r0, #2
 80033be:	bd70      	pop	{r4, r5, r6, pc}
 80033c0:	4b3b      	ldr	r3, [pc, #236]	@ (80034b0 <check_fs+0x130>)
 80033c2:	429d      	cmp	r5, r3
 80033c4:	d04b      	beq.n	800345e <check_fs+0xde>
 80033c6:	0023      	movs	r3, r4
 80033c8:	3337      	adds	r3, #55	@ 0x37
 80033ca:	781a      	ldrb	r2, [r3, #0]
 80033cc:	785b      	ldrb	r3, [r3, #1]
 80033ce:	2003      	movs	r0, #3
 80033d0:	021b      	lsls	r3, r3, #8
 80033d2:	4313      	orrs	r3, r2
 80033d4:	1e5a      	subs	r2, r3, #1
 80033d6:	4213      	tst	r3, r2
 80033d8:	d1f1      	bne.n	80033be <check_fs+0x3e>
 80033da:	2280      	movs	r2, #128	@ 0x80
 80033dc:	2003      	movs	r0, #3
 80033de:	0092      	lsls	r2, r2, #2
 80033e0:	4293      	cmp	r3, r2
 80033e2:	d1ec      	bne.n	80033be <check_fs+0x3e>
 80033e4:	2339      	movs	r3, #57	@ 0x39
 80033e6:	5ce3      	ldrb	r3, [r4, r3]
 80033e8:	2b00      	cmp	r3, #0
 80033ea:	d0e8      	beq.n	80033be <check_fs+0x3e>
 80033ec:	1e5a      	subs	r2, r3, #1
 80033ee:	4213      	tst	r3, r2
 80033f0:	d1e5      	bne.n	80033be <check_fs+0x3e>
 80033f2:	233a      	movs	r3, #58	@ 0x3a
 80033f4:	5ce2      	ldrb	r2, [r4, r3]
 80033f6:	3301      	adds	r3, #1
 80033f8:	5ce3      	ldrb	r3, [r4, r3]
 80033fa:	021b      	lsls	r3, r3, #8
 80033fc:	4313      	orrs	r3, r2
 80033fe:	d0d9      	beq.n	80033b4 <check_fs+0x34>
 8003400:	233c      	movs	r3, #60	@ 0x3c
 8003402:	5ce3      	ldrb	r3, [r4, r3]
 8003404:	3b01      	subs	r3, #1
 8003406:	2b01      	cmp	r3, #1
 8003408:	d8d4      	bhi.n	80033b4 <check_fs+0x34>
 800340a:	0023      	movs	r3, r4
 800340c:	333d      	adds	r3, #61	@ 0x3d
 800340e:	781a      	ldrb	r2, [r3, #0]
 8003410:	785b      	ldrb	r3, [r3, #1]
 8003412:	021b      	lsls	r3, r3, #8
 8003414:	4313      	orrs	r3, r2
 8003416:	d0cd      	beq.n	80033b4 <check_fs+0x34>
 8003418:	0023      	movs	r3, r4
 800341a:	333f      	adds	r3, #63	@ 0x3f
 800341c:	781a      	ldrb	r2, [r3, #0]
 800341e:	785b      	ldrb	r3, [r3, #1]
 8003420:	021b      	lsls	r3, r3, #8
 8003422:	4313      	orrs	r3, r2
 8003424:	2b7f      	cmp	r3, #127	@ 0x7f
 8003426:	d811      	bhi.n	800344c <check_fs+0xcc>
 8003428:	234c      	movs	r3, #76	@ 0x4c
 800342a:	5ce2      	ldrb	r2, [r4, r3]
 800342c:	3301      	adds	r3, #1
 800342e:	5ce3      	ldrb	r3, [r4, r3]
 8003430:	021b      	lsls	r3, r3, #8
 8003432:	4313      	orrs	r3, r2
 8003434:	224e      	movs	r2, #78	@ 0x4e
 8003436:	5ca2      	ldrb	r2, [r4, r2]
 8003438:	0412      	lsls	r2, r2, #16
 800343a:	431a      	orrs	r2, r3
 800343c:	234f      	movs	r3, #79	@ 0x4f
 800343e:	5ce3      	ldrb	r3, [r4, r3]
 8003440:	061b      	lsls	r3, r3, #24
 8003442:	4313      	orrs	r3, r2
 8003444:	2280      	movs	r2, #128	@ 0x80
 8003446:	0252      	lsls	r2, r2, #9
 8003448:	4293      	cmp	r3, r2
 800344a:	d3b3      	bcc.n	80033b4 <check_fs+0x34>
 800344c:	2342      	movs	r3, #66	@ 0x42
 800344e:	5ce2      	ldrb	r2, [r4, r3]
 8003450:	18e4      	adds	r4, r4, r3
 8003452:	7863      	ldrb	r3, [r4, #1]
 8003454:	021b      	lsls	r3, r3, #8
 8003456:	4313      	orrs	r3, r2
 8003458:	d0ac      	beq.n	80033b4 <check_fs+0x34>
 800345a:	2000      	movs	r0, #0
 800345c:	e7af      	b.n	80033be <check_fs+0x3e>
 800345e:	0020      	movs	r0, r4
 8003460:	2208      	movs	r2, #8
 8003462:	4914      	ldr	r1, [pc, #80]	@ (80034b4 <check_fs+0x134>)
 8003464:	307e      	adds	r0, #126	@ 0x7e
 8003466:	f003 f8da 	bl	800661e <memcmp>
 800346a:	2800      	cmp	r0, #0
 800346c:	d0f5      	beq.n	800345a <check_fs+0xda>
 800346e:	0023      	movs	r3, r4
 8003470:	3337      	adds	r3, #55	@ 0x37
 8003472:	781a      	ldrb	r2, [r3, #0]
 8003474:	785b      	ldrb	r3, [r3, #1]
 8003476:	2002      	movs	r0, #2
 8003478:	021b      	lsls	r3, r3, #8
 800347a:	4313      	orrs	r3, r2
 800347c:	1e5a      	subs	r2, r3, #1
 800347e:	4213      	tst	r3, r2
 8003480:	d19d      	bne.n	80033be <check_fs+0x3e>
 8003482:	2280      	movs	r2, #128	@ 0x80
 8003484:	0092      	lsls	r2, r2, #2
 8003486:	4293      	cmp	r3, r2
 8003488:	d199      	bne.n	80033be <check_fs+0x3e>
 800348a:	e7ab      	b.n	80033e4 <check_fs+0x64>
 800348c:	000a      	movs	r2, r1
 800348e:	0021      	movs	r1, r4
 8003490:	2301      	movs	r3, #1
 8003492:	7840      	ldrb	r0, [r0, #1]
 8003494:	312c      	adds	r1, #44	@ 0x2c
 8003496:	f7ff fe27 	bl	80030e8 <disk_read>
 800349a:	2800      	cmp	r0, #0
 800349c:	d101      	bne.n	80034a2 <check_fs+0x122>
 800349e:	62a5      	str	r5, [r4, #40]	@ 0x28
 80034a0:	e779      	b.n	8003396 <check_fs+0x16>
 80034a2:	2004      	movs	r0, #4
 80034a4:	62a6      	str	r6, [r4, #40]	@ 0x28
 80034a6:	e78a      	b.n	80033be <check_fs+0x3e>
 80034a8:	0000022a 	.word	0x0000022a
 80034ac:	ffff55ab 	.word	0xffff55ab
 80034b0:	0000aa55 	.word	0x0000aa55
 80034b4:	08007730 	.word	0x08007730

080034b8 <mount_volume.constprop.0>:
 80034b8:	b5f0      	push	{r4, r5, r6, r7, lr}
 80034ba:	46de      	mov	lr, fp
 80034bc:	4657      	mov	r7, sl
 80034be:	464e      	mov	r6, r9
 80034c0:	4645      	mov	r5, r8
 80034c2:	2300      	movs	r3, #0
 80034c4:	b5e0      	push	{r5, r6, r7, lr}
 80034c6:	0004      	movs	r4, r0
 80034c8:	6800      	ldr	r0, [r0, #0]
 80034ca:	b083      	sub	sp, #12
 80034cc:	600b      	str	r3, [r1, #0]
 80034ce:	2800      	cmp	r0, #0
 80034d0:	d100      	bne.n	80034d4 <mount_volume.constprop.0+0x1c>
 80034d2:	e11d      	b.n	8003710 <mount_volume.constprop.0+0x258>
 80034d4:	0002      	movs	r2, r0
 80034d6:	e002      	b.n	80034de <mount_volume.constprop.0+0x26>
 80034d8:	2b3a      	cmp	r3, #58	@ 0x3a
 80034da:	d100      	bne.n	80034de <mount_volume.constprop.0+0x26>
 80034dc:	e10f      	b.n	80036fe <mount_volume.constprop.0+0x246>
 80034de:	7813      	ldrb	r3, [r2, #0]
 80034e0:	3201      	adds	r2, #1
 80034e2:	2b1f      	cmp	r3, #31
 80034e4:	d8f8      	bhi.n	80034d8 <mount_volume.constprop.0+0x20>
 80034e6:	4bb4      	ldr	r3, [pc, #720]	@ (80037b8 <mount_volume.constprop.0+0x300>)
 80034e8:	681c      	ldr	r4, [r3, #0]
 80034ea:	2c00      	cmp	r4, #0
 80034ec:	d100      	bne.n	80034f0 <mount_volume.constprop.0+0x38>
 80034ee:	e111      	b.n	8003714 <mount_volume.constprop.0+0x25c>
 80034f0:	7823      	ldrb	r3, [r4, #0]
 80034f2:	600c      	str	r4, [r1, #0]
 80034f4:	7860      	ldrb	r0, [r4, #1]
 80034f6:	2b00      	cmp	r3, #0
 80034f8:	d005      	beq.n	8003506 <mount_volume.constprop.0+0x4e>
 80034fa:	f7ff fded 	bl	80030d8 <disk_status>
 80034fe:	07c0      	lsls	r0, r0, #31
 8003500:	d400      	bmi.n	8003504 <mount_volume.constprop.0+0x4c>
 8003502:	e0b2      	b.n	800366a <mount_volume.constprop.0+0x1b2>
 8003504:	7860      	ldrb	r0, [r4, #1]
 8003506:	2300      	movs	r3, #0
 8003508:	7023      	strb	r3, [r4, #0]
 800350a:	f7ff fde9 	bl	80030e0 <disk_initialize>
 800350e:	07c0      	lsls	r0, r0, #31
 8003510:	d500      	bpl.n	8003514 <mount_volume.constprop.0+0x5c>
 8003512:	e0ac      	b.n	800366e <mount_volume.constprop.0+0x1b6>
 8003514:	2100      	movs	r1, #0
 8003516:	0020      	movs	r0, r4
 8003518:	f7ff ff32 	bl	8003380 <check_fs>
 800351c:	2802      	cmp	r0, #2
 800351e:	d100      	bne.n	8003522 <mount_volume.constprop.0+0x6a>
 8003520:	e0ad      	b.n	800367e <mount_volume.constprop.0+0x1c6>
 8003522:	2804      	cmp	r0, #4
 8003524:	d100      	bne.n	8003528 <mount_volume.constprop.0+0x70>
 8003526:	e100      	b.n	800372a <mount_volume.constprop.0+0x272>
 8003528:	2801      	cmp	r0, #1
 800352a:	d900      	bls.n	800352e <mount_volume.constprop.0+0x76>
 800352c:	e0e5      	b.n	80036fa <mount_volume.constprop.0+0x242>
 800352e:	6aa3      	ldr	r3, [r4, #40]	@ 0x28
 8003530:	2280      	movs	r2, #128	@ 0x80
 8003532:	469b      	mov	fp, r3
 8003534:	0023      	movs	r3, r4
 8003536:	3337      	adds	r3, #55	@ 0x37
 8003538:	7819      	ldrb	r1, [r3, #0]
 800353a:	785b      	ldrb	r3, [r3, #1]
 800353c:	0092      	lsls	r2, r2, #2
 800353e:	021b      	lsls	r3, r3, #8
 8003540:	430b      	orrs	r3, r1
 8003542:	4293      	cmp	r3, r2
 8003544:	d000      	beq.n	8003548 <mount_volume.constprop.0+0x90>
 8003546:	e0d8      	b.n	80036fa <mount_volume.constprop.0+0x242>
 8003548:	0022      	movs	r2, r4
 800354a:	2342      	movs	r3, #66	@ 0x42
 800354c:	3242      	adds	r2, #66	@ 0x42
 800354e:	7855      	ldrb	r5, [r2, #1]
 8003550:	5ce3      	ldrb	r3, [r4, r3]
 8003552:	022d      	lsls	r5, r5, #8
 8003554:	431d      	orrs	r5, r3
 8003556:	d10d      	bne.n	8003574 <mount_volume.constprop.0+0xbc>
 8003558:	2251      	movs	r2, #81	@ 0x51
 800355a:	2350      	movs	r3, #80	@ 0x50
 800355c:	5ca2      	ldrb	r2, [r4, r2]
 800355e:	5ce3      	ldrb	r3, [r4, r3]
 8003560:	0212      	lsls	r2, r2, #8
 8003562:	431a      	orrs	r2, r3
 8003564:	2352      	movs	r3, #82	@ 0x52
 8003566:	5ce3      	ldrb	r3, [r4, r3]
 8003568:	041b      	lsls	r3, r3, #16
 800356a:	4313      	orrs	r3, r2
 800356c:	2253      	movs	r2, #83	@ 0x53
 800356e:	5ca5      	ldrb	r5, [r4, r2]
 8003570:	062d      	lsls	r5, r5, #24
 8003572:	431d      	orrs	r5, r3
 8003574:	233c      	movs	r3, #60	@ 0x3c
 8003576:	6165      	str	r5, [r4, #20]
 8003578:	5ce6      	ldrb	r6, [r4, r3]
 800357a:	1e73      	subs	r3, r6, #1
 800357c:	70e6      	strb	r6, [r4, #3]
 800357e:	2b01      	cmp	r3, #1
 8003580:	d900      	bls.n	8003584 <mount_volume.constprop.0+0xcc>
 8003582:	e0ba      	b.n	80036fa <mount_volume.constprop.0+0x242>
 8003584:	2339      	movs	r3, #57	@ 0x39
 8003586:	5ce7      	ldrb	r7, [r4, r3]
 8003588:	8167      	strh	r7, [r4, #10]
 800358a:	2f00      	cmp	r7, #0
 800358c:	d100      	bne.n	8003590 <mount_volume.constprop.0+0xd8>
 800358e:	e0b4      	b.n	80036fa <mount_volume.constprop.0+0x242>
 8003590:	1e7b      	subs	r3, r7, #1
 8003592:	421f      	tst	r7, r3
 8003594:	d000      	beq.n	8003598 <mount_volume.constprop.0+0xe0>
 8003596:	e0b0      	b.n	80036fa <mount_volume.constprop.0+0x242>
 8003598:	0023      	movs	r3, r4
 800359a:	333d      	adds	r3, #61	@ 0x3d
 800359c:	781a      	ldrb	r2, [r3, #0]
 800359e:	785b      	ldrb	r3, [r3, #1]
 80035a0:	021b      	lsls	r3, r3, #8
 80035a2:	4313      	orrs	r3, r2
 80035a4:	4698      	mov	r8, r3
 80035a6:	8123      	strh	r3, [r4, #8]
 80035a8:	071b      	lsls	r3, r3, #28
 80035aa:	d000      	beq.n	80035ae <mount_volume.constprop.0+0xf6>
 80035ac:	e0a5      	b.n	80036fa <mount_volume.constprop.0+0x242>
 80035ae:	0023      	movs	r3, r4
 80035b0:	333f      	adds	r3, #63	@ 0x3f
 80035b2:	781a      	ldrb	r2, [r3, #0]
 80035b4:	785b      	ldrb	r3, [r3, #1]
 80035b6:	021b      	lsls	r3, r3, #8
 80035b8:	4313      	orrs	r3, r2
 80035ba:	d10d      	bne.n	80035d8 <mount_volume.constprop.0+0x120>
 80035bc:	334c      	adds	r3, #76	@ 0x4c
 80035be:	5ce2      	ldrb	r2, [r4, r3]
 80035c0:	3301      	adds	r3, #1
 80035c2:	5ce3      	ldrb	r3, [r4, r3]
 80035c4:	021b      	lsls	r3, r3, #8
 80035c6:	4313      	orrs	r3, r2
 80035c8:	224e      	movs	r2, #78	@ 0x4e
 80035ca:	5ca2      	ldrb	r2, [r4, r2]
 80035cc:	0412      	lsls	r2, r2, #16
 80035ce:	431a      	orrs	r2, r3
 80035d0:	234f      	movs	r3, #79	@ 0x4f
 80035d2:	5ce3      	ldrb	r3, [r4, r3]
 80035d4:	061b      	lsls	r3, r3, #24
 80035d6:	4313      	orrs	r3, r2
 80035d8:	223a      	movs	r2, #58	@ 0x3a
 80035da:	5ca1      	ldrb	r1, [r4, r2]
 80035dc:	3201      	adds	r2, #1
 80035de:	5ca2      	ldrb	r2, [r4, r2]
 80035e0:	0212      	lsls	r2, r2, #8
 80035e2:	430a      	orrs	r2, r1
 80035e4:	4691      	mov	r9, r2
 80035e6:	d100      	bne.n	80035ea <mount_volume.constprop.0+0x132>
 80035e8:	e087      	b.n	80036fa <mount_volume.constprop.0+0x242>
 80035ea:	4642      	mov	r2, r8
 80035ec:	0912      	lsrs	r2, r2, #4
 80035ee:	444a      	add	r2, r9
 80035f0:	4692      	mov	sl, r2
 80035f2:	436e      	muls	r6, r5
 80035f4:	44b2      	add	sl, r6
 80035f6:	459a      	cmp	sl, r3
 80035f8:	d900      	bls.n	80035fc <mount_volume.constprop.0+0x144>
 80035fa:	e07e      	b.n	80036fa <mount_volume.constprop.0+0x242>
 80035fc:	4652      	mov	r2, sl
 80035fe:	1a9b      	subs	r3, r3, r2
 8003600:	0018      	movs	r0, r3
 8003602:	0039      	movs	r1, r7
 8003604:	9301      	str	r3, [sp, #4]
 8003606:	f7fc fd85 	bl	8000114 <__udivsi3>
 800360a:	9b01      	ldr	r3, [sp, #4]
 800360c:	42bb      	cmp	r3, r7
 800360e:	d200      	bcs.n	8003612 <mount_volume.constprop.0+0x15a>
 8003610:	e073      	b.n	80036fa <mount_volume.constprop.0+0x242>
 8003612:	4b6a      	ldr	r3, [pc, #424]	@ (80037bc <mount_volume.constprop.0+0x304>)
 8003614:	4298      	cmp	r0, r3
 8003616:	d900      	bls.n	800361a <mount_volume.constprop.0+0x162>
 8003618:	e06f      	b.n	80036fa <mount_volume.constprop.0+0x242>
 800361a:	4651      	mov	r1, sl
 800361c:	464b      	mov	r3, r9
 800361e:	4f68      	ldr	r7, [pc, #416]	@ (80037c0 <mount_volume.constprop.0+0x308>)
 8003620:	4459      	add	r1, fp
 8003622:	1c82      	adds	r2, r0, #2
 8003624:	445b      	add	r3, fp
 8003626:	42b8      	cmp	r0, r7
 8003628:	d900      	bls.n	800362c <mount_volume.constprop.0+0x174>
 800362a:	e0a4      	b.n	8003776 <mount_volume.constprop.0+0x2be>
 800362c:	4f65      	ldr	r7, [pc, #404]	@ (80037c4 <mount_volume.constprop.0+0x30c>)
 800362e:	6122      	str	r2, [r4, #16]
 8003630:	42b8      	cmp	r0, r7
 8003632:	d800      	bhi.n	8003636 <mount_volume.constprop.0+0x17e>
 8003634:	e08f      	b.n	8003756 <mount_volume.constprop.0+0x29e>
 8003636:	4658      	mov	r0, fp
 8003638:	6261      	str	r1, [r4, #36]	@ 0x24
 800363a:	4641      	mov	r1, r8
 800363c:	61a0      	str	r0, [r4, #24]
 800363e:	61e3      	str	r3, [r4, #28]
 8003640:	2900      	cmp	r1, #0
 8003642:	d05a      	beq.n	80036fa <mount_volume.constprop.0+0x242>
 8003644:	18f6      	adds	r6, r6, r3
 8003646:	2302      	movs	r3, #2
 8003648:	0052      	lsls	r2, r2, #1
 800364a:	495f      	ldr	r1, [pc, #380]	@ (80037c8 <mount_volume.constprop.0+0x310>)
 800364c:	6226      	str	r6, [r4, #32]
 800364e:	468c      	mov	ip, r1
 8003650:	4462      	add	r2, ip
 8003652:	0a52      	lsrs	r2, r2, #9
 8003654:	4295      	cmp	r5, r2
 8003656:	d350      	bcc.n	80036fa <mount_volume.constprop.0+0x242>
 8003658:	4a5c      	ldr	r2, [pc, #368]	@ (80037cc <mount_volume.constprop.0+0x314>)
 800365a:	7023      	strb	r3, [r4, #0]
 800365c:	8813      	ldrh	r3, [r2, #0]
 800365e:	3301      	adds	r3, #1
 8003660:	b29b      	uxth	r3, r3
 8003662:	8013      	strh	r3, [r2, #0]
 8003664:	80e3      	strh	r3, [r4, #6]
 8003666:	4b5a      	ldr	r3, [pc, #360]	@ (80037d0 <mount_volume.constprop.0+0x318>)
 8003668:	60e3      	str	r3, [r4, #12]
 800366a:	2000      	movs	r0, #0
 800366c:	e000      	b.n	8003670 <mount_volume.constprop.0+0x1b8>
 800366e:	2003      	movs	r0, #3
 8003670:	b003      	add	sp, #12
 8003672:	bcf0      	pop	{r4, r5, r6, r7}
 8003674:	46bb      	mov	fp, r7
 8003676:	46b2      	mov	sl, r6
 8003678:	46a9      	mov	r9, r5
 800367a:	46a0      	mov	r8, r4
 800367c:	bdf0      	pop	{r4, r5, r6, r7, pc}
 800367e:	0021      	movs	r1, r4
 8003680:	23f9      	movs	r3, #249	@ 0xf9
 8003682:	31f3      	adds	r1, #243	@ 0xf3
 8003684:	31ff      	adds	r1, #255	@ 0xff
 8003686:	784a      	ldrb	r2, [r1, #1]
 8003688:	005b      	lsls	r3, r3, #1
 800368a:	5ce3      	ldrb	r3, [r4, r3]
 800368c:	0212      	lsls	r2, r2, #8
 800368e:	431a      	orrs	r2, r3
 8003690:	788b      	ldrb	r3, [r1, #2]
 8003692:	78c9      	ldrb	r1, [r1, #3]
 8003694:	041b      	lsls	r3, r3, #16
 8003696:	4313      	orrs	r3, r2
 8003698:	4a4e      	ldr	r2, [pc, #312]	@ (80037d4 <mount_volume.constprop.0+0x31c>)
 800369a:	0609      	lsls	r1, r1, #24
 800369c:	18a0      	adds	r0, r4, r2
 800369e:	4319      	orrs	r1, r3
 80036a0:	4b4c      	ldr	r3, [pc, #304]	@ (80037d4 <mount_volume.constprop.0+0x31c>)
 80036a2:	7842      	ldrb	r2, [r0, #1]
 80036a4:	5ce3      	ldrb	r3, [r4, r3]
 80036a6:	0212      	lsls	r2, r2, #8
 80036a8:	431a      	orrs	r2, r3
 80036aa:	7883      	ldrb	r3, [r0, #2]
 80036ac:	78c5      	ldrb	r5, [r0, #3]
 80036ae:	041b      	lsls	r3, r3, #16
 80036b0:	4313      	orrs	r3, r2
 80036b2:	4a49      	ldr	r2, [pc, #292]	@ (80037d8 <mount_volume.constprop.0+0x320>)
 80036b4:	062d      	lsls	r5, r5, #24
 80036b6:	18a0      	adds	r0, r4, r2
 80036b8:	431d      	orrs	r5, r3
 80036ba:	4b47      	ldr	r3, [pc, #284]	@ (80037d8 <mount_volume.constprop.0+0x320>)
 80036bc:	7842      	ldrb	r2, [r0, #1]
 80036be:	5ce3      	ldrb	r3, [r4, r3]
 80036c0:	0212      	lsls	r2, r2, #8
 80036c2:	431a      	orrs	r2, r3
 80036c4:	7883      	ldrb	r3, [r0, #2]
 80036c6:	78c6      	ldrb	r6, [r0, #3]
 80036c8:	041b      	lsls	r3, r3, #16
 80036ca:	4313      	orrs	r3, r2
 80036cc:	4a43      	ldr	r2, [pc, #268]	@ (80037dc <mount_volume.constprop.0+0x324>)
 80036ce:	0636      	lsls	r6, r6, #24
 80036d0:	18a0      	adds	r0, r4, r2
 80036d2:	431e      	orrs	r6, r3
 80036d4:	4b41      	ldr	r3, [pc, #260]	@ (80037dc <mount_volume.constprop.0+0x324>)
 80036d6:	7842      	ldrb	r2, [r0, #1]
 80036d8:	5ce3      	ldrb	r3, [r4, r3]
 80036da:	0212      	lsls	r2, r2, #8
 80036dc:	431a      	orrs	r2, r3
 80036de:	7883      	ldrb	r3, [r0, #2]
 80036e0:	78c7      	ldrb	r7, [r0, #3]
 80036e2:	041b      	lsls	r3, r3, #16
 80036e4:	4313      	orrs	r3, r2
 80036e6:	063f      	lsls	r7, r7, #24
 80036e8:	431f      	orrs	r7, r3
 80036ea:	2900      	cmp	r1, #0
 80036ec:	d11f      	bne.n	800372e <mount_volume.constprop.0+0x276>
 80036ee:	2d00      	cmp	r5, #0
 80036f0:	d123      	bne.n	800373a <mount_volume.constprop.0+0x282>
 80036f2:	2e00      	cmp	r6, #0
 80036f4:	d128      	bne.n	8003748 <mount_volume.constprop.0+0x290>
 80036f6:	2f00      	cmp	r7, #0
 80036f8:	d10e      	bne.n	8003718 <mount_volume.constprop.0+0x260>
 80036fa:	200d      	movs	r0, #13
 80036fc:	e7b8      	b.n	8003670 <mount_volume.constprop.0+0x1b8>
 80036fe:	7803      	ldrb	r3, [r0, #0]
 8003700:	2b30      	cmp	r3, #48	@ 0x30
 8003702:	d105      	bne.n	8003710 <mount_volume.constprop.0+0x258>
 8003704:	1c83      	adds	r3, r0, #2
 8003706:	200b      	movs	r0, #11
 8003708:	429a      	cmp	r2, r3
 800370a:	d1b1      	bne.n	8003670 <mount_volume.constprop.0+0x1b8>
 800370c:	6022      	str	r2, [r4, #0]
 800370e:	e6ea      	b.n	80034e6 <mount_volume.constprop.0+0x2e>
 8003710:	200b      	movs	r0, #11
 8003712:	e7ad      	b.n	8003670 <mount_volume.constprop.0+0x1b8>
 8003714:	200c      	movs	r0, #12
 8003716:	e7ab      	b.n	8003670 <mount_volume.constprop.0+0x1b8>
 8003718:	0039      	movs	r1, r7
 800371a:	0020      	movs	r0, r4
 800371c:	f7ff fe30 	bl	8003380 <check_fs>
 8003720:	2801      	cmp	r0, #1
 8003722:	d800      	bhi.n	8003726 <mount_volume.constprop.0+0x26e>
 8003724:	e703      	b.n	800352e <mount_volume.constprop.0+0x76>
 8003726:	2804      	cmp	r0, #4
 8003728:	d1e7      	bne.n	80036fa <mount_volume.constprop.0+0x242>
 800372a:	2001      	movs	r0, #1
 800372c:	e7a0      	b.n	8003670 <mount_volume.constprop.0+0x1b8>
 800372e:	0020      	movs	r0, r4
 8003730:	f7ff fe26 	bl	8003380 <check_fs>
 8003734:	2801      	cmp	r0, #1
 8003736:	d8da      	bhi.n	80036ee <mount_volume.constprop.0+0x236>
 8003738:	e6f9      	b.n	800352e <mount_volume.constprop.0+0x76>
 800373a:	0029      	movs	r1, r5
 800373c:	0020      	movs	r0, r4
 800373e:	f7ff fe1f 	bl	8003380 <check_fs>
 8003742:	2801      	cmp	r0, #1
 8003744:	d8d5      	bhi.n	80036f2 <mount_volume.constprop.0+0x23a>
 8003746:	e6f2      	b.n	800352e <mount_volume.constprop.0+0x76>
 8003748:	0031      	movs	r1, r6
 800374a:	0020      	movs	r0, r4
 800374c:	f7ff fe18 	bl	8003380 <check_fs>
 8003750:	2801      	cmp	r0, #1
 8003752:	d8d0      	bhi.n	80036f6 <mount_volume.constprop.0+0x23e>
 8003754:	e6eb      	b.n	800352e <mount_volume.constprop.0+0x76>
 8003756:	4658      	mov	r0, fp
 8003758:	6261      	str	r1, [r4, #36]	@ 0x24
 800375a:	4641      	mov	r1, r8
 800375c:	61a0      	str	r0, [r4, #24]
 800375e:	61e3      	str	r3, [r4, #28]
 8003760:	2900      	cmp	r1, #0
 8003762:	d0ca      	beq.n	80036fa <mount_volume.constprop.0+0x242>
 8003764:	2101      	movs	r1, #1
 8003766:	18f6      	adds	r6, r6, r3
 8003768:	0053      	lsls	r3, r2, #1
 800376a:	189b      	adds	r3, r3, r2
 800376c:	085b      	lsrs	r3, r3, #1
 800376e:	400a      	ands	r2, r1
 8003770:	189a      	adds	r2, r3, r2
 8003772:	2301      	movs	r3, #1
 8003774:	e769      	b.n	800364a <mount_volume.constprop.0+0x192>
 8003776:	4658      	mov	r0, fp
 8003778:	61e3      	str	r3, [r4, #28]
 800377a:	2356      	movs	r3, #86	@ 0x56
 800377c:	6122      	str	r2, [r4, #16]
 800377e:	61a0      	str	r0, [r4, #24]
 8003780:	6261      	str	r1, [r4, #36]	@ 0x24
 8003782:	5ce1      	ldrb	r1, [r4, r3]
 8003784:	0023      	movs	r3, r4
 8003786:	3356      	adds	r3, #86	@ 0x56
 8003788:	785b      	ldrb	r3, [r3, #1]
 800378a:	021b      	lsls	r3, r3, #8
 800378c:	430b      	orrs	r3, r1
 800378e:	4641      	mov	r1, r8
 8003790:	4319      	orrs	r1, r3
 8003792:	d1b2      	bne.n	80036fa <mount_volume.constprop.0+0x242>
 8003794:	2159      	movs	r1, #89	@ 0x59
 8003796:	2358      	movs	r3, #88	@ 0x58
 8003798:	5c61      	ldrb	r1, [r4, r1]
 800379a:	5ce3      	ldrb	r3, [r4, r3]
 800379c:	0209      	lsls	r1, r1, #8
 800379e:	4319      	orrs	r1, r3
 80037a0:	235a      	movs	r3, #90	@ 0x5a
 80037a2:	5ce3      	ldrb	r3, [r4, r3]
 80037a4:	0092      	lsls	r2, r2, #2
 80037a6:	041b      	lsls	r3, r3, #16
 80037a8:	430b      	orrs	r3, r1
 80037aa:	215b      	movs	r1, #91	@ 0x5b
 80037ac:	5c66      	ldrb	r6, [r4, r1]
 80037ae:	0636      	lsls	r6, r6, #24
 80037b0:	431e      	orrs	r6, r3
 80037b2:	2303      	movs	r3, #3
 80037b4:	e749      	b.n	800364a <mount_volume.constprop.0+0x192>
 80037b6:	46c0      	nop			@ (mov r8, r8)
 80037b8:	200003d0 	.word	0x200003d0
 80037bc:	0ffffff5 	.word	0x0ffffff5
 80037c0:	0000fff5 	.word	0x0000fff5
 80037c4:	00000ff5 	.word	0x00000ff5
 80037c8:	000001ff 	.word	0x000001ff
 80037cc:	200003ce 	.word	0x200003ce
 80037d0:	2000037c 	.word	0x2000037c
 80037d4:	00000202 	.word	0x00000202
 80037d8:	00000212 	.word	0x00000212
 80037dc:	00000222 	.word	0x00000222

080037e0 <get_fat.isra.0>:
 80037e0:	b5f0      	push	{r4, r5, r6, r7, lr}
 80037e2:	46c6      	mov	lr, r8
 80037e4:	0005      	movs	r5, r0
 80037e6:	000c      	movs	r4, r1
 80037e8:	2001      	movs	r0, #1
 80037ea:	b500      	push	{lr}
 80037ec:	2901      	cmp	r1, #1
 80037ee:	d909      	bls.n	8003804 <get_fat.isra.0+0x24>
 80037f0:	692b      	ldr	r3, [r5, #16]
 80037f2:	4299      	cmp	r1, r3
 80037f4:	d206      	bcs.n	8003804 <get_fat.isra.0+0x24>
 80037f6:	782b      	ldrb	r3, [r5, #0]
 80037f8:	2b02      	cmp	r3, #2
 80037fa:	d03e      	beq.n	800387a <get_fat.isra.0+0x9a>
 80037fc:	2b03      	cmp	r3, #3
 80037fe:	d022      	beq.n	8003846 <get_fat.isra.0+0x66>
 8003800:	2b01      	cmp	r3, #1
 8003802:	d002      	beq.n	800380a <get_fat.isra.0+0x2a>
 8003804:	bc80      	pop	{r7}
 8003806:	46b8      	mov	r8, r7
 8003808:	bdf0      	pop	{r4, r5, r6, r7, pc}
 800380a:	084e      	lsrs	r6, r1, #1
 800380c:	69ea      	ldr	r2, [r5, #28]
 800380e:	1876      	adds	r6, r6, r1
 8003810:	0a77      	lsrs	r7, r6, #9
 8003812:	6aab      	ldr	r3, [r5, #40]	@ 0x28
 8003814:	18bf      	adds	r7, r7, r2
 8003816:	429f      	cmp	r7, r3
 8003818:	d155      	bne.n	80038c6 <get_fat.isra.0+0xe6>
 800381a:	1c77      	adds	r7, r6, #1
 800381c:	0a79      	lsrs	r1, r7, #9
 800381e:	4688      	mov	r8, r1
 8003820:	05f6      	lsls	r6, r6, #23
 8003822:	0df6      	lsrs	r6, r6, #23
 8003824:	19ae      	adds	r6, r5, r6
 8003826:	362c      	adds	r6, #44	@ 0x2c
 8003828:	4490      	add	r8, r2
 800382a:	7836      	ldrb	r6, [r6, #0]
 800382c:	4598      	cmp	r8, r3
 800382e:	d157      	bne.n	80038e0 <get_fat.isra.0+0x100>
 8003830:	05ff      	lsls	r7, r7, #23
 8003832:	0dff      	lsrs	r7, r7, #23
 8003834:	19ef      	adds	r7, r5, r7
 8003836:	372c      	adds	r7, #44	@ 0x2c
 8003838:	7838      	ldrb	r0, [r7, #0]
 800383a:	0200      	lsls	r0, r0, #8
 800383c:	4330      	orrs	r0, r6
 800383e:	07e4      	lsls	r4, r4, #31
 8003840:	d55a      	bpl.n	80038f8 <get_fat.isra.0+0x118>
 8003842:	0900      	lsrs	r0, r0, #4
 8003844:	e7de      	b.n	8003804 <get_fat.isra.0+0x24>
 8003846:	002f      	movs	r7, r5
 8003848:	69eb      	ldr	r3, [r5, #28]
 800384a:	09ce      	lsrs	r6, r1, #7
 800384c:	18f6      	adds	r6, r6, r3
 800384e:	6aab      	ldr	r3, [r5, #40]	@ 0x28
 8003850:	372c      	adds	r7, #44	@ 0x2c
 8003852:	429e      	cmp	r6, r3
 8003854:	d12d      	bne.n	80038b2 <get_fat.isra.0+0xd2>
 8003856:	23fe      	movs	r3, #254	@ 0xfe
 8003858:	00a4      	lsls	r4, r4, #2
 800385a:	005b      	lsls	r3, r3, #1
 800385c:	401c      	ands	r4, r3
 800385e:	5d3b      	ldrb	r3, [r7, r4]
 8003860:	193c      	adds	r4, r7, r4
 8003862:	7862      	ldrb	r2, [r4, #1]
 8003864:	78e0      	ldrb	r0, [r4, #3]
 8003866:	0212      	lsls	r2, r2, #8
 8003868:	431a      	orrs	r2, r3
 800386a:	78a3      	ldrb	r3, [r4, #2]
 800386c:	0600      	lsls	r0, r0, #24
 800386e:	041b      	lsls	r3, r3, #16
 8003870:	4313      	orrs	r3, r2
 8003872:	4318      	orrs	r0, r3
 8003874:	0100      	lsls	r0, r0, #4
 8003876:	0900      	lsrs	r0, r0, #4
 8003878:	e7c4      	b.n	8003804 <get_fat.isra.0+0x24>
 800387a:	002f      	movs	r7, r5
 800387c:	69eb      	ldr	r3, [r5, #28]
 800387e:	0a0e      	lsrs	r6, r1, #8
 8003880:	18f6      	adds	r6, r6, r3
 8003882:	6aab      	ldr	r3, [r5, #40]	@ 0x28
 8003884:	372c      	adds	r7, #44	@ 0x2c
 8003886:	429e      	cmp	r6, r3
 8003888:	d109      	bne.n	800389e <get_fat.isra.0+0xbe>
 800388a:	23ff      	movs	r3, #255	@ 0xff
 800388c:	0064      	lsls	r4, r4, #1
 800388e:	005b      	lsls	r3, r3, #1
 8003890:	401c      	ands	r4, r3
 8003892:	5d3b      	ldrb	r3, [r7, r4]
 8003894:	193c      	adds	r4, r7, r4
 8003896:	7860      	ldrb	r0, [r4, #1]
 8003898:	0200      	lsls	r0, r0, #8
 800389a:	4318      	orrs	r0, r3
 800389c:	e7b2      	b.n	8003804 <get_fat.isra.0+0x24>
 800389e:	2301      	movs	r3, #1
 80038a0:	0032      	movs	r2, r6
 80038a2:	0039      	movs	r1, r7
 80038a4:	7868      	ldrb	r0, [r5, #1]
 80038a6:	f7ff fc1f 	bl	80030e8 <disk_read>
 80038aa:	2800      	cmp	r0, #0
 80038ac:	d127      	bne.n	80038fe <get_fat.isra.0+0x11e>
 80038ae:	62ae      	str	r6, [r5, #40]	@ 0x28
 80038b0:	e7eb      	b.n	800388a <get_fat.isra.0+0xaa>
 80038b2:	2301      	movs	r3, #1
 80038b4:	0032      	movs	r2, r6
 80038b6:	0039      	movs	r1, r7
 80038b8:	7868      	ldrb	r0, [r5, #1]
 80038ba:	f7ff fc15 	bl	80030e8 <disk_read>
 80038be:	2800      	cmp	r0, #0
 80038c0:	d11d      	bne.n	80038fe <get_fat.isra.0+0x11e>
 80038c2:	62ae      	str	r6, [r5, #40]	@ 0x28
 80038c4:	e7c7      	b.n	8003856 <get_fat.isra.0+0x76>
 80038c6:	0029      	movs	r1, r5
 80038c8:	2301      	movs	r3, #1
 80038ca:	003a      	movs	r2, r7
 80038cc:	7868      	ldrb	r0, [r5, #1]
 80038ce:	312c      	adds	r1, #44	@ 0x2c
 80038d0:	f7ff fc0a 	bl	80030e8 <disk_read>
 80038d4:	2800      	cmp	r0, #0
 80038d6:	d112      	bne.n	80038fe <get_fat.isra.0+0x11e>
 80038d8:	003b      	movs	r3, r7
 80038da:	69ea      	ldr	r2, [r5, #28]
 80038dc:	62af      	str	r7, [r5, #40]	@ 0x28
 80038de:	e79c      	b.n	800381a <get_fat.isra.0+0x3a>
 80038e0:	0029      	movs	r1, r5
 80038e2:	2301      	movs	r3, #1
 80038e4:	4642      	mov	r2, r8
 80038e6:	7868      	ldrb	r0, [r5, #1]
 80038e8:	312c      	adds	r1, #44	@ 0x2c
 80038ea:	f7ff fbfd 	bl	80030e8 <disk_read>
 80038ee:	2800      	cmp	r0, #0
 80038f0:	d105      	bne.n	80038fe <get_fat.isra.0+0x11e>
 80038f2:	4643      	mov	r3, r8
 80038f4:	62ab      	str	r3, [r5, #40]	@ 0x28
 80038f6:	e79b      	b.n	8003830 <get_fat.isra.0+0x50>
 80038f8:	0500      	lsls	r0, r0, #20
 80038fa:	0d00      	lsrs	r0, r0, #20
 80038fc:	e782      	b.n	8003804 <get_fat.isra.0+0x24>
 80038fe:	2001      	movs	r0, #1
 8003900:	4240      	negs	r0, r0
 8003902:	62a8      	str	r0, [r5, #40]	@ 0x28
 8003904:	e77e      	b.n	8003804 <get_fat.isra.0+0x24>
 8003906:	46c0      	nop			@ (mov r8, r8)

08003908 <dir_sdi.constprop.0>:
 8003908:	b5f0      	push	{r4, r5, r6, r7, lr}
 800390a:	2300      	movs	r3, #0
 800390c:	464f      	mov	r7, r9
 800390e:	4646      	mov	r6, r8
 8003910:	46d6      	mov	lr, sl
 8003912:	6884      	ldr	r4, [r0, #8]
 8003914:	b5c0      	push	{r6, r7, lr}
 8003916:	0006      	movs	r6, r0
 8003918:	6807      	ldr	r7, [r0, #0]
 800391a:	6103      	str	r3, [r0, #16]
 800391c:	2c00      	cmp	r4, #0
 800391e:	d112      	bne.n	8003946 <dir_sdi.constprop.0+0x3e>
 8003920:	783b      	ldrb	r3, [r7, #0]
 8003922:	2b02      	cmp	r3, #2
 8003924:	d80b      	bhi.n	800393e <dir_sdi.constprop.0+0x36>
 8003926:	893b      	ldrh	r3, [r7, #8]
 8003928:	2b00      	cmp	r3, #0
 800392a:	d012      	beq.n	8003952 <dir_sdi.constprop.0+0x4a>
 800392c:	6a3b      	ldr	r3, [r7, #32]
 800392e:	61b3      	str	r3, [r6, #24]
 8003930:	6174      	str	r4, [r6, #20]
 8003932:	2b00      	cmp	r3, #0
 8003934:	d00d      	beq.n	8003952 <dir_sdi.constprop.0+0x4a>
 8003936:	372c      	adds	r7, #44	@ 0x2c
 8003938:	2000      	movs	r0, #0
 800393a:	61f7      	str	r7, [r6, #28]
 800393c:	e00a      	b.n	8003954 <dir_sdi.constprop.0+0x4c>
 800393e:	6a3b      	ldr	r3, [r7, #32]
 8003940:	2b00      	cmp	r3, #0
 8003942:	d0f0      	beq.n	8003926 <dir_sdi.constprop.0+0x1e>
 8003944:	001c      	movs	r4, r3
 8003946:	897a      	ldrh	r2, [r7, #10]
 8003948:	2a00      	cmp	r2, #0
 800394a:	d000      	beq.n	800394e <dir_sdi.constprop.0+0x46>
 800394c:	e0a7      	b.n	8003a9e <dir_sdi.constprop.0+0x196>
 800394e:	2c01      	cmp	r4, #1
 8003950:	d105      	bne.n	800395e <dir_sdi.constprop.0+0x56>
 8003952:	2002      	movs	r0, #2
 8003954:	bce0      	pop	{r5, r6, r7}
 8003956:	46ba      	mov	sl, r7
 8003958:	46b1      	mov	r9, r6
 800395a:	46a8      	mov	r8, r5
 800395c:	bdf0      	pop	{r4, r5, r6, r7, pc}
 800395e:	003d      	movs	r5, r7
 8003960:	692b      	ldr	r3, [r5, #16]
 8003962:	42a3      	cmp	r3, r4
 8003964:	d9f5      	bls.n	8003952 <dir_sdi.constprop.0+0x4a>
 8003966:	782b      	ldrb	r3, [r5, #0]
 8003968:	2b02      	cmp	r3, #2
 800396a:	d04e      	beq.n	8003a0a <dir_sdi.constprop.0+0x102>
 800396c:	2b03      	cmp	r3, #3
 800396e:	d029      	beq.n	80039c4 <dir_sdi.constprop.0+0xbc>
 8003970:	2b01      	cmp	r3, #1
 8003972:	d1ee      	bne.n	8003952 <dir_sdi.constprop.0+0x4a>
 8003974:	0863      	lsrs	r3, r4, #1
 8003976:	4698      	mov	r8, r3
 8003978:	44a0      	add	r8, r4
 800397a:	4643      	mov	r3, r8
 800397c:	0a5b      	lsrs	r3, r3, #9
 800397e:	4699      	mov	r9, r3
 8003980:	69e8      	ldr	r0, [r5, #28]
 8003982:	6aa9      	ldr	r1, [r5, #40]	@ 0x28
 8003984:	4481      	add	r9, r0
 8003986:	4589      	cmp	r9, r1
 8003988:	d163      	bne.n	8003a52 <dir_sdi.constprop.0+0x14a>
 800398a:	2301      	movs	r3, #1
 800398c:	4443      	add	r3, r8
 800398e:	4699      	mov	r9, r3
 8003990:	4643      	mov	r3, r8
 8003992:	05db      	lsls	r3, r3, #23
 8003994:	0ddb      	lsrs	r3, r3, #23
 8003996:	18eb      	adds	r3, r5, r3
 8003998:	332c      	adds	r3, #44	@ 0x2c
 800399a:	781b      	ldrb	r3, [r3, #0]
 800399c:	4698      	mov	r8, r3
 800399e:	464b      	mov	r3, r9
 80039a0:	0a5b      	lsrs	r3, r3, #9
 80039a2:	469a      	mov	sl, r3
 80039a4:	4482      	add	sl, r0
 80039a6:	458a      	cmp	sl, r1
 80039a8:	d144      	bne.n	8003a34 <dir_sdi.constprop.0+0x12c>
 80039aa:	464b      	mov	r3, r9
 80039ac:	4642      	mov	r2, r8
 80039ae:	05db      	lsls	r3, r3, #23
 80039b0:	0ddb      	lsrs	r3, r3, #23
 80039b2:	18eb      	adds	r3, r5, r3
 80039b4:	332c      	adds	r3, #44	@ 0x2c
 80039b6:	781b      	ldrb	r3, [r3, #0]
 80039b8:	021b      	lsls	r3, r3, #8
 80039ba:	4313      	orrs	r3, r2
 80039bc:	07e4      	lsls	r4, r4, #31
 80039be:	d545      	bpl.n	8003a4c <dir_sdi.constprop.0+0x144>
 80039c0:	091c      	lsrs	r4, r3, #4
 80039c2:	e01b      	b.n	80039fc <dir_sdi.constprop.0+0xf4>
 80039c4:	09e3      	lsrs	r3, r4, #7
 80039c6:	4698      	mov	r8, r3
 80039c8:	232c      	movs	r3, #44	@ 0x2c
 80039ca:	4699      	mov	r9, r3
 80039cc:	69ea      	ldr	r2, [r5, #28]
 80039ce:	6aab      	ldr	r3, [r5, #40]	@ 0x28
 80039d0:	4490      	add	r8, r2
 80039d2:	44a9      	add	r9, r5
 80039d4:	4598      	cmp	r8, r3
 80039d6:	d14a      	bne.n	8003a6e <dir_sdi.constprop.0+0x166>
 80039d8:	23fe      	movs	r3, #254	@ 0xfe
 80039da:	00a4      	lsls	r4, r4, #2
 80039dc:	005b      	lsls	r3, r3, #1
 80039de:	401c      	ands	r4, r3
 80039e0:	464b      	mov	r3, r9
 80039e2:	5d1b      	ldrb	r3, [r3, r4]
 80039e4:	444c      	add	r4, r9
 80039e6:	7862      	ldrb	r2, [r4, #1]
 80039e8:	0212      	lsls	r2, r2, #8
 80039ea:	431a      	orrs	r2, r3
 80039ec:	78a3      	ldrb	r3, [r4, #2]
 80039ee:	78e4      	ldrb	r4, [r4, #3]
 80039f0:	041b      	lsls	r3, r3, #16
 80039f2:	4313      	orrs	r3, r2
 80039f4:	0624      	lsls	r4, r4, #24
 80039f6:	431c      	orrs	r4, r3
 80039f8:	0124      	lsls	r4, r4, #4
 80039fa:	0924      	lsrs	r4, r4, #4
 80039fc:	2c01      	cmp	r4, #1
 80039fe:	d9a8      	bls.n	8003952 <dir_sdi.constprop.0+0x4a>
 8003a00:	693b      	ldr	r3, [r7, #16]
 8003a02:	429c      	cmp	r4, r3
 8003a04:	d2a5      	bcs.n	8003952 <dir_sdi.constprop.0+0x4a>
 8003a06:	6835      	ldr	r5, [r6, #0]
 8003a08:	e7aa      	b.n	8003960 <dir_sdi.constprop.0+0x58>
 8003a0a:	0a23      	lsrs	r3, r4, #8
 8003a0c:	4698      	mov	r8, r3
 8003a0e:	232c      	movs	r3, #44	@ 0x2c
 8003a10:	4699      	mov	r9, r3
 8003a12:	69ea      	ldr	r2, [r5, #28]
 8003a14:	6aab      	ldr	r3, [r5, #40]	@ 0x28
 8003a16:	4490      	add	r8, r2
 8003a18:	44a9      	add	r9, r5
 8003a1a:	4598      	cmp	r8, r3
 8003a1c:	d134      	bne.n	8003a88 <dir_sdi.constprop.0+0x180>
 8003a1e:	23ff      	movs	r3, #255	@ 0xff
 8003a20:	0064      	lsls	r4, r4, #1
 8003a22:	005b      	lsls	r3, r3, #1
 8003a24:	401c      	ands	r4, r3
 8003a26:	464b      	mov	r3, r9
 8003a28:	5d1b      	ldrb	r3, [r3, r4]
 8003a2a:	444c      	add	r4, r9
 8003a2c:	7864      	ldrb	r4, [r4, #1]
 8003a2e:	0224      	lsls	r4, r4, #8
 8003a30:	431c      	orrs	r4, r3
 8003a32:	e7e3      	b.n	80039fc <dir_sdi.constprop.0+0xf4>
 8003a34:	0029      	movs	r1, r5
 8003a36:	2301      	movs	r3, #1
 8003a38:	4652      	mov	r2, sl
 8003a3a:	7868      	ldrb	r0, [r5, #1]
 8003a3c:	312c      	adds	r1, #44	@ 0x2c
 8003a3e:	f7ff fb53 	bl	80030e8 <disk_read>
 8003a42:	2800      	cmp	r0, #0
 8003a44:	d11b      	bne.n	8003a7e <dir_sdi.constprop.0+0x176>
 8003a46:	4653      	mov	r3, sl
 8003a48:	62ab      	str	r3, [r5, #40]	@ 0x28
 8003a4a:	e7ae      	b.n	80039aa <dir_sdi.constprop.0+0xa2>
 8003a4c:	051b      	lsls	r3, r3, #20
 8003a4e:	0d1c      	lsrs	r4, r3, #20
 8003a50:	e7d4      	b.n	80039fc <dir_sdi.constprop.0+0xf4>
 8003a52:	0029      	movs	r1, r5
 8003a54:	2301      	movs	r3, #1
 8003a56:	464a      	mov	r2, r9
 8003a58:	7868      	ldrb	r0, [r5, #1]
 8003a5a:	312c      	adds	r1, #44	@ 0x2c
 8003a5c:	f7ff fb44 	bl	80030e8 <disk_read>
 8003a60:	2800      	cmp	r0, #0
 8003a62:	d10c      	bne.n	8003a7e <dir_sdi.constprop.0+0x176>
 8003a64:	464b      	mov	r3, r9
 8003a66:	4649      	mov	r1, r9
 8003a68:	69e8      	ldr	r0, [r5, #28]
 8003a6a:	62ab      	str	r3, [r5, #40]	@ 0x28
 8003a6c:	e78d      	b.n	800398a <dir_sdi.constprop.0+0x82>
 8003a6e:	2301      	movs	r3, #1
 8003a70:	4642      	mov	r2, r8
 8003a72:	4649      	mov	r1, r9
 8003a74:	7868      	ldrb	r0, [r5, #1]
 8003a76:	f7ff fb37 	bl	80030e8 <disk_read>
 8003a7a:	2800      	cmp	r0, #0
 8003a7c:	d018      	beq.n	8003ab0 <dir_sdi.constprop.0+0x1a8>
 8003a7e:	2301      	movs	r3, #1
 8003a80:	425b      	negs	r3, r3
 8003a82:	2001      	movs	r0, #1
 8003a84:	62ab      	str	r3, [r5, #40]	@ 0x28
 8003a86:	e765      	b.n	8003954 <dir_sdi.constprop.0+0x4c>
 8003a88:	2301      	movs	r3, #1
 8003a8a:	4642      	mov	r2, r8
 8003a8c:	4649      	mov	r1, r9
 8003a8e:	7868      	ldrb	r0, [r5, #1]
 8003a90:	f7ff fb2a 	bl	80030e8 <disk_read>
 8003a94:	2800      	cmp	r0, #0
 8003a96:	d1f2      	bne.n	8003a7e <dir_sdi.constprop.0+0x176>
 8003a98:	4643      	mov	r3, r8
 8003a9a:	62ab      	str	r3, [r5, #40]	@ 0x28
 8003a9c:	e7bf      	b.n	8003a1e <dir_sdi.constprop.0+0x116>
 8003a9e:	6939      	ldr	r1, [r7, #16]
 8003aa0:	1ea3      	subs	r3, r4, #2
 8003aa2:	3902      	subs	r1, #2
 8003aa4:	428b      	cmp	r3, r1
 8003aa6:	d206      	bcs.n	8003ab6 <dir_sdi.constprop.0+0x1ae>
 8003aa8:	4353      	muls	r3, r2
 8003aaa:	6a7a      	ldr	r2, [r7, #36]	@ 0x24
 8003aac:	189b      	adds	r3, r3, r2
 8003aae:	e73e      	b.n	800392e <dir_sdi.constprop.0+0x26>
 8003ab0:	4643      	mov	r3, r8
 8003ab2:	62ab      	str	r3, [r5, #40]	@ 0x28
 8003ab4:	e790      	b.n	80039d8 <dir_sdi.constprop.0+0xd0>
 8003ab6:	2300      	movs	r3, #0
 8003ab8:	6174      	str	r4, [r6, #20]
 8003aba:	61b3      	str	r3, [r6, #24]
 8003abc:	e749      	b.n	8003952 <dir_sdi.constprop.0+0x4a>
 8003abe:	46c0      	nop			@ (mov r8, r8)

08003ac0 <follow_path>:
 8003ac0:	b5f0      	push	{r4, r5, r6, r7, lr}
 8003ac2:	46de      	mov	lr, fp
 8003ac4:	4657      	mov	r7, sl
 8003ac6:	464e      	mov	r6, r9
 8003ac8:	4645      	mov	r5, r8
 8003aca:	b5e0      	push	{r5, r6, r7, lr}
 8003acc:	6803      	ldr	r3, [r0, #0]
 8003ace:	b08d      	sub	sp, #52	@ 0x34
 8003ad0:	9308      	str	r3, [sp, #32]
 8003ad2:	000b      	movs	r3, r1
 8003ad4:	9003      	str	r0, [sp, #12]
 8003ad6:	781a      	ldrb	r2, [r3, #0]
 8003ad8:	2a2f      	cmp	r2, #47	@ 0x2f
 8003ada:	d001      	beq.n	8003ae0 <follow_path+0x20>
 8003adc:	2a5c      	cmp	r2, #92	@ 0x5c
 8003ade:	d101      	bne.n	8003ae4 <follow_path+0x24>
 8003ae0:	3301      	adds	r3, #1
 8003ae2:	e7f8      	b.n	8003ad6 <follow_path+0x16>
 8003ae4:	4698      	mov	r8, r3
 8003ae6:	2300      	movs	r3, #0
 8003ae8:	9f03      	ldr	r7, [sp, #12]
 8003aea:	60bb      	str	r3, [r7, #8]
 8003aec:	4643      	mov	r3, r8
 8003aee:	7818      	ldrb	r0, [r3, #0]
 8003af0:	9b08      	ldr	r3, [sp, #32]
 8003af2:	281f      	cmp	r0, #31
 8003af4:	d800      	bhi.n	8003af8 <follow_path+0x38>
 8003af6:	e2e5      	b.n	80040c4 <follow_path+0x604>
 8003af8:	4abe      	ldr	r2, [pc, #760]	@ (8003df4 <follow_path+0x334>)
 8003afa:	9205      	str	r2, [sp, #20]
 8003afc:	4abe      	ldr	r2, [pc, #760]	@ (8003df8 <follow_path+0x338>)
 8003afe:	920a      	str	r2, [sp, #40]	@ 0x28
 8003b00:	68db      	ldr	r3, [r3, #12]
 8003b02:	469b      	mov	fp, r3
 8003b04:	2800      	cmp	r0, #0
 8003b06:	d10b      	bne.n	8003b20 <follow_path+0x60>
 8003b08:	2300      	movs	r3, #0
 8003b0a:	465a      	mov	r2, fp
 8003b0c:	8013      	strh	r3, [r2, #0]
 8003b0e:	2606      	movs	r6, #6
 8003b10:	0030      	movs	r0, r6
 8003b12:	b00d      	add	sp, #52	@ 0x34
 8003b14:	bcf0      	pop	{r4, r5, r6, r7}
 8003b16:	46bb      	mov	fp, r7
 8003b18:	46b2      	mov	sl, r6
 8003b1a:	46a9      	mov	r9, r5
 8003b1c:	46a0      	mov	r8, r4
 8003b1e:	bdf0      	pop	{r4, r5, r6, r7, pc}
 8003b20:	4643      	mov	r3, r8
 8003b22:	3301      	adds	r3, #1
 8003b24:	9301      	str	r3, [sp, #4]
 8003b26:	003b      	movs	r3, r7
 8003b28:	2400      	movs	r4, #0
 8003b2a:	465f      	mov	r7, fp
 8003b2c:	4646      	mov	r6, r8
 8003b2e:	4699      	mov	r9, r3
 8003b30:	49b2      	ldr	r1, [pc, #712]	@ (8003dfc <follow_path+0x33c>)
 8003b32:	f001 f8d5 	bl	8004ce0 <ff_oem2uni>
 8003b36:	1e05      	subs	r5, r0, #0
 8003b38:	d0e9      	beq.n	8003b0e <follow_path+0x4e>
 8003b3a:	281f      	cmp	r0, #31
 8003b3c:	d800      	bhi.n	8003b40 <follow_path+0x80>
 8003b3e:	e2f8      	b.n	8004132 <follow_path+0x672>
 8003b40:	282f      	cmp	r0, #47	@ 0x2f
 8003b42:	d100      	bne.n	8003b46 <follow_path+0x86>
 8003b44:	e22f      	b.n	8003fa6 <follow_path+0x4e6>
 8003b46:	285c      	cmp	r0, #92	@ 0x5c
 8003b48:	d100      	bne.n	8003b4c <follow_path+0x8c>
 8003b4a:	e22c      	b.n	8003fa6 <follow_path+0x4e6>
 8003b4c:	287f      	cmp	r0, #127	@ 0x7f
 8003b4e:	d805      	bhi.n	8003b5c <follow_path+0x9c>
 8003b50:	0001      	movs	r1, r0
 8003b52:	9805      	ldr	r0, [sp, #20]
 8003b54:	f002 fd8c 	bl	8006670 <strchr>
 8003b58:	2800      	cmp	r0, #0
 8003b5a:	d1d8      	bne.n	8003b0e <follow_path+0x4e>
 8003b5c:	2c28      	cmp	r4, #40	@ 0x28
 8003b5e:	d0d6      	beq.n	8003b0e <follow_path+0x4e>
 8003b60:	9b01      	ldr	r3, [sp, #4]
 8003b62:	803d      	strh	r5, [r7, #0]
 8003b64:	3401      	adds	r4, #1
 8003b66:	5d30      	ldrb	r0, [r6, r4]
 8003b68:	3301      	adds	r3, #1
 8003b6a:	9301      	str	r3, [sp, #4]
 8003b6c:	3702      	adds	r7, #2
 8003b6e:	2800      	cmp	r0, #0
 8003b70:	d1de      	bne.n	8003b30 <follow_path+0x70>
 8003b72:	2304      	movs	r3, #4
 8003b74:	464f      	mov	r7, r9
 8003b76:	4698      	mov	r8, r3
 8003b78:	4ba1      	ldr	r3, [pc, #644]	@ (8003e00 <follow_path+0x340>)
 8003b7a:	18e3      	adds	r3, r4, r3
 8003b7c:	005b      	lsls	r3, r3, #1
 8003b7e:	445b      	add	r3, fp
 8003b80:	881a      	ldrh	r2, [r3, #0]
 8003b82:	2a20      	cmp	r2, #32
 8003b84:	d001      	beq.n	8003b8a <follow_path+0xca>
 8003b86:	2a2e      	cmp	r2, #46	@ 0x2e
 8003b88:	d106      	bne.n	8003b98 <follow_path+0xd8>
 8003b8a:	3c01      	subs	r4, #1
 8003b8c:	3b02      	subs	r3, #2
 8003b8e:	2c00      	cmp	r4, #0
 8003b90:	d1f6      	bne.n	8003b80 <follow_path+0xc0>
 8003b92:	465b      	mov	r3, fp
 8003b94:	801c      	strh	r4, [r3, #0]
 8003b96:	e7ba      	b.n	8003b0e <follow_path+0x4e>
 8003b98:	2300      	movs	r3, #0
 8003b9a:	465a      	mov	r2, fp
 8003b9c:	0066      	lsls	r6, r4, #1
 8003b9e:	5393      	strh	r3, [r2, r6]
 8003ba0:	8813      	ldrh	r3, [r2, #0]
 8003ba2:	2b20      	cmp	r3, #32
 8003ba4:	d000      	beq.n	8003ba8 <follow_path+0xe8>
 8003ba6:	e248      	b.n	800403a <follow_path+0x57a>
 8003ba8:	465b      	mov	r3, fp
 8003baa:	2100      	movs	r1, #0
 8003bac:	3302      	adds	r3, #2
 8003bae:	001a      	movs	r2, r3
 8003bb0:	3302      	adds	r3, #2
 8003bb2:	1e98      	subs	r0, r3, #2
 8003bb4:	8800      	ldrh	r0, [r0, #0]
 8003bb6:	000d      	movs	r5, r1
 8003bb8:	3101      	adds	r1, #1
 8003bba:	2820      	cmp	r0, #32
 8003bbc:	d0f7      	beq.n	8003bae <follow_path+0xee>
 8003bbe:	4691      	mov	r9, r2
 8003bc0:	3502      	adds	r5, #2
 8003bc2:	4642      	mov	r2, r8
 8003bc4:	2303      	movs	r3, #3
 8003bc6:	431a      	orrs	r2, r3
 8003bc8:	4690      	mov	r8, r2
 8003bca:	1eb2      	subs	r2, r6, #2
 8003bcc:	0013      	movs	r3, r2
 8003bce:	445b      	add	r3, fp
 8003bd0:	e003      	b.n	8003bda <follow_path+0x11a>
 8003bd2:	3c01      	subs	r4, #1
 8003bd4:	3b02      	subs	r3, #2
 8003bd6:	2c00      	cmp	r4, #0
 8003bd8:	d002      	beq.n	8003be0 <follow_path+0x120>
 8003bda:	881a      	ldrh	r2, [r3, #0]
 8003bdc:	2a2e      	cmp	r2, #46	@ 0x2e
 8003bde:	d1f8      	bne.n	8003bd2 <follow_path+0x112>
 8003be0:	2320      	movs	r3, #32
 8003be2:	469c      	mov	ip, r3
 8003be4:	44bc      	add	ip, r7
 8003be6:	4663      	mov	r3, ip
 8003be8:	220b      	movs	r2, #11
 8003bea:	0018      	movs	r0, r3
 8003bec:	2120      	movs	r1, #32
 8003bee:	9307      	str	r3, [sp, #28]
 8003bf0:	f002 fd36 	bl	8006660 <memset>
 8003bf4:	464b      	mov	r3, r9
 8003bf6:	881b      	ldrh	r3, [r3, #0]
 8003bf8:	4699      	mov	r9, r3
 8003bfa:	2b00      	cmp	r3, #0
 8003bfc:	d100      	bne.n	8003c00 <follow_path+0x140>
 8003bfe:	e2a4      	b.n	800414a <follow_path+0x68a>
 8003c00:	2300      	movs	r3, #0
 8003c02:	9302      	str	r3, [sp, #8]
 8003c04:	3308      	adds	r3, #8
 8003c06:	469a      	mov	sl, r3
 8003c08:	2300      	movs	r3, #0
 8003c0a:	464e      	mov	r6, r9
 8003c0c:	46b9      	mov	r9, r7
 8003c0e:	0027      	movs	r7, r4
 8003c10:	4644      	mov	r4, r8
 8003c12:	9304      	str	r3, [sp, #16]
 8003c14:	2e20      	cmp	r6, #32
 8003c16:	d100      	bne.n	8003c1a <follow_path+0x15a>
 8003c18:	e1b9      	b.n	8003f8e <follow_path+0x4ce>
 8003c1a:	2e2e      	cmp	r6, #46	@ 0x2e
 8003c1c:	d100      	bne.n	8003c20 <follow_path+0x160>
 8003c1e:	e1d6      	b.n	8003fce <follow_path+0x50e>
 8003c20:	9b04      	ldr	r3, [sp, #16]
 8003c22:	459a      	cmp	sl, r3
 8003c24:	d900      	bls.n	8003c28 <follow_path+0x168>
 8003c26:	e1ee      	b.n	8004006 <follow_path+0x546>
 8003c28:	4653      	mov	r3, sl
 8003c2a:	2b0b      	cmp	r3, #11
 8003c2c:	d100      	bne.n	8003c30 <follow_path+0x170>
 8003c2e:	e1d4      	b.n	8003fda <follow_path+0x51a>
 8003c30:	42af      	cmp	r7, r5
 8003c32:	d100      	bne.n	8003c36 <follow_path+0x176>
 8003c34:	e207      	b.n	8004046 <follow_path+0x586>
 8003c36:	2303      	movs	r3, #3
 8003c38:	431c      	orrs	r4, r3
 8003c3a:	42af      	cmp	r7, r5
 8003c3c:	d300      	bcc.n	8003c40 <follow_path+0x180>
 8003c3e:	e202      	b.n	8004046 <follow_path+0x586>
 8003c40:	464f      	mov	r7, r9
 8003c42:	2320      	movs	r3, #32
 8003c44:	5cfa      	ldrb	r2, [r7, r3]
 8003c46:	46a0      	mov	r8, r4
 8003c48:	2ae5      	cmp	r2, #229	@ 0xe5
 8003c4a:	d101      	bne.n	8003c50 <follow_path+0x190>
 8003c4c:	3ae0      	subs	r2, #224	@ 0xe0
 8003c4e:	54fa      	strb	r2, [r7, r3]
 8003c50:	4653      	mov	r3, sl
 8003c52:	2b08      	cmp	r3, #8
 8003c54:	d100      	bne.n	8003c58 <follow_path+0x198>
 8003c56:	e200      	b.n	800405a <follow_path+0x59a>
 8003c58:	230c      	movs	r3, #12
 8003c5a:	9a02      	ldr	r2, [sp, #8]
 8003c5c:	4013      	ands	r3, r2
 8003c5e:	2b0c      	cmp	r3, #12
 8003c60:	d100      	bne.n	8003c64 <follow_path+0x1a4>
 8003c62:	e1e5      	b.n	8004030 <follow_path+0x570>
 8003c64:	9b02      	ldr	r3, [sp, #8]
 8003c66:	43db      	mvns	r3, r3
 8003c68:	079b      	lsls	r3, r3, #30
 8003c6a:	d100      	bne.n	8003c6e <follow_path+0x1ae>
 8003c6c:	e1e0      	b.n	8004030 <follow_path+0x570>
 8003c6e:	4643      	mov	r3, r8
 8003c70:	079b      	lsls	r3, r3, #30
 8003c72:	d40d      	bmi.n	8003c90 <follow_path+0x1d0>
 8003c74:	9b02      	ldr	r3, [sp, #8]
 8003c76:	07db      	lsls	r3, r3, #31
 8003c78:	d503      	bpl.n	8003c82 <follow_path+0x1c2>
 8003c7a:	4642      	mov	r2, r8
 8003c7c:	2310      	movs	r3, #16
 8003c7e:	431a      	orrs	r2, r3
 8003c80:	4690      	mov	r8, r2
 8003c82:	9b02      	ldr	r3, [sp, #8]
 8003c84:	075b      	lsls	r3, r3, #29
 8003c86:	d503      	bpl.n	8003c90 <follow_path+0x1d0>
 8003c88:	4642      	mov	r2, r8
 8003c8a:	2308      	movs	r3, #8
 8003c8c:	431a      	orrs	r2, r3
 8003c8e:	4690      	mov	r8, r2
 8003c90:	4643      	mov	r3, r8
 8003c92:	252b      	movs	r5, #43	@ 0x2b
 8003c94:	0038      	movs	r0, r7
 8003c96:	557b      	strb	r3, [r7, r5]
 8003c98:	683c      	ldr	r4, [r7, #0]
 8003c9a:	f7ff fe35 	bl	8003908 <dir_sdi.constprop.0>
 8003c9e:	1e03      	subs	r3, r0, #0
 8003ca0:	d000      	beq.n	8003ca4 <follow_path+0x1e4>
 8003ca2:	e1a9      	b.n	8003ff8 <follow_path+0x538>
 8003ca4:	3b01      	subs	r3, #1
 8003ca6:	62fb      	str	r3, [r7, #44]	@ 0x2c
 8003ca8:	69bb      	ldr	r3, [r7, #24]
 8003caa:	46a1      	mov	r9, r4
 8003cac:	4698      	mov	r8, r3
 8003cae:	23ff      	movs	r3, #255	@ 0xff
 8003cb0:	9306      	str	r3, [sp, #24]
 8003cb2:	9302      	str	r3, [sp, #8]
 8003cb4:	3bd3      	subs	r3, #211	@ 0xd3
 8003cb6:	469c      	mov	ip, r3
 8003cb8:	44a4      	add	ip, r4
 8003cba:	4663      	mov	r3, ip
 8003cbc:	9304      	str	r3, [sp, #16]
 8003cbe:	233f      	movs	r3, #63	@ 0x3f
 8003cc0:	4646      	mov	r6, r8
 8003cc2:	469b      	mov	fp, r3
 8003cc4:	464b      	mov	r3, r9
 8003cc6:	6a9b      	ldr	r3, [r3, #40]	@ 0x28
 8003cc8:	42b3      	cmp	r3, r6
 8003cca:	d010      	beq.n	8003cee <follow_path+0x22e>
 8003ccc:	464b      	mov	r3, r9
 8003cce:	0032      	movs	r2, r6
 8003cd0:	7858      	ldrb	r0, [r3, #1]
 8003cd2:	9904      	ldr	r1, [sp, #16]
 8003cd4:	2301      	movs	r3, #1
 8003cd6:	f7ff fa07 	bl	80030e8 <disk_read>
 8003cda:	2800      	cmp	r0, #0
 8003cdc:	d005      	beq.n	8003cea <follow_path+0x22a>
 8003cde:	2301      	movs	r3, #1
 8003ce0:	464a      	mov	r2, r9
 8003ce2:	425b      	negs	r3, r3
 8003ce4:	2601      	movs	r6, #1
 8003ce6:	6293      	str	r3, [r2, #40]	@ 0x28
 8003ce8:	e712      	b.n	8003b10 <follow_path+0x50>
 8003cea:	464b      	mov	r3, r9
 8003cec:	629e      	str	r6, [r3, #40]	@ 0x28
 8003cee:	69fe      	ldr	r6, [r7, #28]
 8003cf0:	7833      	ldrb	r3, [r6, #0]
 8003cf2:	2b00      	cmp	r3, #0
 8003cf4:	d01c      	beq.n	8003d30 <follow_path+0x270>
 8003cf6:	465a      	mov	r2, fp
 8003cf8:	7af5      	ldrb	r5, [r6, #11]
 8003cfa:	402a      	ands	r2, r5
 8003cfc:	71ba      	strb	r2, [r7, #6]
 8003cfe:	2be5      	cmp	r3, #229	@ 0xe5
 8003d00:	d006      	beq.n	8003d10 <follow_path+0x250>
 8003d02:	2108      	movs	r1, #8
 8003d04:	000c      	movs	r4, r1
 8003d06:	402c      	ands	r4, r5
 8003d08:	4229      	tst	r1, r5
 8003d0a:	d02e      	beq.n	8003d6a <follow_path+0x2aa>
 8003d0c:	2a0f      	cmp	r2, #15
 8003d0e:	d045      	beq.n	8003d9c <follow_path+0x2dc>
 8003d10:	2301      	movs	r3, #1
 8003d12:	425b      	negs	r3, r3
 8003d14:	62fb      	str	r3, [r7, #44]	@ 0x2c
 8003d16:	3301      	adds	r3, #1
 8003d18:	33ff      	adds	r3, #255	@ 0xff
 8003d1a:	9302      	str	r3, [sp, #8]
 8003d1c:	2380      	movs	r3, #128	@ 0x80
 8003d1e:	693d      	ldr	r5, [r7, #16]
 8003d20:	683c      	ldr	r4, [r7, #0]
 8003d22:	3520      	adds	r5, #32
 8003d24:	039b      	lsls	r3, r3, #14
 8003d26:	429d      	cmp	r5, r3
 8003d28:	d307      	bcc.n	8003d3a <follow_path+0x27a>
 8003d2a:	2300      	movs	r3, #0
 8003d2c:	9a03      	ldr	r2, [sp, #12]
 8003d2e:	6193      	str	r3, [r2, #24]
 8003d30:	2604      	movs	r6, #4
 8003d32:	232b      	movs	r3, #43	@ 0x2b
 8003d34:	9a03      	ldr	r2, [sp, #12]
 8003d36:	5cd3      	ldrb	r3, [r2, r3]
 8003d38:	e161      	b.n	8003ffe <follow_path+0x53e>
 8003d3a:	69be      	ldr	r6, [r7, #24]
 8003d3c:	2e00      	cmp	r6, #0
 8003d3e:	d0f7      	beq.n	8003d30 <follow_path+0x270>
 8003d40:	05eb      	lsls	r3, r5, #23
 8003d42:	0dda      	lsrs	r2, r3, #23
 8003d44:	4690      	mov	r8, r2
 8003d46:	2b00      	cmp	r3, #0
 8003d48:	d10a      	bne.n	8003d60 <follow_path+0x2a0>
 8003d4a:	6979      	ldr	r1, [r7, #20]
 8003d4c:	3601      	adds	r6, #1
 8003d4e:	61be      	str	r6, [r7, #24]
 8003d50:	2900      	cmp	r1, #0
 8003d52:	d000      	beq.n	8003d56 <follow_path+0x296>
 8003d54:	e07d      	b.n	8003e52 <follow_path+0x392>
 8003d56:	8922      	ldrh	r2, [r4, #8]
 8003d58:	096b      	lsrs	r3, r5, #5
 8003d5a:	4293      	cmp	r3, r2
 8003d5c:	d300      	bcc.n	8003d60 <follow_path+0x2a0>
 8003d5e:	e10c      	b.n	8003f7a <follow_path+0x4ba>
 8003d60:	342c      	adds	r4, #44	@ 0x2c
 8003d62:	4444      	add	r4, r8
 8003d64:	613d      	str	r5, [r7, #16]
 8003d66:	61fc      	str	r4, [r7, #28]
 8003d68:	e7ac      	b.n	8003cc4 <follow_path+0x204>
 8003d6a:	2a0f      	cmp	r2, #15
 8003d6c:	d016      	beq.n	8003d9c <follow_path+0x2dc>
 8003d6e:	9b02      	ldr	r3, [sp, #8]
 8003d70:	2b00      	cmp	r3, #0
 8003d72:	d100      	bne.n	8003d76 <follow_path+0x2b6>
 8003d74:	e08f      	b.n	8003e96 <follow_path+0x3d6>
 8003d76:	232b      	movs	r3, #43	@ 0x2b
 8003d78:	5cfb      	ldrb	r3, [r7, r3]
 8003d7a:	4698      	mov	r8, r3
 8003d7c:	07db      	lsls	r3, r3, #31
 8003d7e:	d407      	bmi.n	8003d90 <follow_path+0x2d0>
 8003d80:	220b      	movs	r2, #11
 8003d82:	0030      	movs	r0, r6
 8003d84:	9907      	ldr	r1, [sp, #28]
 8003d86:	f002 fc4a 	bl	800661e <memcmp>
 8003d8a:	2800      	cmp	r0, #0
 8003d8c:	d100      	bne.n	8003d90 <follow_path+0x2d0>
 8003d8e:	e1d4      	b.n	800413a <follow_path+0x67a>
 8003d90:	2301      	movs	r3, #1
 8003d92:	425b      	negs	r3, r3
 8003d94:	62fb      	str	r3, [r7, #44]	@ 0x2c
 8003d96:	23ff      	movs	r3, #255	@ 0xff
 8003d98:	9302      	str	r3, [sp, #8]
 8003d9a:	e7bf      	b.n	8003d1c <follow_path+0x25c>
 8003d9c:	212b      	movs	r1, #43	@ 0x2b
 8003d9e:	2240      	movs	r2, #64	@ 0x40
 8003da0:	5c79      	ldrb	r1, [r7, r1]
 8003da2:	420a      	tst	r2, r1
 8003da4:	d1ba      	bne.n	8003d1c <follow_path+0x25c>
 8003da6:	421a      	tst	r2, r3
 8003da8:	d100      	bne.n	8003dac <follow_path+0x2ec>
 8003daa:	e0e1      	b.n	8003f70 <follow_path+0x4b0>
 8003dac:	4393      	bics	r3, r2
 8003dae:	7b71      	ldrb	r1, [r6, #13]
 8003db0:	9302      	str	r3, [sp, #8]
 8003db2:	693b      	ldr	r3, [r7, #16]
 8003db4:	9106      	str	r1, [sp, #24]
 8003db6:	62fb      	str	r3, [r7, #44]	@ 0x2c
 8003db8:	7b73      	ldrb	r3, [r6, #13]
 8003dba:	9a06      	ldr	r2, [sp, #24]
 8003dbc:	4293      	cmp	r3, r2
 8003dbe:	d1ea      	bne.n	8003d96 <follow_path+0x2d6>
 8003dc0:	7ef3      	ldrb	r3, [r6, #27]
 8003dc2:	7eb2      	ldrb	r2, [r6, #26]
 8003dc4:	021b      	lsls	r3, r3, #8
 8003dc6:	4313      	orrs	r3, r2
 8003dc8:	d1e5      	bne.n	8003d96 <follow_path+0x2d6>
 8003dca:	464b      	mov	r3, r9
 8003dcc:	68db      	ldr	r3, [r3, #12]
 8003dce:	7832      	ldrb	r2, [r6, #0]
 8003dd0:	9309      	str	r3, [sp, #36]	@ 0x24
 8003dd2:	233f      	movs	r3, #63	@ 0x3f
 8003dd4:	4013      	ands	r3, r2
 8003dd6:	3b01      	subs	r3, #1
 8003dd8:	005a      	lsls	r2, r3, #1
 8003dda:	18d2      	adds	r2, r2, r3
 8003ddc:	0092      	lsls	r2, r2, #2
 8003dde:	4690      	mov	r8, r2
 8003de0:	4498      	add	r8, r3
 8003de2:	464b      	mov	r3, r9
 8003de4:	46ba      	mov	sl, r7
 8003de6:	2101      	movs	r1, #1
 8003de8:	0037      	movs	r7, r6
 8003dea:	4d06      	ldr	r5, [pc, #24]	@ (8003e04 <follow_path+0x344>)
 8003dec:	4646      	mov	r6, r8
 8003dee:	930b      	str	r3, [sp, #44]	@ 0x2c
 8003df0:	e020      	b.n	8003e34 <follow_path+0x374>
 8003df2:	46c0      	nop			@ (mov r8, r8)
 8003df4:	0800773c 	.word	0x0800773c
 8003df8:	08007748 	.word	0x08007748
 8003dfc:	00000362 	.word	0x00000362
 8003e00:	7fffffff 	.word	0x7fffffff
 8003e04:	080077d0 	.word	0x080077d0
 8003e08:	2e28      	cmp	r6, #40	@ 0x28
 8003e0a:	d81e      	bhi.n	8003e4a <follow_path+0x38a>
 8003e0c:	0020      	movs	r0, r4
 8003e0e:	f000 ff7d 	bl	8004d0c <ff_wtoupper>
 8003e12:	1c73      	adds	r3, r6, #1
 8003e14:	4699      	mov	r9, r3
 8003e16:	9b09      	ldr	r3, [sp, #36]	@ 0x24
 8003e18:	0076      	lsls	r6, r6, #1
 8003e1a:	4680      	mov	r8, r0
 8003e1c:	5af0      	ldrh	r0, [r6, r3]
 8003e1e:	f000 ff75 	bl	8004d0c <ff_wtoupper>
 8003e22:	4580      	cmp	r8, r0
 8003e24:	d111      	bne.n	8003e4a <follow_path+0x38a>
 8003e26:	0021      	movs	r1, r4
 8003e28:	464e      	mov	r6, r9
 8003e2a:	4bd1      	ldr	r3, [pc, #836]	@ (8004170 <follow_path+0x6b0>)
 8003e2c:	3501      	adds	r5, #1
 8003e2e:	429d      	cmp	r5, r3
 8003e30:	d100      	bne.n	8003e34 <follow_path+0x374>
 8003e32:	e161      	b.n	80040f8 <follow_path+0x638>
 8003e34:	782b      	ldrb	r3, [r5, #0]
 8003e36:	5cfa      	ldrb	r2, [r7, r3]
 8003e38:	18fb      	adds	r3, r7, r3
 8003e3a:	785c      	ldrb	r4, [r3, #1]
 8003e3c:	0224      	lsls	r4, r4, #8
 8003e3e:	4314      	orrs	r4, r2
 8003e40:	2900      	cmp	r1, #0
 8003e42:	d1e1      	bne.n	8003e08 <follow_path+0x348>
 8003e44:	4bcb      	ldr	r3, [pc, #812]	@ (8004174 <follow_path+0x6b4>)
 8003e46:	429c      	cmp	r4, r3
 8003e48:	d0ef      	beq.n	8003e2a <follow_path+0x36a>
 8003e4a:	9b0b      	ldr	r3, [sp, #44]	@ 0x2c
 8003e4c:	4657      	mov	r7, sl
 8003e4e:	4699      	mov	r9, r3
 8003e50:	e7a1      	b.n	8003d96 <follow_path+0x2d6>
 8003e52:	0a6a      	lsrs	r2, r5, #9
 8003e54:	0010      	movs	r0, r2
 8003e56:	8963      	ldrh	r3, [r4, #10]
 8003e58:	3b01      	subs	r3, #1
 8003e5a:	4018      	ands	r0, r3
 8003e5c:	4682      	mov	sl, r0
 8003e5e:	421a      	tst	r2, r3
 8003e60:	d000      	beq.n	8003e64 <follow_path+0x3a4>
 8003e62:	e77d      	b.n	8003d60 <follow_path+0x2a0>
 8003e64:	0020      	movs	r0, r4
 8003e66:	f7ff fcbb 	bl	80037e0 <get_fat.isra.0>
 8003e6a:	2801      	cmp	r0, #1
 8003e6c:	d800      	bhi.n	8003e70 <follow_path+0x3b0>
 8003e6e:	e100      	b.n	8004072 <follow_path+0x5b2>
 8003e70:	1c43      	adds	r3, r0, #1
 8003e72:	d100      	bne.n	8003e76 <follow_path+0x3b6>
 8003e74:	e0fb      	b.n	800406e <follow_path+0x5ae>
 8003e76:	6923      	ldr	r3, [r4, #16]
 8003e78:	4298      	cmp	r0, r3
 8003e7a:	d300      	bcc.n	8003e7e <follow_path+0x3be>
 8003e7c:	e0fb      	b.n	8004076 <follow_path+0x5b6>
 8003e7e:	6178      	str	r0, [r7, #20]
 8003e80:	3b02      	subs	r3, #2
 8003e82:	3802      	subs	r0, #2
 8003e84:	4298      	cmp	r0, r3
 8003e86:	d300      	bcc.n	8003e8a <follow_path+0x3ca>
 8003e88:	e0ee      	b.n	8004068 <follow_path+0x5a8>
 8003e8a:	8963      	ldrh	r3, [r4, #10]
 8003e8c:	6a66      	ldr	r6, [r4, #36]	@ 0x24
 8003e8e:	4358      	muls	r0, r3
 8003e90:	1986      	adds	r6, r0, r6
 8003e92:	61be      	str	r6, [r7, #24]
 8003e94:	e764      	b.n	8003d60 <follow_path+0x2a0>
 8003e96:	7832      	ldrb	r2, [r6, #0]
 8003e98:	0853      	lsrs	r3, r2, #1
 8003e9a:	01d2      	lsls	r2, r2, #7
 8003e9c:	4313      	orrs	r3, r2
 8003e9e:	7872      	ldrb	r2, [r6, #1]
 8003ea0:	189b      	adds	r3, r3, r2
 8003ea2:	b2da      	uxtb	r2, r3
 8003ea4:	0852      	lsrs	r2, r2, #1
 8003ea6:	01db      	lsls	r3, r3, #7
 8003ea8:	431a      	orrs	r2, r3
 8003eaa:	78b3      	ldrb	r3, [r6, #2]
 8003eac:	b2d2      	uxtb	r2, r2
 8003eae:	18d2      	adds	r2, r2, r3
 8003eb0:	b2d3      	uxtb	r3, r2
 8003eb2:	085b      	lsrs	r3, r3, #1
 8003eb4:	01d2      	lsls	r2, r2, #7
 8003eb6:	4313      	orrs	r3, r2
 8003eb8:	78f2      	ldrb	r2, [r6, #3]
 8003eba:	b2db      	uxtb	r3, r3
 8003ebc:	189b      	adds	r3, r3, r2
 8003ebe:	b2da      	uxtb	r2, r3
 8003ec0:	0852      	lsrs	r2, r2, #1
 8003ec2:	01db      	lsls	r3, r3, #7
 8003ec4:	431a      	orrs	r2, r3
 8003ec6:	7933      	ldrb	r3, [r6, #4]
 8003ec8:	b2d2      	uxtb	r2, r2
 8003eca:	18d2      	adds	r2, r2, r3
 8003ecc:	b2d3      	uxtb	r3, r2
 8003ece:	085b      	lsrs	r3, r3, #1
 8003ed0:	01d2      	lsls	r2, r2, #7
 8003ed2:	4313      	orrs	r3, r2
 8003ed4:	7972      	ldrb	r2, [r6, #5]
 8003ed6:	b2db      	uxtb	r3, r3
 8003ed8:	189b      	adds	r3, r3, r2
 8003eda:	b2da      	uxtb	r2, r3
 8003edc:	0852      	lsrs	r2, r2, #1
 8003ede:	01db      	lsls	r3, r3, #7
 8003ee0:	431a      	orrs	r2, r3
 8003ee2:	79b3      	ldrb	r3, [r6, #6]
 8003ee4:	b2d2      	uxtb	r2, r2
 8003ee6:	18d2      	adds	r2, r2, r3
 8003ee8:	b2d3      	uxtb	r3, r2
 8003eea:	085b      	lsrs	r3, r3, #1
 8003eec:	01d2      	lsls	r2, r2, #7
 8003eee:	4313      	orrs	r3, r2
 8003ef0:	79f2      	ldrb	r2, [r6, #7]
 8003ef2:	b2db      	uxtb	r3, r3
 8003ef4:	189b      	adds	r3, r3, r2
 8003ef6:	b2da      	uxtb	r2, r3
 8003ef8:	0852      	lsrs	r2, r2, #1
 8003efa:	01db      	lsls	r3, r3, #7
 8003efc:	431a      	orrs	r2, r3
 8003efe:	7a33      	ldrb	r3, [r6, #8]
 8003f00:	b2d2      	uxtb	r2, r2
 8003f02:	18d2      	adds	r2, r2, r3
 8003f04:	b2d3      	uxtb	r3, r2
 8003f06:	085b      	lsrs	r3, r3, #1
 8003f08:	01d2      	lsls	r2, r2, #7
 8003f0a:	4313      	orrs	r3, r2
 8003f0c:	7a72      	ldrb	r2, [r6, #9]
 8003f0e:	b2db      	uxtb	r3, r3
 8003f10:	189b      	adds	r3, r3, r2
 8003f12:	b2da      	uxtb	r2, r3
 8003f14:	0852      	lsrs	r2, r2, #1
 8003f16:	01db      	lsls	r3, r3, #7
 8003f18:	4313      	orrs	r3, r2
 8003f1a:	7ab2      	ldrb	r2, [r6, #10]
 8003f1c:	189b      	adds	r3, r3, r2
 8003f1e:	9a06      	ldr	r2, [sp, #24]
 8003f20:	b2db      	uxtb	r3, r3
 8003f22:	4293      	cmp	r3, r2
 8003f24:	d000      	beq.n	8003f28 <follow_path+0x468>
 8003f26:	e726      	b.n	8003d76 <follow_path+0x2b6>
 8003f28:	232b      	movs	r3, #43	@ 0x2b
 8003f2a:	5cfb      	ldrb	r3, [r7, r3]
 8003f2c:	46a0      	mov	r8, r4
 8003f2e:	4699      	mov	r9, r3
 8003f30:	464b      	mov	r3, r9
 8003f32:	075b      	lsls	r3, r3, #29
 8003f34:	d500      	bpl.n	8003f38 <follow_path+0x478>
 8003f36:	e106      	b.n	8004146 <follow_path+0x686>
 8003f38:	06ed      	lsls	r5, r5, #27
 8003f3a:	d526      	bpl.n	8003f8a <follow_path+0x4ca>
 8003f3c:	9808      	ldr	r0, [sp, #32]
 8003f3e:	693a      	ldr	r2, [r7, #16]
 8003f40:	0003      	movs	r3, r0
 8003f42:	05d2      	lsls	r2, r2, #23
 8003f44:	0dd2      	lsrs	r2, r2, #23
 8003f46:	332c      	adds	r3, #44	@ 0x2c
 8003f48:	189b      	adds	r3, r3, r2
 8003f4a:	7eda      	ldrb	r2, [r3, #27]
 8003f4c:	7e99      	ldrb	r1, [r3, #26]
 8003f4e:	0212      	lsls	r2, r2, #8
 8003f50:	430a      	orrs	r2, r1
 8003f52:	7801      	ldrb	r1, [r0, #0]
 8003f54:	2903      	cmp	r1, #3
 8003f56:	d105      	bne.n	8003f64 <follow_path+0x4a4>
 8003f58:	7d19      	ldrb	r1, [r3, #20]
 8003f5a:	7d5b      	ldrb	r3, [r3, #21]
 8003f5c:	021b      	lsls	r3, r3, #8
 8003f5e:	430b      	orrs	r3, r1
 8003f60:	041b      	lsls	r3, r3, #16
 8003f62:	431a      	orrs	r2, r3
 8003f64:	60ba      	str	r2, [r7, #8]
 8003f66:	9a01      	ldr	r2, [sp, #4]
 8003f68:	683b      	ldr	r3, [r7, #0]
 8003f6a:	4690      	mov	r8, r2
 8003f6c:	7810      	ldrb	r0, [r2, #0]
 8003f6e:	e5c7      	b.n	8003b00 <follow_path+0x40>
 8003f70:	9a02      	ldr	r2, [sp, #8]
 8003f72:	4293      	cmp	r3, r2
 8003f74:	d000      	beq.n	8003f78 <follow_path+0x4b8>
 8003f76:	e70e      	b.n	8003d96 <follow_path+0x2d6>
 8003f78:	e71e      	b.n	8003db8 <follow_path+0x2f8>
 8003f7a:	232b      	movs	r3, #43	@ 0x2b
 8003f7c:	9a03      	ldr	r2, [sp, #12]
 8003f7e:	6191      	str	r1, [r2, #24]
 8003f80:	5cd3      	ldrb	r3, [r2, r3]
 8003f82:	2604      	movs	r6, #4
 8003f84:	075b      	lsls	r3, r3, #29
 8003f86:	d500      	bpl.n	8003f8a <follow_path+0x4ca>
 8003f88:	e5c2      	b.n	8003b10 <follow_path+0x50>
 8003f8a:	2605      	movs	r6, #5
 8003f8c:	e5c0      	b.n	8003b10 <follow_path+0x50>
 8003f8e:	2303      	movs	r3, #3
 8003f90:	431c      	orrs	r4, r3
 8003f92:	002b      	movs	r3, r5
 8003f94:	b2e4      	uxtb	r4, r4
 8003f96:	465a      	mov	r2, fp
 8003f98:	1c5d      	adds	r5, r3, #1
 8003f9a:	005b      	lsls	r3, r3, #1
 8003f9c:	5a9e      	ldrh	r6, [r3, r2]
 8003f9e:	2e00      	cmp	r6, #0
 8003fa0:	d000      	beq.n	8003fa4 <follow_path+0x4e4>
 8003fa2:	e637      	b.n	8003c14 <follow_path+0x154>
 8003fa4:	e64c      	b.n	8003c40 <follow_path+0x180>
 8003fa6:	464f      	mov	r7, r9
 8003fa8:	9a01      	ldr	r2, [sp, #4]
 8003faa:	7813      	ldrb	r3, [r2, #0]
 8003fac:	2b2f      	cmp	r3, #47	@ 0x2f
 8003fae:	d001      	beq.n	8003fb4 <follow_path+0x4f4>
 8003fb0:	2b5c      	cmp	r3, #92	@ 0x5c
 8003fb2:	d101      	bne.n	8003fb8 <follow_path+0x4f8>
 8003fb4:	3201      	adds	r2, #1
 8003fb6:	e7f8      	b.n	8003faa <follow_path+0x4ea>
 8003fb8:	211f      	movs	r1, #31
 8003fba:	9201      	str	r2, [sp, #4]
 8003fbc:	2200      	movs	r2, #0
 8003fbe:	4299      	cmp	r1, r3
 8003fc0:	4152      	adcs	r2, r2
 8003fc2:	0093      	lsls	r3, r2, #2
 8003fc4:	4698      	mov	r8, r3
 8003fc6:	2c00      	cmp	r4, #0
 8003fc8:	d000      	beq.n	8003fcc <follow_path+0x50c>
 8003fca:	e5d5      	b.n	8003b78 <follow_path+0xb8>
 8003fcc:	e59c      	b.n	8003b08 <follow_path+0x48>
 8003fce:	42af      	cmp	r7, r5
 8003fd0:	d1dd      	bne.n	8003f8e <follow_path+0x4ce>
 8003fd2:	4653      	mov	r3, sl
 8003fd4:	2b0b      	cmp	r3, #11
 8003fd6:	d000      	beq.n	8003fda <follow_path+0x51a>
 8003fd8:	e62f      	b.n	8003c3a <follow_path+0x17a>
 8003fda:	464f      	mov	r7, r9
 8003fdc:	2320      	movs	r3, #32
 8003fde:	5cfa      	ldrb	r2, [r7, r3]
 8003fe0:	46a0      	mov	r8, r4
 8003fe2:	2ae5      	cmp	r2, #229	@ 0xe5
 8003fe4:	d100      	bne.n	8003fe8 <follow_path+0x528>
 8003fe6:	e0b9      	b.n	800415c <follow_path+0x69c>
 8003fe8:	2303      	movs	r3, #3
 8003fea:	4642      	mov	r2, r8
 8003fec:	431a      	orrs	r2, r3
 8003fee:	4690      	mov	r8, r2
 8003ff0:	9a02      	ldr	r2, [sp, #8]
 8003ff2:	3309      	adds	r3, #9
 8003ff4:	4013      	ands	r3, r2
 8003ff6:	e632      	b.n	8003c5e <follow_path+0x19e>
 8003ff8:	0006      	movs	r6, r0
 8003ffa:	9b03      	ldr	r3, [sp, #12]
 8003ffc:	5d5b      	ldrb	r3, [r3, r5]
 8003ffe:	2e04      	cmp	r6, #4
 8004000:	d000      	beq.n	8004004 <follow_path+0x544>
 8004002:	e585      	b.n	8003b10 <follow_path+0x50>
 8004004:	e7bd      	b.n	8003f82 <follow_path+0x4c2>
 8004006:	42af      	cmp	r7, r5
 8004008:	d0e3      	beq.n	8003fd2 <follow_path+0x512>
 800400a:	2e7f      	cmp	r6, #127	@ 0x7f
 800400c:	d839      	bhi.n	8004082 <follow_path+0x5c2>
 800400e:	0031      	movs	r1, r6
 8004010:	980a      	ldr	r0, [sp, #40]	@ 0x28
 8004012:	f002 fb2d 	bl	8006670 <strchr>
 8004016:	2800      	cmp	r0, #0
 8004018:	d05c      	beq.n	80040d4 <follow_path+0x614>
 800401a:	2303      	movs	r3, #3
 800401c:	265f      	movs	r6, #95	@ 0x5f
 800401e:	431c      	orrs	r4, r3
 8004020:	9b04      	ldr	r3, [sp, #16]
 8004022:	1c5a      	adds	r2, r3, #1
 8004024:	444b      	add	r3, r9
 8004026:	3320      	adds	r3, #32
 8004028:	701e      	strb	r6, [r3, #0]
 800402a:	9204      	str	r2, [sp, #16]
 800402c:	002b      	movs	r3, r5
 800402e:	e7b2      	b.n	8003f96 <follow_path+0x4d6>
 8004030:	4642      	mov	r2, r8
 8004032:	2302      	movs	r3, #2
 8004034:	431a      	orrs	r2, r3
 8004036:	4690      	mov	r8, r2
 8004038:	e62a      	b.n	8003c90 <follow_path+0x1d0>
 800403a:	46d9      	mov	r9, fp
 800403c:	2501      	movs	r5, #1
 800403e:	2b2e      	cmp	r3, #46	@ 0x2e
 8004040:	d000      	beq.n	8004044 <follow_path+0x584>
 8004042:	e5c2      	b.n	8003bca <follow_path+0x10a>
 8004044:	e5bd      	b.n	8003bc2 <follow_path+0x102>
 8004046:	220b      	movs	r2, #11
 8004048:	9b02      	ldr	r3, [sp, #8]
 800404a:	4692      	mov	sl, r2
 800404c:	009b      	lsls	r3, r3, #2
 800404e:	b2db      	uxtb	r3, r3
 8004050:	3a03      	subs	r2, #3
 8004052:	9302      	str	r3, [sp, #8]
 8004054:	9204      	str	r2, [sp, #16]
 8004056:	003b      	movs	r3, r7
 8004058:	e79d      	b.n	8003f96 <follow_path+0x4d6>
 800405a:	9b02      	ldr	r3, [sp, #8]
 800405c:	009b      	lsls	r3, r3, #2
 800405e:	b2da      	uxtb	r2, r3
 8004060:	9202      	str	r2, [sp, #8]
 8004062:	220c      	movs	r2, #12
 8004064:	4013      	ands	r3, r2
 8004066:	e5fa      	b.n	8003c5e <follow_path+0x19e>
 8004068:	2600      	movs	r6, #0
 800406a:	61be      	str	r6, [r7, #24]
 800406c:	e678      	b.n	8003d60 <follow_path+0x2a0>
 800406e:	2601      	movs	r6, #1
 8004070:	e65f      	b.n	8003d32 <follow_path+0x272>
 8004072:	2602      	movs	r6, #2
 8004074:	e65d      	b.n	8003d32 <follow_path+0x272>
 8004076:	4653      	mov	r3, sl
 8004078:	9a03      	ldr	r2, [sp, #12]
 800407a:	6193      	str	r3, [r2, #24]
 800407c:	232b      	movs	r3, #43	@ 0x2b
 800407e:	5cd3      	ldrb	r3, [r2, r3]
 8004080:	e77f      	b.n	8003f82 <follow_path+0x4c2>
 8004082:	2302      	movs	r3, #2
 8004084:	0030      	movs	r0, r6
 8004086:	4323      	orrs	r3, r4
 8004088:	493b      	ldr	r1, [pc, #236]	@ (8004178 <follow_path+0x6b8>)
 800408a:	4698      	mov	r8, r3
 800408c:	f000 fe06 	bl	8004c9c <ff_uni2oem>
 8004090:	0006      	movs	r6, r0
 8004092:	0603      	lsls	r3, r0, #24
 8004094:	d507      	bpl.n	80040a6 <follow_path+0x5e6>
 8004096:	237f      	movs	r3, #127	@ 0x7f
 8004098:	4a38      	ldr	r2, [pc, #224]	@ (800417c <follow_path+0x6bc>)
 800409a:	4003      	ands	r3, r0
 800409c:	5cd6      	ldrb	r6, [r2, r3]
 800409e:	4644      	mov	r4, r8
 80040a0:	2e00      	cmp	r6, #0
 80040a2:	d0ba      	beq.n	800401a <follow_path+0x55a>
 80040a4:	e7b3      	b.n	800400e <follow_path+0x54e>
 80040a6:	28ff      	cmp	r0, #255	@ 0xff
 80040a8:	d9f9      	bls.n	800409e <follow_path+0x5de>
 80040aa:	4653      	mov	r3, sl
 80040ac:	9a04      	ldr	r2, [sp, #16]
 80040ae:	3b01      	subs	r3, #1
 80040b0:	4293      	cmp	r3, r2
 80040b2:	d956      	bls.n	8004162 <follow_path+0x6a2>
 80040b4:	1c53      	adds	r3, r2, #1
 80040b6:	444a      	add	r2, r9
 80040b8:	3220      	adds	r2, #32
 80040ba:	0a01      	lsrs	r1, r0, #8
 80040bc:	4644      	mov	r4, r8
 80040be:	7011      	strb	r1, [r2, #0]
 80040c0:	b2c6      	uxtb	r6, r0
 80040c2:	e7ae      	b.n	8004022 <follow_path+0x562>
 80040c4:	232b      	movs	r3, #43	@ 0x2b
 80040c6:	2280      	movs	r2, #128	@ 0x80
 80040c8:	0038      	movs	r0, r7
 80040ca:	54fa      	strb	r2, [r7, r3]
 80040cc:	f7ff fc1c 	bl	8003908 <dir_sdi.constprop.0>
 80040d0:	0006      	movs	r6, r0
 80040d2:	e51d      	b.n	8003b10 <follow_path+0x50>
 80040d4:	0033      	movs	r3, r6
 80040d6:	3b41      	subs	r3, #65	@ 0x41
 80040d8:	b29b      	uxth	r3, r3
 80040da:	2b19      	cmp	r3, #25
 80040dc:	d922      	bls.n	8004124 <follow_path+0x664>
 80040de:	0033      	movs	r3, r6
 80040e0:	3b61      	subs	r3, #97	@ 0x61
 80040e2:	b29b      	uxth	r3, r3
 80040e4:	2b19      	cmp	r3, #25
 80040e6:	d804      	bhi.n	80040f2 <follow_path+0x632>
 80040e8:	2301      	movs	r3, #1
 80040ea:	9a02      	ldr	r2, [sp, #8]
 80040ec:	3e20      	subs	r6, #32
 80040ee:	431a      	orrs	r2, r3
 80040f0:	9202      	str	r2, [sp, #8]
 80040f2:	9b04      	ldr	r3, [sp, #16]
 80040f4:	b2f6      	uxtb	r6, r6
 80040f6:	e794      	b.n	8004022 <follow_path+0x562>
 80040f8:	46b0      	mov	r8, r6
 80040fa:	003e      	movs	r6, r7
 80040fc:	9b0b      	ldr	r3, [sp, #44]	@ 0x2c
 80040fe:	4657      	mov	r7, sl
 8004100:	4699      	mov	r9, r3
 8004102:	7833      	ldrb	r3, [r6, #0]
 8004104:	065b      	lsls	r3, r3, #25
 8004106:	d508      	bpl.n	800411a <follow_path+0x65a>
 8004108:	2900      	cmp	r1, #0
 800410a:	d006      	beq.n	800411a <follow_path+0x65a>
 800410c:	4643      	mov	r3, r8
 800410e:	9a09      	ldr	r2, [sp, #36]	@ 0x24
 8004110:	005b      	lsls	r3, r3, #1
 8004112:	5a9b      	ldrh	r3, [r3, r2]
 8004114:	2b00      	cmp	r3, #0
 8004116:	d000      	beq.n	800411a <follow_path+0x65a>
 8004118:	e63d      	b.n	8003d96 <follow_path+0x2d6>
 800411a:	9b02      	ldr	r3, [sp, #8]
 800411c:	3b01      	subs	r3, #1
 800411e:	b2db      	uxtb	r3, r3
 8004120:	9302      	str	r3, [sp, #8]
 8004122:	e5fb      	b.n	8003d1c <follow_path+0x25c>
 8004124:	2302      	movs	r3, #2
 8004126:	9a02      	ldr	r2, [sp, #8]
 8004128:	b2f6      	uxtb	r6, r6
 800412a:	431a      	orrs	r2, r3
 800412c:	9202      	str	r2, [sp, #8]
 800412e:	9b04      	ldr	r3, [sp, #16]
 8004130:	e777      	b.n	8004022 <follow_path+0x562>
 8004132:	2304      	movs	r3, #4
 8004134:	464f      	mov	r7, r9
 8004136:	4698      	mov	r8, r3
 8004138:	e745      	b.n	8003fc6 <follow_path+0x506>
 800413a:	46c1      	mov	r9, r8
 800413c:	464b      	mov	r3, r9
 800413e:	46a0      	mov	r8, r4
 8004140:	075b      	lsls	r3, r3, #29
 8004142:	d400      	bmi.n	8004146 <follow_path+0x686>
 8004144:	e6f8      	b.n	8003f38 <follow_path+0x478>
 8004146:	4646      	mov	r6, r8
 8004148:	e4e2      	b.n	8003b10 <follow_path+0x50>
 800414a:	4642      	mov	r2, r8
 800414c:	3302      	adds	r3, #2
 800414e:	401a      	ands	r2, r3
 8004150:	9202      	str	r2, [sp, #8]
 8004152:	4642      	mov	r2, r8
 8004154:	4213      	tst	r3, r2
 8004156:	d100      	bne.n	800415a <follow_path+0x69a>
 8004158:	e593      	b.n	8003c82 <follow_path+0x1c2>
 800415a:	e599      	b.n	8003c90 <follow_path+0x1d0>
 800415c:	2205      	movs	r2, #5
 800415e:	54fa      	strb	r2, [r7, r3]
 8004160:	e742      	b.n	8003fe8 <follow_path+0x528>
 8004162:	2303      	movs	r3, #3
 8004164:	4652      	mov	r2, sl
 8004166:	431c      	orrs	r4, r3
 8004168:	9204      	str	r2, [sp, #16]
 800416a:	002b      	movs	r3, r5
 800416c:	e713      	b.n	8003f96 <follow_path+0x4d6>
 800416e:	46c0      	nop			@ (mov r8, r8)
 8004170:	080077dd 	.word	0x080077dd
 8004174:	0000ffff 	.word	0x0000ffff
 8004178:	00000362 	.word	0x00000362
 800417c:	08007750 	.word	0x08007750

08004180 <f_mount>:
 8004180:	b510      	push	{r4, lr}
 8004182:	b082      	sub	sp, #8
 8004184:	9001      	str	r0, [sp, #4]
 8004186:	9100      	str	r1, [sp, #0]
 8004188:	1e08      	subs	r0, r1, #0
 800418a:	d026      	beq.n	80041da <f_mount+0x5a>
 800418c:	000c      	movs	r4, r1
 800418e:	e001      	b.n	8004194 <f_mount+0x14>
 8004190:	2b3a      	cmp	r3, #58	@ 0x3a
 8004192:	d01a      	beq.n	80041ca <f_mount+0x4a>
 8004194:	7823      	ldrb	r3, [r4, #0]
 8004196:	3401      	adds	r4, #1
 8004198:	2b1f      	cmp	r3, #31
 800419a:	d8f9      	bhi.n	8004190 <f_mount+0x10>
 800419c:	4b10      	ldr	r3, [pc, #64]	@ (80041e0 <f_mount+0x60>)
 800419e:	6819      	ldr	r1, [r3, #0]
 80041a0:	2900      	cmp	r1, #0
 80041a2:	d002      	beq.n	80041aa <f_mount+0x2a>
 80041a4:	2000      	movs	r0, #0
 80041a6:	6018      	str	r0, [r3, #0]
 80041a8:	7008      	strb	r0, [r1, #0]
 80041aa:	9901      	ldr	r1, [sp, #4]
 80041ac:	2900      	cmp	r1, #0
 80041ae:	d002      	beq.n	80041b6 <f_mount+0x36>
 80041b0:	2000      	movs	r0, #0
 80041b2:	6019      	str	r1, [r3, #0]
 80041b4:	8008      	strh	r0, [r1, #0]
 80041b6:	2000      	movs	r0, #0
 80041b8:	2a00      	cmp	r2, #0
 80041ba:	d101      	bne.n	80041c0 <f_mount+0x40>
 80041bc:	b002      	add	sp, #8
 80041be:	bd10      	pop	{r4, pc}
 80041c0:	4668      	mov	r0, sp
 80041c2:	a901      	add	r1, sp, #4
 80041c4:	f7ff f978 	bl	80034b8 <mount_volume.constprop.0>
 80041c8:	e7f8      	b.n	80041bc <f_mount+0x3c>
 80041ca:	7803      	ldrb	r3, [r0, #0]
 80041cc:	2b30      	cmp	r3, #48	@ 0x30
 80041ce:	d104      	bne.n	80041da <f_mount+0x5a>
 80041d0:	1c81      	adds	r1, r0, #2
 80041d2:	200b      	movs	r0, #11
 80041d4:	428c      	cmp	r4, r1
 80041d6:	d1f1      	bne.n	80041bc <f_mount+0x3c>
 80041d8:	e7e0      	b.n	800419c <f_mount+0x1c>
 80041da:	200b      	movs	r0, #11
 80041dc:	e7ee      	b.n	80041bc <f_mount+0x3c>
 80041de:	46c0      	nop			@ (mov r8, r8)
 80041e0:	200003d0 	.word	0x200003d0

080041e4 <f_open>:
 80041e4:	b5f0      	push	{r4, r5, r6, r7, lr}
 80041e6:	b091      	sub	sp, #68	@ 0x44
 80041e8:	0004      	movs	r4, r0
 80041ea:	0015      	movs	r5, r2
 80041ec:	9101      	str	r1, [sp, #4]
 80041ee:	2800      	cmp	r0, #0
 80041f0:	d044      	beq.n	800427c <f_open+0x98>
 80041f2:	a903      	add	r1, sp, #12
 80041f4:	a801      	add	r0, sp, #4
 80041f6:	f7ff f95f 	bl	80034b8 <mount_volume.constprop.0>
 80041fa:	2800      	cmp	r0, #0
 80041fc:	d003      	beq.n	8004206 <f_open+0x22>
 80041fe:	2300      	movs	r3, #0
 8004200:	6023      	str	r3, [r4, #0]
 8004202:	b011      	add	sp, #68	@ 0x44
 8004204:	bdf0      	pop	{r4, r5, r6, r7, pc}
 8004206:	9e03      	ldr	r6, [sp, #12]
 8004208:	9901      	ldr	r1, [sp, #4]
 800420a:	a804      	add	r0, sp, #16
 800420c:	9604      	str	r6, [sp, #16]
 800420e:	f7ff fc57 	bl	8003ac0 <follow_path>
 8004212:	2800      	cmp	r0, #0
 8004214:	d1f3      	bne.n	80041fe <f_open+0x1a>
 8004216:	466a      	mov	r2, sp
 8004218:	2110      	movs	r1, #16
 800421a:	232b      	movs	r3, #43	@ 0x2b
 800421c:	1852      	adds	r2, r2, r1
 800421e:	5cd3      	ldrb	r3, [r2, r3]
 8004220:	2b7f      	cmp	r3, #127	@ 0x7f
 8004222:	d82d      	bhi.n	8004280 <f_open+0x9c>
 8004224:	2210      	movs	r2, #16
 8004226:	466b      	mov	r3, sp
 8004228:	0010      	movs	r0, r2
 800422a:	7d9b      	ldrb	r3, [r3, #22]
 800422c:	4018      	ands	r0, r3
 800422e:	421a      	tst	r2, r3
 8004230:	d128      	bne.n	8004284 <f_open+0xa0>
 8004232:	9b0b      	ldr	r3, [sp, #44]	@ 0x2c
 8004234:	7eda      	ldrb	r2, [r3, #27]
 8004236:	7e99      	ldrb	r1, [r3, #26]
 8004238:	0212      	lsls	r2, r2, #8
 800423a:	430a      	orrs	r2, r1
 800423c:	7831      	ldrb	r1, [r6, #0]
 800423e:	2903      	cmp	r1, #3
 8004240:	d105      	bne.n	800424e <f_open+0x6a>
 8004242:	7d59      	ldrb	r1, [r3, #21]
 8004244:	7d1f      	ldrb	r7, [r3, #20]
 8004246:	0209      	lsls	r1, r1, #8
 8004248:	4339      	orrs	r1, r7
 800424a:	0409      	lsls	r1, r1, #16
 800424c:	430a      	orrs	r2, r1
 800424e:	60a2      	str	r2, [r4, #8]
 8004250:	7f59      	ldrb	r1, [r3, #29]
 8004252:	7f1a      	ldrb	r2, [r3, #28]
 8004254:	0209      	lsls	r1, r1, #8
 8004256:	4311      	orrs	r1, r2
 8004258:	7f9a      	ldrb	r2, [r3, #30]
 800425a:	7fdb      	ldrb	r3, [r3, #31]
 800425c:	0412      	lsls	r2, r2, #16
 800425e:	430a      	orrs	r2, r1
 8004260:	061b      	lsls	r3, r3, #24
 8004262:	4313      	orrs	r3, r2
 8004264:	60e3      	str	r3, [r4, #12]
 8004266:	6026      	str	r6, [r4, #0]
 8004268:	88f3      	ldrh	r3, [r6, #6]
 800426a:	80a3      	strh	r3, [r4, #4]
 800426c:	2301      	movs	r3, #1
 800426e:	402b      	ands	r3, r5
 8004270:	7423      	strb	r3, [r4, #16]
 8004272:	2300      	movs	r3, #0
 8004274:	7463      	strb	r3, [r4, #17]
 8004276:	61e3      	str	r3, [r4, #28]
 8004278:	6163      	str	r3, [r4, #20]
 800427a:	e7c2      	b.n	8004202 <f_open+0x1e>
 800427c:	2009      	movs	r0, #9
 800427e:	e7c0      	b.n	8004202 <f_open+0x1e>
 8004280:	2006      	movs	r0, #6
 8004282:	e7bc      	b.n	80041fe <f_open+0x1a>
 8004284:	2004      	movs	r0, #4
 8004286:	e7ba      	b.n	80041fe <f_open+0x1a>

08004288 <f_read>:
 8004288:	b5f0      	push	{r4, r5, r6, r7, lr}
 800428a:	4657      	mov	r7, sl
 800428c:	464e      	mov	r6, r9
 800428e:	4645      	mov	r5, r8
 8004290:	46de      	mov	lr, fp
 8004292:	b5e0      	push	{r5, r6, r7, lr}
 8004294:	001f      	movs	r7, r3
 8004296:	2300      	movs	r3, #0
 8004298:	0004      	movs	r4, r0
 800429a:	4688      	mov	r8, r1
 800429c:	0016      	movs	r6, r2
 800429e:	b085      	sub	sp, #20
 80042a0:	603b      	str	r3, [r7, #0]
 80042a2:	2800      	cmp	r0, #0
 80042a4:	d009      	beq.n	80042ba <f_read+0x32>
 80042a6:	6803      	ldr	r3, [r0, #0]
 80042a8:	2b00      	cmp	r3, #0
 80042aa:	d006      	beq.n	80042ba <f_read+0x32>
 80042ac:	781a      	ldrb	r2, [r3, #0]
 80042ae:	2a00      	cmp	r2, #0
 80042b0:	d003      	beq.n	80042ba <f_read+0x32>
 80042b2:	8881      	ldrh	r1, [r0, #4]
 80042b4:	88da      	ldrh	r2, [r3, #6]
 80042b6:	4291      	cmp	r1, r2
 80042b8:	d007      	beq.n	80042ca <f_read+0x42>
 80042ba:	2009      	movs	r0, #9
 80042bc:	b005      	add	sp, #20
 80042be:	bcf0      	pop	{r4, r5, r6, r7}
 80042c0:	46bb      	mov	fp, r7
 80042c2:	46b2      	mov	sl, r6
 80042c4:	46a9      	mov	r9, r5
 80042c6:	46a0      	mov	r8, r4
 80042c8:	bdf0      	pop	{r4, r5, r6, r7, pc}
 80042ca:	7858      	ldrb	r0, [r3, #1]
 80042cc:	f7fe ff04 	bl	80030d8 <disk_status>
 80042d0:	2201      	movs	r2, #1
 80042d2:	4202      	tst	r2, r0
 80042d4:	d1f1      	bne.n	80042ba <f_read+0x32>
 80042d6:	7c60      	ldrb	r0, [r4, #17]
 80042d8:	2800      	cmp	r0, #0
 80042da:	d1ef      	bne.n	80042bc <f_read+0x34>
 80042dc:	0011      	movs	r1, r2
 80042de:	7c23      	ldrb	r3, [r4, #16]
 80042e0:	4019      	ands	r1, r3
 80042e2:	468a      	mov	sl, r1
 80042e4:	421a      	tst	r2, r3
 80042e6:	d100      	bne.n	80042ea <f_read+0x62>
 80042e8:	e09c      	b.n	8004424 <f_read+0x19c>
 80042ea:	6823      	ldr	r3, [r4, #0]
 80042ec:	68e5      	ldr	r5, [r4, #12]
 80042ee:	4699      	mov	r9, r3
 80042f0:	6963      	ldr	r3, [r4, #20]
 80042f2:	1aed      	subs	r5, r5, r3
 80042f4:	42b5      	cmp	r5, r6
 80042f6:	d900      	bls.n	80042fa <f_read+0x72>
 80042f8:	0035      	movs	r5, r6
 80042fa:	2d00      	cmp	r5, #0
 80042fc:	d0de      	beq.n	80042bc <f_read+0x34>
 80042fe:	2280      	movs	r2, #128	@ 0x80
 8004300:	0092      	lsls	r2, r2, #2
 8004302:	4693      	mov	fp, r2
 8004304:	3ad5      	subs	r2, #213	@ 0xd5
 8004306:	3aff      	subs	r2, #255	@ 0xff
 8004308:	444a      	add	r2, r9
 800430a:	9201      	str	r2, [sp, #4]
 800430c:	4652      	mov	r2, sl
 800430e:	46ba      	mov	sl, r7
 8004310:	002f      	movs	r7, r5
 8004312:	9202      	str	r2, [sp, #8]
 8004314:	9003      	str	r0, [sp, #12]
 8004316:	05da      	lsls	r2, r3, #23
 8004318:	0dd1      	lsrs	r1, r2, #23
 800431a:	2a00      	cmp	r2, #0
 800431c:	d036      	beq.n	800438c <f_read+0x104>
 800431e:	69e6      	ldr	r6, [r4, #28]
 8004320:	465b      	mov	r3, fp
 8004322:	1a5d      	subs	r5, r3, r1
 8004324:	42bd      	cmp	r5, r7
 8004326:	d900      	bls.n	800432a <f_read+0xa2>
 8004328:	003d      	movs	r5, r7
 800432a:	464b      	mov	r3, r9
 800432c:	6a9b      	ldr	r3, [r3, #40]	@ 0x28
 800432e:	429e      	cmp	r6, r3
 8004330:	d017      	beq.n	8004362 <f_read+0xda>
 8004332:	464b      	mov	r3, r9
 8004334:	0032      	movs	r2, r6
 8004336:	7858      	ldrb	r0, [r3, #1]
 8004338:	9901      	ldr	r1, [sp, #4]
 800433a:	2301      	movs	r3, #1
 800433c:	f7fe fed4 	bl	80030e8 <disk_read>
 8004340:	2800      	cmp	r0, #0
 8004342:	d009      	beq.n	8004358 <f_read+0xd0>
 8004344:	9b02      	ldr	r3, [sp, #8]
 8004346:	464a      	mov	r2, r9
 8004348:	469a      	mov	sl, r3
 800434a:	2301      	movs	r3, #1
 800434c:	425b      	negs	r3, r3
 800434e:	6293      	str	r3, [r2, #40]	@ 0x28
 8004350:	2301      	movs	r3, #1
 8004352:	4650      	mov	r0, sl
 8004354:	7463      	strb	r3, [r4, #17]
 8004356:	e7b1      	b.n	80042bc <f_read+0x34>
 8004358:	464b      	mov	r3, r9
 800435a:	6961      	ldr	r1, [r4, #20]
 800435c:	629e      	str	r6, [r3, #40]	@ 0x28
 800435e:	05c9      	lsls	r1, r1, #23
 8004360:	0dc9      	lsrs	r1, r1, #23
 8004362:	9b01      	ldr	r3, [sp, #4]
 8004364:	002a      	movs	r2, r5
 8004366:	469c      	mov	ip, r3
 8004368:	4640      	mov	r0, r8
 800436a:	4461      	add	r1, ip
 800436c:	f002 f9cc 	bl	8006708 <memcpy>
 8004370:	4653      	mov	r3, sl
 8004372:	4652      	mov	r2, sl
 8004374:	681b      	ldr	r3, [r3, #0]
 8004376:	1b7f      	subs	r7, r7, r5
 8004378:	195b      	adds	r3, r3, r5
 800437a:	6013      	str	r3, [r2, #0]
 800437c:	6963      	ldr	r3, [r4, #20]
 800437e:	44a8      	add	r8, r5
 8004380:	18eb      	adds	r3, r5, r3
 8004382:	6163      	str	r3, [r4, #20]
 8004384:	2f00      	cmp	r7, #0
 8004386:	d1c6      	bne.n	8004316 <f_read+0x8e>
 8004388:	9803      	ldr	r0, [sp, #12]
 800438a:	e797      	b.n	80042bc <f_read+0x34>
 800438c:	464a      	mov	r2, r9
 800438e:	0a59      	lsrs	r1, r3, #9
 8004390:	000d      	movs	r5, r1
 8004392:	8952      	ldrh	r2, [r2, #10]
 8004394:	3a01      	subs	r2, #1
 8004396:	4015      	ands	r5, r2
 8004398:	4211      	tst	r1, r2
 800439a:	d024      	beq.n	80043e6 <f_read+0x15e>
 800439c:	464b      	mov	r3, r9
 800439e:	69a0      	ldr	r0, [r4, #24]
 80043a0:	691b      	ldr	r3, [r3, #16]
 80043a2:	3802      	subs	r0, #2
 80043a4:	3b02      	subs	r3, #2
 80043a6:	4298      	cmp	r0, r3
 80043a8:	d22b      	bcs.n	8004402 <f_read+0x17a>
 80043aa:	464b      	mov	r3, r9
 80043ac:	464a      	mov	r2, r9
 80043ae:	895b      	ldrh	r3, [r3, #10]
 80043b0:	6a52      	ldr	r2, [r2, #36]	@ 0x24
 80043b2:	4358      	muls	r0, r3
 80043b4:	1882      	adds	r2, r0, r2
 80043b6:	2a00      	cmp	r2, #0
 80043b8:	d023      	beq.n	8004402 <f_read+0x17a>
 80043ba:	18ae      	adds	r6, r5, r2
 80043bc:	455f      	cmp	r7, fp
 80043be:	d324      	bcc.n	800440a <f_read+0x182>
 80043c0:	0a7a      	lsrs	r2, r7, #9
 80043c2:	0011      	movs	r1, r2
 80043c4:	18aa      	adds	r2, r5, r2
 80043c6:	429a      	cmp	r2, r3
 80043c8:	d901      	bls.n	80043ce <f_read+0x146>
 80043ca:	1b5b      	subs	r3, r3, r5
 80043cc:	0019      	movs	r1, r3
 80043ce:	464b      	mov	r3, r9
 80043d0:	000d      	movs	r5, r1
 80043d2:	7858      	ldrb	r0, [r3, #1]
 80043d4:	0032      	movs	r2, r6
 80043d6:	000b      	movs	r3, r1
 80043d8:	4641      	mov	r1, r8
 80043da:	f7fe fe85 	bl	80030e8 <disk_read>
 80043de:	2800      	cmp	r0, #0
 80043e0:	d118      	bne.n	8004414 <f_read+0x18c>
 80043e2:	026d      	lsls	r5, r5, #9
 80043e4:	e7c4      	b.n	8004370 <f_read+0xe8>
 80043e6:	2b00      	cmp	r3, #0
 80043e8:	d117      	bne.n	800441a <f_read+0x192>
 80043ea:	68a0      	ldr	r0, [r4, #8]
 80043ec:	2801      	cmp	r0, #1
 80043ee:	d908      	bls.n	8004402 <f_read+0x17a>
 80043f0:	1c43      	adds	r3, r0, #1
 80043f2:	d00f      	beq.n	8004414 <f_read+0x18c>
 80043f4:	464b      	mov	r3, r9
 80043f6:	691b      	ldr	r3, [r3, #16]
 80043f8:	61a0      	str	r0, [r4, #24]
 80043fa:	3b02      	subs	r3, #2
 80043fc:	3802      	subs	r0, #2
 80043fe:	4298      	cmp	r0, r3
 8004400:	d3d3      	bcc.n	80043aa <f_read+0x122>
 8004402:	2302      	movs	r3, #2
 8004404:	2002      	movs	r0, #2
 8004406:	7463      	strb	r3, [r4, #17]
 8004408:	e758      	b.n	80042bc <f_read+0x34>
 800440a:	6961      	ldr	r1, [r4, #20]
 800440c:	61e6      	str	r6, [r4, #28]
 800440e:	05c9      	lsls	r1, r1, #23
 8004410:	0dc9      	lsrs	r1, r1, #23
 8004412:	e785      	b.n	8004320 <f_read+0x98>
 8004414:	9b02      	ldr	r3, [sp, #8]
 8004416:	469a      	mov	sl, r3
 8004418:	e79a      	b.n	8004350 <f_read+0xc8>
 800441a:	69a1      	ldr	r1, [r4, #24]
 800441c:	6820      	ldr	r0, [r4, #0]
 800441e:	f7ff f9df 	bl	80037e0 <get_fat.isra.0>
 8004422:	e7e3      	b.n	80043ec <f_read+0x164>
 8004424:	2007      	movs	r0, #7
 8004426:	e749      	b.n	80042bc <f_read+0x34>

08004428 <f_close>:
 8004428:	b510      	push	{r4, lr}
 800442a:	1e04      	subs	r4, r0, #0
 800442c:	d009      	beq.n	8004442 <f_close+0x1a>
 800442e:	6803      	ldr	r3, [r0, #0]
 8004430:	2b00      	cmp	r3, #0
 8004432:	d006      	beq.n	8004442 <f_close+0x1a>
 8004434:	781a      	ldrb	r2, [r3, #0]
 8004436:	2a00      	cmp	r2, #0
 8004438:	d003      	beq.n	8004442 <f_close+0x1a>
 800443a:	8881      	ldrh	r1, [r0, #4]
 800443c:	88da      	ldrh	r2, [r3, #6]
 800443e:	4291      	cmp	r1, r2
 8004440:	d001      	beq.n	8004446 <f_close+0x1e>
 8004442:	2009      	movs	r0, #9
 8004444:	bd10      	pop	{r4, pc}
 8004446:	7858      	ldrb	r0, [r3, #1]
 8004448:	f7fe fe46 	bl	80030d8 <disk_status>
 800444c:	2201      	movs	r2, #1
 800444e:	0003      	movs	r3, r0
 8004450:	0010      	movs	r0, r2
 8004452:	4018      	ands	r0, r3
 8004454:	421a      	tst	r2, r3
 8004456:	d1f4      	bne.n	8004442 <f_close+0x1a>
 8004458:	6020      	str	r0, [r4, #0]
 800445a:	e7f3      	b.n	8004444 <f_close+0x1c>

0800445c <f_lseek>:
 800445c:	b5f0      	push	{r4, r5, r6, r7, lr}
 800445e:	4645      	mov	r5, r8
 8004460:	46de      	mov	lr, fp
 8004462:	4657      	mov	r7, sl
 8004464:	464e      	mov	r6, r9
 8004466:	b5e0      	push	{r5, r6, r7, lr}
 8004468:	0004      	movs	r4, r0
 800446a:	000d      	movs	r5, r1
 800446c:	b083      	sub	sp, #12
 800446e:	2800      	cmp	r0, #0
 8004470:	d009      	beq.n	8004486 <f_lseek+0x2a>
 8004472:	6803      	ldr	r3, [r0, #0]
 8004474:	2b00      	cmp	r3, #0
 8004476:	d006      	beq.n	8004486 <f_lseek+0x2a>
 8004478:	781a      	ldrb	r2, [r3, #0]
 800447a:	2a00      	cmp	r2, #0
 800447c:	d003      	beq.n	8004486 <f_lseek+0x2a>
 800447e:	8881      	ldrh	r1, [r0, #4]
 8004480:	88da      	ldrh	r2, [r3, #6]
 8004482:	4291      	cmp	r1, r2
 8004484:	d009      	beq.n	800449a <f_lseek+0x3e>
 8004486:	2309      	movs	r3, #9
 8004488:	4698      	mov	r8, r3
 800448a:	4640      	mov	r0, r8
 800448c:	b003      	add	sp, #12
 800448e:	bcf0      	pop	{r4, r5, r6, r7}
 8004490:	46bb      	mov	fp, r7
 8004492:	46b2      	mov	sl, r6
 8004494:	46a9      	mov	r9, r5
 8004496:	46a0      	mov	r8, r4
 8004498:	bdf0      	pop	{r4, r5, r6, r7, pc}
 800449a:	7858      	ldrb	r0, [r3, #1]
 800449c:	f7fe fe1c 	bl	80030d8 <disk_status>
 80044a0:	07c0      	lsls	r0, r0, #31
 80044a2:	d4f0      	bmi.n	8004486 <f_lseek+0x2a>
 80044a4:	7c63      	ldrb	r3, [r4, #17]
 80044a6:	4698      	mov	r8, r3
 80044a8:	2b00      	cmp	r3, #0
 80044aa:	d1ee      	bne.n	800448a <f_lseek+0x2e>
 80044ac:	6823      	ldr	r3, [r4, #0]
 80044ae:	68e7      	ldr	r7, [r4, #12]
 80044b0:	469a      	mov	sl, r3
 80044b2:	42af      	cmp	r7, r5
 80044b4:	d900      	bls.n	80044b8 <f_lseek+0x5c>
 80044b6:	002f      	movs	r7, r5
 80044b8:	2300      	movs	r3, #0
 80044ba:	6965      	ldr	r5, [r4, #20]
 80044bc:	6163      	str	r3, [r4, #20]
 80044be:	2f00      	cmp	r7, #0
 80044c0:	d0e3      	beq.n	800448a <f_lseek+0x2e>
 80044c2:	4653      	mov	r3, sl
 80044c4:	895e      	ldrh	r6, [r3, #10]
 80044c6:	0276      	lsls	r6, r6, #9
 80044c8:	2d00      	cmp	r5, #0
 80044ca:	d019      	beq.n	8004500 <f_lseek+0xa4>
 80044cc:	0031      	movs	r1, r6
 80044ce:	1e78      	subs	r0, r7, #1
 80044d0:	f7fb fe20 	bl	8000114 <__udivsi3>
 80044d4:	3d01      	subs	r5, #1
 80044d6:	4681      	mov	r9, r0
 80044d8:	0031      	movs	r1, r6
 80044da:	0028      	movs	r0, r5
 80044dc:	f7fb fe1a 	bl	8000114 <__udivsi3>
 80044e0:	4581      	cmp	r9, r0
 80044e2:	d30d      	bcc.n	8004500 <f_lseek+0xa4>
 80044e4:	4270      	negs	r0, r6
 80044e6:	69a3      	ldr	r3, [r4, #24]
 80044e8:	4028      	ands	r0, r5
 80044ea:	6160      	str	r0, [r4, #20]
 80044ec:	2b00      	cmp	r3, #0
 80044ee:	d000      	beq.n	80044f2 <f_lseek+0x96>
 80044f0:	e0ed      	b.n	80046ce <f_lseek+0x272>
 80044f2:	05c0      	lsls	r0, r0, #23
 80044f4:	d0c9      	beq.n	800448a <f_lseek+0x2e>
 80044f6:	69e2      	ldr	r2, [r4, #28]
 80044f8:	429a      	cmp	r2, r3
 80044fa:	d0c6      	beq.n	800448a <f_lseek+0x2e>
 80044fc:	61e3      	str	r3, [r4, #28]
 80044fe:	e7c4      	b.n	800448a <f_lseek+0x2e>
 8004500:	68a5      	ldr	r5, [r4, #8]
 8004502:	61a5      	str	r5, [r4, #24]
 8004504:	2d00      	cmp	r5, #0
 8004506:	d0c0      	beq.n	800448a <f_lseek+0x2e>
 8004508:	46b9      	mov	r9, r7
 800450a:	2000      	movs	r0, #0
 800450c:	454e      	cmp	r6, r9
 800450e:	d300      	bcc.n	8004512 <f_lseek+0xb6>
 8004510:	e0db      	b.n	80046ca <f_lseek+0x26e>
 8004512:	1830      	adds	r0, r6, r0
 8004514:	6160      	str	r0, [r4, #20]
 8004516:	2d01      	cmp	r5, #1
 8004518:	d00a      	beq.n	8004530 <f_lseek+0xd4>
 800451a:	464b      	mov	r3, r9
 800451c:	1b9b      	subs	r3, r3, r6
 800451e:	4699      	mov	r9, r3
 8004520:	4643      	mov	r3, r8
 8004522:	4657      	mov	r7, sl
 8004524:	46b0      	mov	r8, r6
 8004526:	464e      	mov	r6, r9
 8004528:	9301      	str	r3, [sp, #4]
 800452a:	693b      	ldr	r3, [r7, #16]
 800452c:	429d      	cmp	r5, r3
 800452e:	d303      	bcc.n	8004538 <f_lseek+0xdc>
 8004530:	2302      	movs	r3, #2
 8004532:	4698      	mov	r8, r3
 8004534:	7463      	strb	r3, [r4, #17]
 8004536:	e7a8      	b.n	800448a <f_lseek+0x2e>
 8004538:	783b      	ldrb	r3, [r7, #0]
 800453a:	2b02      	cmp	r3, #2
 800453c:	d057      	beq.n	80045ee <f_lseek+0x192>
 800453e:	2b03      	cmp	r3, #3
 8004540:	d029      	beq.n	8004596 <f_lseek+0x13a>
 8004542:	2b01      	cmp	r3, #1
 8004544:	d1f4      	bne.n	8004530 <f_lseek+0xd4>
 8004546:	086b      	lsrs	r3, r5, #1
 8004548:	4699      	mov	r9, r3
 800454a:	44a9      	add	r9, r5
 800454c:	464b      	mov	r3, r9
 800454e:	0a5b      	lsrs	r3, r3, #9
 8004550:	469b      	mov	fp, r3
 8004552:	69f9      	ldr	r1, [r7, #28]
 8004554:	6aba      	ldr	r2, [r7, #40]	@ 0x28
 8004556:	448b      	add	fp, r1
 8004558:	4593      	cmp	fp, r2
 800455a:	d173      	bne.n	8004644 <f_lseek+0x1e8>
 800455c:	2301      	movs	r3, #1
 800455e:	444b      	add	r3, r9
 8004560:	469b      	mov	fp, r3
 8004562:	464b      	mov	r3, r9
 8004564:	05db      	lsls	r3, r3, #23
 8004566:	0ddb      	lsrs	r3, r3, #23
 8004568:	18fb      	adds	r3, r7, r3
 800456a:	332c      	adds	r3, #44	@ 0x2c
 800456c:	781b      	ldrb	r3, [r3, #0]
 800456e:	9300      	str	r3, [sp, #0]
 8004570:	465b      	mov	r3, fp
 8004572:	0a5b      	lsrs	r3, r3, #9
 8004574:	4699      	mov	r9, r3
 8004576:	4489      	add	r9, r1
 8004578:	4591      	cmp	r9, r2
 800457a:	d171      	bne.n	8004660 <f_lseek+0x204>
 800457c:	465b      	mov	r3, fp
 800457e:	05db      	lsls	r3, r3, #23
 8004580:	0ddb      	lsrs	r3, r3, #23
 8004582:	18fb      	adds	r3, r7, r3
 8004584:	332c      	adds	r3, #44	@ 0x2c
 8004586:	781b      	ldrb	r3, [r3, #0]
 8004588:	9a00      	ldr	r2, [sp, #0]
 800458a:	021b      	lsls	r3, r3, #8
 800458c:	4313      	orrs	r3, r2
 800458e:	07ed      	lsls	r5, r5, #31
 8004590:	d572      	bpl.n	8004678 <f_lseek+0x21c>
 8004592:	091d      	lsrs	r5, r3, #4
 8004594:	e01b      	b.n	80045ce <f_lseek+0x172>
 8004596:	09eb      	lsrs	r3, r5, #7
 8004598:	4699      	mov	r9, r3
 800459a:	232c      	movs	r3, #44	@ 0x2c
 800459c:	469b      	mov	fp, r3
 800459e:	69fa      	ldr	r2, [r7, #28]
 80045a0:	6abb      	ldr	r3, [r7, #40]	@ 0x28
 80045a2:	4491      	add	r9, r2
 80045a4:	44bb      	add	fp, r7
 80045a6:	4599      	cmp	r9, r3
 80045a8:	d141      	bne.n	800462e <f_lseek+0x1d2>
 80045aa:	23fe      	movs	r3, #254	@ 0xfe
 80045ac:	00ad      	lsls	r5, r5, #2
 80045ae:	005b      	lsls	r3, r3, #1
 80045b0:	401d      	ands	r5, r3
 80045b2:	465b      	mov	r3, fp
 80045b4:	5d5a      	ldrb	r2, [r3, r5]
 80045b6:	445d      	add	r5, fp
 80045b8:	7869      	ldrb	r1, [r5, #1]
 80045ba:	0209      	lsls	r1, r1, #8
 80045bc:	4311      	orrs	r1, r2
 80045be:	78aa      	ldrb	r2, [r5, #2]
 80045c0:	78ed      	ldrb	r5, [r5, #3]
 80045c2:	0412      	lsls	r2, r2, #16
 80045c4:	430a      	orrs	r2, r1
 80045c6:	062d      	lsls	r5, r5, #24
 80045c8:	4315      	orrs	r5, r2
 80045ca:	012d      	lsls	r5, r5, #4
 80045cc:	092d      	lsrs	r5, r5, #4
 80045ce:	2d01      	cmp	r5, #1
 80045d0:	d9ae      	bls.n	8004530 <f_lseek+0xd4>
 80045d2:	4653      	mov	r3, sl
 80045d4:	691b      	ldr	r3, [r3, #16]
 80045d6:	42ab      	cmp	r3, r5
 80045d8:	d9aa      	bls.n	8004530 <f_lseek+0xd4>
 80045da:	6960      	ldr	r0, [r4, #20]
 80045dc:	61a5      	str	r5, [r4, #24]
 80045de:	4546      	cmp	r6, r8
 80045e0:	d954      	bls.n	800468c <f_lseek+0x230>
 80045e2:	4643      	mov	r3, r8
 80045e4:	4440      	add	r0, r8
 80045e6:	6827      	ldr	r7, [r4, #0]
 80045e8:	1af6      	subs	r6, r6, r3
 80045ea:	6160      	str	r0, [r4, #20]
 80045ec:	e79d      	b.n	800452a <f_lseek+0xce>
 80045ee:	0a2b      	lsrs	r3, r5, #8
 80045f0:	4699      	mov	r9, r3
 80045f2:	232c      	movs	r3, #44	@ 0x2c
 80045f4:	469b      	mov	fp, r3
 80045f6:	69fa      	ldr	r2, [r7, #28]
 80045f8:	6abb      	ldr	r3, [r7, #40]	@ 0x28
 80045fa:	4491      	add	r9, r2
 80045fc:	44bb      	add	fp, r7
 80045fe:	4599      	cmp	r9, r3
 8004600:	d10a      	bne.n	8004618 <f_lseek+0x1bc>
 8004602:	23ff      	movs	r3, #255	@ 0xff
 8004604:	006d      	lsls	r5, r5, #1
 8004606:	005b      	lsls	r3, r3, #1
 8004608:	401d      	ands	r5, r3
 800460a:	465b      	mov	r3, fp
 800460c:	5d5a      	ldrb	r2, [r3, r5]
 800460e:	445d      	add	r5, fp
 8004610:	786d      	ldrb	r5, [r5, #1]
 8004612:	022d      	lsls	r5, r5, #8
 8004614:	4315      	orrs	r5, r2
 8004616:	e7da      	b.n	80045ce <f_lseek+0x172>
 8004618:	2301      	movs	r3, #1
 800461a:	464a      	mov	r2, r9
 800461c:	4659      	mov	r1, fp
 800461e:	7878      	ldrb	r0, [r7, #1]
 8004620:	f7fe fd62 	bl	80030e8 <disk_read>
 8004624:	2800      	cmp	r0, #0
 8004626:	d12a      	bne.n	800467e <f_lseek+0x222>
 8004628:	464b      	mov	r3, r9
 800462a:	62bb      	str	r3, [r7, #40]	@ 0x28
 800462c:	e7e9      	b.n	8004602 <f_lseek+0x1a6>
 800462e:	2301      	movs	r3, #1
 8004630:	464a      	mov	r2, r9
 8004632:	4659      	mov	r1, fp
 8004634:	7878      	ldrb	r0, [r7, #1]
 8004636:	f7fe fd57 	bl	80030e8 <disk_read>
 800463a:	2800      	cmp	r0, #0
 800463c:	d11f      	bne.n	800467e <f_lseek+0x222>
 800463e:	464b      	mov	r3, r9
 8004640:	62bb      	str	r3, [r7, #40]	@ 0x28
 8004642:	e7b2      	b.n	80045aa <f_lseek+0x14e>
 8004644:	0039      	movs	r1, r7
 8004646:	2301      	movs	r3, #1
 8004648:	465a      	mov	r2, fp
 800464a:	7878      	ldrb	r0, [r7, #1]
 800464c:	312c      	adds	r1, #44	@ 0x2c
 800464e:	f7fe fd4b 	bl	80030e8 <disk_read>
 8004652:	2800      	cmp	r0, #0
 8004654:	d113      	bne.n	800467e <f_lseek+0x222>
 8004656:	465b      	mov	r3, fp
 8004658:	465a      	mov	r2, fp
 800465a:	69f9      	ldr	r1, [r7, #28]
 800465c:	62bb      	str	r3, [r7, #40]	@ 0x28
 800465e:	e77d      	b.n	800455c <f_lseek+0x100>
 8004660:	0039      	movs	r1, r7
 8004662:	2301      	movs	r3, #1
 8004664:	464a      	mov	r2, r9
 8004666:	7878      	ldrb	r0, [r7, #1]
 8004668:	312c      	adds	r1, #44	@ 0x2c
 800466a:	f7fe fd3d 	bl	80030e8 <disk_read>
 800466e:	2800      	cmp	r0, #0
 8004670:	d105      	bne.n	800467e <f_lseek+0x222>
 8004672:	464b      	mov	r3, r9
 8004674:	62bb      	str	r3, [r7, #40]	@ 0x28
 8004676:	e781      	b.n	800457c <f_lseek+0x120>
 8004678:	051b      	lsls	r3, r3, #20
 800467a:	0d1d      	lsrs	r5, r3, #20
 800467c:	e7a7      	b.n	80045ce <f_lseek+0x172>
 800467e:	2301      	movs	r3, #1
 8004680:	425b      	negs	r3, r3
 8004682:	62bb      	str	r3, [r7, #40]	@ 0x28
 8004684:	3302      	adds	r3, #2
 8004686:	4698      	mov	r8, r3
 8004688:	7463      	strb	r3, [r4, #17]
 800468a:	e6fe      	b.n	800448a <f_lseek+0x2e>
 800468c:	9b01      	ldr	r3, [sp, #4]
 800468e:	46b1      	mov	r9, r6
 8004690:	4698      	mov	r8, r3
 8004692:	4448      	add	r0, r9
 8004694:	464b      	mov	r3, r9
 8004696:	05da      	lsls	r2, r3, #23
 8004698:	6160      	str	r0, [r4, #20]
 800469a:	0dd3      	lsrs	r3, r2, #23
 800469c:	2a00      	cmp	r2, #0
 800469e:	d100      	bne.n	80046a2 <f_lseek+0x246>
 80046a0:	e727      	b.n	80044f2 <f_lseek+0x96>
 80046a2:	4653      	mov	r3, sl
 80046a4:	691b      	ldr	r3, [r3, #16]
 80046a6:	3d02      	subs	r5, #2
 80046a8:	3b02      	subs	r3, #2
 80046aa:	429d      	cmp	r5, r3
 80046ac:	d300      	bcc.n	80046b0 <f_lseek+0x254>
 80046ae:	e73f      	b.n	8004530 <f_lseek+0xd4>
 80046b0:	4653      	mov	r3, sl
 80046b2:	895b      	ldrh	r3, [r3, #10]
 80046b4:	435d      	muls	r5, r3
 80046b6:	4653      	mov	r3, sl
 80046b8:	6a5b      	ldr	r3, [r3, #36]	@ 0x24
 80046ba:	18ed      	adds	r5, r5, r3
 80046bc:	2d00      	cmp	r5, #0
 80046be:	d100      	bne.n	80046c2 <f_lseek+0x266>
 80046c0:	e736      	b.n	8004530 <f_lseek+0xd4>
 80046c2:	464b      	mov	r3, r9
 80046c4:	0a5b      	lsrs	r3, r3, #9
 80046c6:	195b      	adds	r3, r3, r5
 80046c8:	e713      	b.n	80044f2 <f_lseek+0x96>
 80046ca:	0038      	movs	r0, r7
 80046cc:	e7e2      	b.n	8004694 <f_lseek+0x238>
 80046ce:	1a3a      	subs	r2, r7, r0
 80046d0:	4691      	mov	r9, r2
 80046d2:	001d      	movs	r5, r3
 80046d4:	e71a      	b.n	800450c <f_lseek+0xb0>
 80046d6:	46c0      	nop			@ (mov r8, r8)

080046d8 <f_opendir>:
 80046d8:	b530      	push	{r4, r5, lr}
 80046da:	b085      	sub	sp, #20
 80046dc:	1e04      	subs	r4, r0, #0
 80046de:	9101      	str	r1, [sp, #4]
 80046e0:	d02f      	beq.n	8004742 <f_opendir+0x6a>
 80046e2:	a903      	add	r1, sp, #12
 80046e4:	a801      	add	r0, sp, #4
 80046e6:	f7fe fee7 	bl	80034b8 <mount_volume.constprop.0>
 80046ea:	2800      	cmp	r0, #0
 80046ec:	d003      	beq.n	80046f6 <f_opendir+0x1e>
 80046ee:	2300      	movs	r3, #0
 80046f0:	6023      	str	r3, [r4, #0]
 80046f2:	b005      	add	sp, #20
 80046f4:	bd30      	pop	{r4, r5, pc}
 80046f6:	9d03      	ldr	r5, [sp, #12]
 80046f8:	0020      	movs	r0, r4
 80046fa:	9901      	ldr	r1, [sp, #4]
 80046fc:	6025      	str	r5, [r4, #0]
 80046fe:	f7ff f9df 	bl	8003ac0 <follow_path>
 8004702:	2800      	cmp	r0, #0
 8004704:	d119      	bne.n	800473a <f_opendir+0x62>
 8004706:	232b      	movs	r3, #43	@ 0x2b
 8004708:	5ce3      	ldrb	r3, [r4, r3]
 800470a:	2b7f      	cmp	r3, #127	@ 0x7f
 800470c:	d80b      	bhi.n	8004726 <f_opendir+0x4e>
 800470e:	79a3      	ldrb	r3, [r4, #6]
 8004710:	06db      	lsls	r3, r3, #27
 8004712:	d514      	bpl.n	800473e <f_opendir+0x66>
 8004714:	69e2      	ldr	r2, [r4, #28]
 8004716:	7ed3      	ldrb	r3, [r2, #27]
 8004718:	7e91      	ldrb	r1, [r2, #26]
 800471a:	021b      	lsls	r3, r3, #8
 800471c:	430b      	orrs	r3, r1
 800471e:	7829      	ldrb	r1, [r5, #0]
 8004720:	2903      	cmp	r1, #3
 8004722:	d010      	beq.n	8004746 <f_opendir+0x6e>
 8004724:	60a3      	str	r3, [r4, #8]
 8004726:	88eb      	ldrh	r3, [r5, #6]
 8004728:	0020      	movs	r0, r4
 800472a:	80a3      	strh	r3, [r4, #4]
 800472c:	f7ff f8ec 	bl	8003908 <dir_sdi.constprop.0>
 8004730:	2804      	cmp	r0, #4
 8004732:	d004      	beq.n	800473e <f_opendir+0x66>
 8004734:	2800      	cmp	r0, #0
 8004736:	d0dc      	beq.n	80046f2 <f_opendir+0x1a>
 8004738:	e7d9      	b.n	80046ee <f_opendir+0x16>
 800473a:	2804      	cmp	r0, #4
 800473c:	d1d7      	bne.n	80046ee <f_opendir+0x16>
 800473e:	2005      	movs	r0, #5
 8004740:	e7d5      	b.n	80046ee <f_opendir+0x16>
 8004742:	2009      	movs	r0, #9
 8004744:	e7d5      	b.n	80046f2 <f_opendir+0x1a>
 8004746:	7d11      	ldrb	r1, [r2, #20]
 8004748:	7d52      	ldrb	r2, [r2, #21]
 800474a:	0212      	lsls	r2, r2, #8
 800474c:	430a      	orrs	r2, r1
 800474e:	0412      	lsls	r2, r2, #16
 8004750:	4313      	orrs	r3, r2
 8004752:	60a3      	str	r3, [r4, #8]
 8004754:	e7e7      	b.n	8004726 <f_opendir+0x4e>
 8004756:	46c0      	nop			@ (mov r8, r8)

08004758 <f_closedir>:
 8004758:	b510      	push	{r4, lr}
 800475a:	1e04      	subs	r4, r0, #0
 800475c:	d009      	beq.n	8004772 <f_closedir+0x1a>
 800475e:	6803      	ldr	r3, [r0, #0]
 8004760:	2b00      	cmp	r3, #0
 8004762:	d006      	beq.n	8004772 <f_closedir+0x1a>
 8004764:	781a      	ldrb	r2, [r3, #0]
 8004766:	2a00      	cmp	r2, #0
 8004768:	d003      	beq.n	8004772 <f_closedir+0x1a>
 800476a:	8881      	ldrh	r1, [r0, #4]
 800476c:	88da      	ldrh	r2, [r3, #6]
 800476e:	4291      	cmp	r1, r2
 8004770:	d001      	beq.n	8004776 <f_closedir+0x1e>
 8004772:	2009      	movs	r0, #9
 8004774:	bd10      	pop	{r4, pc}
 8004776:	7858      	ldrb	r0, [r3, #1]
 8004778:	f7fe fcae 	bl	80030d8 <disk_status>
 800477c:	2201      	movs	r2, #1
 800477e:	0003      	movs	r3, r0
 8004780:	0010      	movs	r0, r2
 8004782:	4018      	ands	r0, r3
 8004784:	421a      	tst	r2, r3
 8004786:	d1f4      	bne.n	8004772 <f_closedir+0x1a>
 8004788:	6020      	str	r0, [r4, #0]
 800478a:	e7f3      	b.n	8004774 <f_closedir+0x1c>

0800478c <f_readdir>:
 800478c:	b5f0      	push	{r4, r5, r6, r7, lr}
 800478e:	46de      	mov	lr, fp
 8004790:	4657      	mov	r7, sl
 8004792:	464e      	mov	r6, r9
 8004794:	4645      	mov	r5, r8
 8004796:	b5e0      	push	{r5, r6, r7, lr}
 8004798:	b087      	sub	sp, #28
 800479a:	1e04      	subs	r4, r0, #0
 800479c:	9102      	str	r1, [sp, #8]
 800479e:	d009      	beq.n	80047b4 <f_readdir+0x28>
 80047a0:	6803      	ldr	r3, [r0, #0]
 80047a2:	2b00      	cmp	r3, #0
 80047a4:	d006      	beq.n	80047b4 <f_readdir+0x28>
 80047a6:	781a      	ldrb	r2, [r3, #0]
 80047a8:	2a00      	cmp	r2, #0
 80047aa:	d003      	beq.n	80047b4 <f_readdir+0x28>
 80047ac:	8881      	ldrh	r1, [r0, #4]
 80047ae:	88da      	ldrh	r2, [r3, #6]
 80047b0:	4291      	cmp	r1, r2
 80047b2:	d009      	beq.n	80047c8 <f_readdir+0x3c>
 80047b4:	2309      	movs	r3, #9
 80047b6:	469b      	mov	fp, r3
 80047b8:	4658      	mov	r0, fp
 80047ba:	b007      	add	sp, #28
 80047bc:	bcf0      	pop	{r4, r5, r6, r7}
 80047be:	46bb      	mov	fp, r7
 80047c0:	46b2      	mov	sl, r6
 80047c2:	46a9      	mov	r9, r5
 80047c4:	46a0      	mov	r8, r4
 80047c6:	bdf0      	pop	{r4, r5, r6, r7, pc}
 80047c8:	7858      	ldrb	r0, [r3, #1]
 80047ca:	f7fe fc85 	bl	80030d8 <disk_status>
 80047ce:	2301      	movs	r3, #1
 80047d0:	001a      	movs	r2, r3
 80047d2:	4002      	ands	r2, r0
 80047d4:	4693      	mov	fp, r2
 80047d6:	4203      	tst	r3, r0
 80047d8:	d1ec      	bne.n	80047b4 <f_readdir+0x28>
 80047da:	9b02      	ldr	r3, [sp, #8]
 80047dc:	2b00      	cmp	r3, #0
 80047de:	d100      	bne.n	80047e2 <f_readdir+0x56>
 80047e0:	e0d4      	b.n	800498c <f_readdir+0x200>
 80047e2:	6823      	ldr	r3, [r4, #0]
 80047e4:	69a6      	ldr	r6, [r4, #24]
 80047e6:	4698      	mov	r8, r3
 80047e8:	23ff      	movs	r3, #255	@ 0xff
 80047ea:	4699      	mov	r9, r3
 80047ec:	9303      	str	r3, [sp, #12]
 80047ee:	3bd3      	subs	r3, #211	@ 0xd3
 80047f0:	4443      	add	r3, r8
 80047f2:	9301      	str	r3, [sp, #4]
 80047f4:	233f      	movs	r3, #63	@ 0x3f
 80047f6:	469a      	mov	sl, r3
 80047f8:	2e00      	cmp	r6, #0
 80047fa:	d034      	beq.n	8004866 <f_readdir+0xda>
 80047fc:	4643      	mov	r3, r8
 80047fe:	6a9b      	ldr	r3, [r3, #40]	@ 0x28
 8004800:	42b3      	cmp	r3, r6
 8004802:	d013      	beq.n	800482c <f_readdir+0xa0>
 8004804:	4643      	mov	r3, r8
 8004806:	0032      	movs	r2, r6
 8004808:	7858      	ldrb	r0, [r3, #1]
 800480a:	9901      	ldr	r1, [sp, #4]
 800480c:	2301      	movs	r3, #1
 800480e:	f7fe fc6b 	bl	80030e8 <disk_read>
 8004812:	2800      	cmp	r0, #0
 8004814:	d008      	beq.n	8004828 <f_readdir+0x9c>
 8004816:	2301      	movs	r3, #1
 8004818:	4642      	mov	r2, r8
 800481a:	425b      	negs	r3, r3
 800481c:	6293      	str	r3, [r2, #40]	@ 0x28
 800481e:	2300      	movs	r3, #0
 8004820:	61a3      	str	r3, [r4, #24]
 8004822:	2301      	movs	r3, #1
 8004824:	469b      	mov	fp, r3
 8004826:	e7c7      	b.n	80047b8 <f_readdir+0x2c>
 8004828:	4643      	mov	r3, r8
 800482a:	629e      	str	r6, [r3, #40]	@ 0x28
 800482c:	69e3      	ldr	r3, [r4, #28]
 800482e:	7819      	ldrb	r1, [r3, #0]
 8004830:	2900      	cmp	r1, #0
 8004832:	d016      	beq.n	8004862 <f_readdir+0xd6>
 8004834:	4650      	mov	r0, sl
 8004836:	7ada      	ldrb	r2, [r3, #11]
 8004838:	4002      	ands	r2, r0
 800483a:	71a2      	strb	r2, [r4, #6]
 800483c:	29e5      	cmp	r1, #229	@ 0xe5
 800483e:	d007      	beq.n	8004850 <f_readdir+0xc4>
 8004840:	292e      	cmp	r1, #46	@ 0x2e
 8004842:	d005      	beq.n	8004850 <f_readdir+0xc4>
 8004844:	2020      	movs	r0, #32
 8004846:	0015      	movs	r5, r2
 8004848:	4385      	bics	r5, r0
 800484a:	2d08      	cmp	r5, #8
 800484c:	d000      	beq.n	8004850 <f_readdir+0xc4>
 800484e:	e082      	b.n	8004956 <f_readdir+0x1ca>
 8004850:	23ff      	movs	r3, #255	@ 0xff
 8004852:	4699      	mov	r9, r3
 8004854:	6925      	ldr	r5, [r4, #16]
 8004856:	2380      	movs	r3, #128	@ 0x80
 8004858:	3520      	adds	r5, #32
 800485a:	6827      	ldr	r7, [r4, #0]
 800485c:	039b      	lsls	r3, r3, #14
 800485e:	429d      	cmp	r5, r3
 8004860:	d33e      	bcc.n	80048e0 <f_readdir+0x154>
 8004862:	2300      	movs	r3, #0
 8004864:	61a3      	str	r3, [r4, #24]
 8004866:	0020      	movs	r0, r4
 8004868:	9902      	ldr	r1, [sp, #8]
 800486a:	f7fe fc49 	bl	8003100 <get_fileinfo>
 800486e:	2380      	movs	r3, #128	@ 0x80
 8004870:	6925      	ldr	r5, [r4, #16]
 8004872:	6826      	ldr	r6, [r4, #0]
 8004874:	3520      	adds	r5, #32
 8004876:	039b      	lsls	r3, r3, #14
 8004878:	429d      	cmp	r5, r3
 800487a:	d300      	bcc.n	800487e <f_readdir+0xf2>
 800487c:	e083      	b.n	8004986 <f_readdir+0x1fa>
 800487e:	69a3      	ldr	r3, [r4, #24]
 8004880:	2b00      	cmp	r3, #0
 8004882:	d099      	beq.n	80047b8 <f_readdir+0x2c>
 8004884:	05ea      	lsls	r2, r5, #23
 8004886:	0dd7      	lsrs	r7, r2, #23
 8004888:	2a00      	cmp	r2, #0
 800488a:	d124      	bne.n	80048d6 <f_readdir+0x14a>
 800488c:	6961      	ldr	r1, [r4, #20]
 800488e:	3301      	adds	r3, #1
 8004890:	61a3      	str	r3, [r4, #24]
 8004892:	2900      	cmp	r1, #0
 8004894:	d100      	bne.n	8004898 <f_readdir+0x10c>
 8004896:	e0f6      	b.n	8004a86 <f_readdir+0x2fa>
 8004898:	0a6a      	lsrs	r2, r5, #9
 800489a:	0010      	movs	r0, r2
 800489c:	8973      	ldrh	r3, [r6, #10]
 800489e:	3b01      	subs	r3, #1
 80048a0:	4018      	ands	r0, r3
 80048a2:	4680      	mov	r8, r0
 80048a4:	421a      	tst	r2, r3
 80048a6:	d116      	bne.n	80048d6 <f_readdir+0x14a>
 80048a8:	0030      	movs	r0, r6
 80048aa:	f7fe ff99 	bl	80037e0 <get_fat.isra.0>
 80048ae:	2801      	cmp	r0, #1
 80048b0:	d800      	bhi.n	80048b4 <f_readdir+0x128>
 80048b2:	e1ee      	b.n	8004c92 <f_readdir+0x506>
 80048b4:	1c43      	adds	r3, r0, #1
 80048b6:	d0b4      	beq.n	8004822 <f_readdir+0x96>
 80048b8:	6933      	ldr	r3, [r6, #16]
 80048ba:	4298      	cmp	r0, r3
 80048bc:	d263      	bcs.n	8004986 <f_readdir+0x1fa>
 80048be:	6160      	str	r0, [r4, #20]
 80048c0:	3b02      	subs	r3, #2
 80048c2:	3802      	subs	r0, #2
 80048c4:	4298      	cmp	r0, r3
 80048c6:	d204      	bcs.n	80048d2 <f_readdir+0x146>
 80048c8:	8973      	ldrh	r3, [r6, #10]
 80048ca:	4358      	muls	r0, r3
 80048cc:	4680      	mov	r8, r0
 80048ce:	6a73      	ldr	r3, [r6, #36]	@ 0x24
 80048d0:	4498      	add	r8, r3
 80048d2:	4643      	mov	r3, r8
 80048d4:	61a3      	str	r3, [r4, #24]
 80048d6:	362c      	adds	r6, #44	@ 0x2c
 80048d8:	19f6      	adds	r6, r6, r7
 80048da:	6125      	str	r5, [r4, #16]
 80048dc:	61e6      	str	r6, [r4, #28]
 80048de:	e76b      	b.n	80047b8 <f_readdir+0x2c>
 80048e0:	69a6      	ldr	r6, [r4, #24]
 80048e2:	2e00      	cmp	r6, #0
 80048e4:	d0bd      	beq.n	8004862 <f_readdir+0xd6>
 80048e6:	05eb      	lsls	r3, r5, #23
 80048e8:	0dda      	lsrs	r2, r3, #23
 80048ea:	2b00      	cmp	r3, #0
 80048ec:	d004      	beq.n	80048f8 <f_readdir+0x16c>
 80048ee:	372c      	adds	r7, #44	@ 0x2c
 80048f0:	18bf      	adds	r7, r7, r2
 80048f2:	6125      	str	r5, [r4, #16]
 80048f4:	61e7      	str	r7, [r4, #28]
 80048f6:	e781      	b.n	80047fc <f_readdir+0x70>
 80048f8:	6961      	ldr	r1, [r4, #20]
 80048fa:	3601      	adds	r6, #1
 80048fc:	61a6      	str	r6, [r4, #24]
 80048fe:	2900      	cmp	r1, #0
 8004900:	d10a      	bne.n	8004918 <f_readdir+0x18c>
 8004902:	893a      	ldrh	r2, [r7, #8]
 8004904:	096b      	lsrs	r3, r5, #5
 8004906:	4293      	cmp	r3, r2
 8004908:	d2ab      	bcs.n	8004862 <f_readdir+0xd6>
 800490a:	372c      	adds	r7, #44	@ 0x2c
 800490c:	6125      	str	r5, [r4, #16]
 800490e:	61e7      	str	r7, [r4, #28]
 8004910:	2e00      	cmp	r6, #0
 8004912:	d000      	beq.n	8004916 <f_readdir+0x18a>
 8004914:	e772      	b.n	80047fc <f_readdir+0x70>
 8004916:	e7a6      	b.n	8004866 <f_readdir+0xda>
 8004918:	0a6a      	lsrs	r2, r5, #9
 800491a:	0010      	movs	r0, r2
 800491c:	897b      	ldrh	r3, [r7, #10]
 800491e:	3b01      	subs	r3, #1
 8004920:	4018      	ands	r0, r3
 8004922:	9004      	str	r0, [sp, #16]
 8004924:	421a      	tst	r2, r3
 8004926:	d1f0      	bne.n	800490a <f_readdir+0x17e>
 8004928:	0038      	movs	r0, r7
 800492a:	f7fe ff59 	bl	80037e0 <get_fat.isra.0>
 800492e:	2801      	cmp	r0, #1
 8004930:	d800      	bhi.n	8004934 <f_readdir+0x1a8>
 8004932:	e0b4      	b.n	8004a9e <f_readdir+0x312>
 8004934:	1c43      	adds	r3, r0, #1
 8004936:	d024      	beq.n	8004982 <f_readdir+0x1f6>
 8004938:	693b      	ldr	r3, [r7, #16]
 800493a:	4298      	cmp	r0, r3
 800493c:	d291      	bcs.n	8004862 <f_readdir+0xd6>
 800493e:	6160      	str	r0, [r4, #20]
 8004940:	3b02      	subs	r3, #2
 8004942:	3802      	subs	r0, #2
 8004944:	4298      	cmp	r0, r3
 8004946:	d300      	bcc.n	800494a <f_readdir+0x1be>
 8004948:	e0a3      	b.n	8004a92 <f_readdir+0x306>
 800494a:	897b      	ldrh	r3, [r7, #10]
 800494c:	6a7e      	ldr	r6, [r7, #36]	@ 0x24
 800494e:	4358      	muls	r0, r3
 8004950:	1986      	adds	r6, r0, r6
 8004952:	61a6      	str	r6, [r4, #24]
 8004954:	e7d9      	b.n	800490a <f_readdir+0x17e>
 8004956:	2a0f      	cmp	r2, #15
 8004958:	d000      	beq.n	800495c <f_readdir+0x1d0>
 800495a:	e0a3      	b.n	8004aa4 <f_readdir+0x318>
 800495c:	3231      	adds	r2, #49	@ 0x31
 800495e:	6925      	ldr	r5, [r4, #16]
 8004960:	420a      	tst	r2, r1
 8004962:	d00b      	beq.n	800497c <f_readdir+0x1f0>
 8004964:	4391      	bics	r1, r2
 8004966:	4689      	mov	r9, r1
 8004968:	7b58      	ldrb	r0, [r3, #13]
 800496a:	62e5      	str	r5, [r4, #44]	@ 0x2c
 800496c:	9003      	str	r0, [sp, #12]
 800496e:	7b5a      	ldrb	r2, [r3, #13]
 8004970:	9903      	ldr	r1, [sp, #12]
 8004972:	428a      	cmp	r2, r1
 8004974:	d00f      	beq.n	8004996 <f_readdir+0x20a>
 8004976:	23ff      	movs	r3, #255	@ 0xff
 8004978:	4699      	mov	r9, r3
 800497a:	e76c      	b.n	8004856 <f_readdir+0xca>
 800497c:	4549      	cmp	r1, r9
 800497e:	d1fa      	bne.n	8004976 <f_readdir+0x1ea>
 8004980:	e7f5      	b.n	800496e <f_readdir+0x1e2>
 8004982:	2301      	movs	r3, #1
 8004984:	469b      	mov	fp, r3
 8004986:	2300      	movs	r3, #0
 8004988:	61a3      	str	r3, [r4, #24]
 800498a:	e715      	b.n	80047b8 <f_readdir+0x2c>
 800498c:	0020      	movs	r0, r4
 800498e:	f7fe ffbb 	bl	8003908 <dir_sdi.constprop.0>
 8004992:	4683      	mov	fp, r0
 8004994:	e710      	b.n	80047b8 <f_readdir+0x2c>
 8004996:	7eda      	ldrb	r2, [r3, #27]
 8004998:	7e99      	ldrb	r1, [r3, #26]
 800499a:	0212      	lsls	r2, r2, #8
 800499c:	430a      	orrs	r2, r1
 800499e:	d1ea      	bne.n	8004976 <f_readdir+0x1ea>
 80049a0:	7819      	ldrb	r1, [r3, #0]
 80049a2:	3240      	adds	r2, #64	@ 0x40
 80049a4:	4391      	bics	r1, r2
 80049a6:	3901      	subs	r1, #1
 80049a8:	004a      	lsls	r2, r1, #1
 80049aa:	1852      	adds	r2, r2, r1
 80049ac:	0092      	lsls	r2, r2, #2
 80049ae:	1852      	adds	r2, r2, r1
 80049b0:	7899      	ldrb	r1, [r3, #2]
 80049b2:	7858      	ldrb	r0, [r3, #1]
 80049b4:	0209      	lsls	r1, r1, #8
 80049b6:	4301      	orrs	r1, r0
 80049b8:	2a28      	cmp	r2, #40	@ 0x28
 80049ba:	d8dc      	bhi.n	8004976 <f_readdir+0x1ea>
 80049bc:	4640      	mov	r0, r8
 80049be:	68c6      	ldr	r6, [r0, #12]
 80049c0:	0050      	lsls	r0, r2, #1
 80049c2:	5231      	strh	r1, [r6, r0]
 80049c4:	9005      	str	r0, [sp, #20]
 80049c6:	7918      	ldrb	r0, [r3, #4]
 80049c8:	9604      	str	r6, [sp, #16]
 80049ca:	78de      	ldrb	r6, [r3, #3]
 80049cc:	0200      	lsls	r0, r0, #8
 80049ce:	4330      	orrs	r0, r6
 80049d0:	2900      	cmp	r1, #0
 80049d2:	d000      	beq.n	80049d6 <f_readdir+0x24a>
 80049d4:	e0b6      	b.n	8004b44 <f_readdir+0x3b8>
 80049d6:	4ab0      	ldr	r2, [pc, #704]	@ (8004c98 <f_readdir+0x50c>)
 80049d8:	4290      	cmp	r0, r2
 80049da:	d1cc      	bne.n	8004976 <f_readdir+0x1ea>
 80049dc:	799a      	ldrb	r2, [r3, #6]
 80049de:	7959      	ldrb	r1, [r3, #5]
 80049e0:	0212      	lsls	r2, r2, #8
 80049e2:	430a      	orrs	r2, r1
 80049e4:	0017      	movs	r7, r2
 80049e6:	4aac      	ldr	r2, [pc, #688]	@ (8004c98 <f_readdir+0x50c>)
 80049e8:	4297      	cmp	r7, r2
 80049ea:	d1c4      	bne.n	8004976 <f_readdir+0x1ea>
 80049ec:	7a1e      	ldrb	r6, [r3, #8]
 80049ee:	79da      	ldrb	r2, [r3, #7]
 80049f0:	0236      	lsls	r6, r6, #8
 80049f2:	4316      	orrs	r6, r2
 80049f4:	4aa8      	ldr	r2, [pc, #672]	@ (8004c98 <f_readdir+0x50c>)
 80049f6:	4296      	cmp	r6, r2
 80049f8:	d1bd      	bne.n	8004976 <f_readdir+0x1ea>
 80049fa:	7a98      	ldrb	r0, [r3, #10]
 80049fc:	7a5a      	ldrb	r2, [r3, #9]
 80049fe:	0200      	lsls	r0, r0, #8
 8004a00:	4310      	orrs	r0, r2
 8004a02:	4aa5      	ldr	r2, [pc, #660]	@ (8004c98 <f_readdir+0x50c>)
 8004a04:	4290      	cmp	r0, r2
 8004a06:	d1b6      	bne.n	8004976 <f_readdir+0x1ea>
 8004a08:	7bde      	ldrb	r6, [r3, #15]
 8004a0a:	7b9a      	ldrb	r2, [r3, #14]
 8004a0c:	0236      	lsls	r6, r6, #8
 8004a0e:	4316      	orrs	r6, r2
 8004a10:	4aa1      	ldr	r2, [pc, #644]	@ (8004c98 <f_readdir+0x50c>)
 8004a12:	4296      	cmp	r6, r2
 8004a14:	d1af      	bne.n	8004976 <f_readdir+0x1ea>
 8004a16:	7c58      	ldrb	r0, [r3, #17]
 8004a18:	7c1a      	ldrb	r2, [r3, #16]
 8004a1a:	0200      	lsls	r0, r0, #8
 8004a1c:	4310      	orrs	r0, r2
 8004a1e:	4a9e      	ldr	r2, [pc, #632]	@ (8004c98 <f_readdir+0x50c>)
 8004a20:	4290      	cmp	r0, r2
 8004a22:	d1a8      	bne.n	8004976 <f_readdir+0x1ea>
 8004a24:	7cde      	ldrb	r6, [r3, #19]
 8004a26:	7c9a      	ldrb	r2, [r3, #18]
 8004a28:	0236      	lsls	r6, r6, #8
 8004a2a:	4316      	orrs	r6, r2
 8004a2c:	4a9a      	ldr	r2, [pc, #616]	@ (8004c98 <f_readdir+0x50c>)
 8004a2e:	4296      	cmp	r6, r2
 8004a30:	d1a1      	bne.n	8004976 <f_readdir+0x1ea>
 8004a32:	7d5a      	ldrb	r2, [r3, #21]
 8004a34:	7d19      	ldrb	r1, [r3, #20]
 8004a36:	0212      	lsls	r2, r2, #8
 8004a38:	430a      	orrs	r2, r1
 8004a3a:	4694      	mov	ip, r2
 8004a3c:	4a96      	ldr	r2, [pc, #600]	@ (8004c98 <f_readdir+0x50c>)
 8004a3e:	4594      	cmp	ip, r2
 8004a40:	d199      	bne.n	8004976 <f_readdir+0x1ea>
 8004a42:	7dd8      	ldrb	r0, [r3, #23]
 8004a44:	7d9a      	ldrb	r2, [r3, #22]
 8004a46:	0200      	lsls	r0, r0, #8
 8004a48:	4310      	orrs	r0, r2
 8004a4a:	4a93      	ldr	r2, [pc, #588]	@ (8004c98 <f_readdir+0x50c>)
 8004a4c:	4290      	cmp	r0, r2
 8004a4e:	d192      	bne.n	8004976 <f_readdir+0x1ea>
 8004a50:	7e5e      	ldrb	r6, [r3, #25]
 8004a52:	7e1a      	ldrb	r2, [r3, #24]
 8004a54:	0236      	lsls	r6, r6, #8
 8004a56:	4316      	orrs	r6, r2
 8004a58:	4a8f      	ldr	r2, [pc, #572]	@ (8004c98 <f_readdir+0x50c>)
 8004a5a:	4296      	cmp	r6, r2
 8004a5c:	d18b      	bne.n	8004976 <f_readdir+0x1ea>
 8004a5e:	7f58      	ldrb	r0, [r3, #29]
 8004a60:	7f1a      	ldrb	r2, [r3, #28]
 8004a62:	0200      	lsls	r0, r0, #8
 8004a64:	4310      	orrs	r0, r2
 8004a66:	4a8c      	ldr	r2, [pc, #560]	@ (8004c98 <f_readdir+0x50c>)
 8004a68:	4290      	cmp	r0, r2
 8004a6a:	d184      	bne.n	8004976 <f_readdir+0x1ea>
 8004a6c:	7fde      	ldrb	r6, [r3, #31]
 8004a6e:	7f9a      	ldrb	r2, [r3, #30]
 8004a70:	0236      	lsls	r6, r6, #8
 8004a72:	4316      	orrs	r6, r2
 8004a74:	4b88      	ldr	r3, [pc, #544]	@ (8004c98 <f_readdir+0x50c>)
 8004a76:	429e      	cmp	r6, r3
 8004a78:	d000      	beq.n	8004a7c <f_readdir+0x2f0>
 8004a7a:	e77c      	b.n	8004976 <f_readdir+0x1ea>
 8004a7c:	464b      	mov	r3, r9
 8004a7e:	3b01      	subs	r3, #1
 8004a80:	b2db      	uxtb	r3, r3
 8004a82:	4699      	mov	r9, r3
 8004a84:	e6e7      	b.n	8004856 <f_readdir+0xca>
 8004a86:	8932      	ldrh	r2, [r6, #8]
 8004a88:	096b      	lsrs	r3, r5, #5
 8004a8a:	4293      	cmp	r3, r2
 8004a8c:	d200      	bcs.n	8004a90 <f_readdir+0x304>
 8004a8e:	e722      	b.n	80048d6 <f_readdir+0x14a>
 8004a90:	e779      	b.n	8004986 <f_readdir+0x1fa>
 8004a92:	9b04      	ldr	r3, [sp, #16]
 8004a94:	372c      	adds	r7, #44	@ 0x2c
 8004a96:	61a3      	str	r3, [r4, #24]
 8004a98:	6125      	str	r5, [r4, #16]
 8004a9a:	61e7      	str	r7, [r4, #28]
 8004a9c:	e6e3      	b.n	8004866 <f_readdir+0xda>
 8004a9e:	2302      	movs	r3, #2
 8004aa0:	469b      	mov	fp, r3
 8004aa2:	e770      	b.n	8004986 <f_readdir+0x1fa>
 8004aa4:	464a      	mov	r2, r9
 8004aa6:	2a00      	cmp	r2, #0
 8004aa8:	d148      	bne.n	8004b3c <f_readdir+0x3b0>
 8004aaa:	7819      	ldrb	r1, [r3, #0]
 8004aac:	084a      	lsrs	r2, r1, #1
 8004aae:	01c9      	lsls	r1, r1, #7
 8004ab0:	430a      	orrs	r2, r1
 8004ab2:	7859      	ldrb	r1, [r3, #1]
 8004ab4:	1852      	adds	r2, r2, r1
 8004ab6:	b2d1      	uxtb	r1, r2
 8004ab8:	0849      	lsrs	r1, r1, #1
 8004aba:	01d2      	lsls	r2, r2, #7
 8004abc:	4311      	orrs	r1, r2
 8004abe:	789a      	ldrb	r2, [r3, #2]
 8004ac0:	b2c9      	uxtb	r1, r1
 8004ac2:	1889      	adds	r1, r1, r2
 8004ac4:	b2ca      	uxtb	r2, r1
 8004ac6:	0852      	lsrs	r2, r2, #1
 8004ac8:	01c9      	lsls	r1, r1, #7
 8004aca:	430a      	orrs	r2, r1
 8004acc:	78d9      	ldrb	r1, [r3, #3]
 8004ace:	b2d2      	uxtb	r2, r2
 8004ad0:	1852      	adds	r2, r2, r1
 8004ad2:	b2d1      	uxtb	r1, r2
 8004ad4:	0849      	lsrs	r1, r1, #1
 8004ad6:	01d2      	lsls	r2, r2, #7
 8004ad8:	4311      	orrs	r1, r2
 8004ada:	791a      	ldrb	r2, [r3, #4]
 8004adc:	b2c9      	uxtb	r1, r1
 8004ade:	1889      	adds	r1, r1, r2
 8004ae0:	b2ca      	uxtb	r2, r1
 8004ae2:	0852      	lsrs	r2, r2, #1
 8004ae4:	01c9      	lsls	r1, r1, #7
 8004ae6:	430a      	orrs	r2, r1
 8004ae8:	7959      	ldrb	r1, [r3, #5]
 8004aea:	b2d2      	uxtb	r2, r2
 8004aec:	1852      	adds	r2, r2, r1
 8004aee:	b2d1      	uxtb	r1, r2
 8004af0:	0849      	lsrs	r1, r1, #1
 8004af2:	01d2      	lsls	r2, r2, #7
 8004af4:	4311      	orrs	r1, r2
 8004af6:	799a      	ldrb	r2, [r3, #6]
 8004af8:	b2c9      	uxtb	r1, r1
 8004afa:	1889      	adds	r1, r1, r2
 8004afc:	b2ca      	uxtb	r2, r1
 8004afe:	0852      	lsrs	r2, r2, #1
 8004b00:	01c9      	lsls	r1, r1, #7
 8004b02:	430a      	orrs	r2, r1
 8004b04:	79d9      	ldrb	r1, [r3, #7]
 8004b06:	b2d2      	uxtb	r2, r2
 8004b08:	1852      	adds	r2, r2, r1
 8004b0a:	b2d1      	uxtb	r1, r2
 8004b0c:	0849      	lsrs	r1, r1, #1
 8004b0e:	01d2      	lsls	r2, r2, #7
 8004b10:	4311      	orrs	r1, r2
 8004b12:	7a1a      	ldrb	r2, [r3, #8]
 8004b14:	b2c9      	uxtb	r1, r1
 8004b16:	1889      	adds	r1, r1, r2
 8004b18:	b2ca      	uxtb	r2, r1
 8004b1a:	0852      	lsrs	r2, r2, #1
 8004b1c:	01c9      	lsls	r1, r1, #7
 8004b1e:	430a      	orrs	r2, r1
 8004b20:	7a59      	ldrb	r1, [r3, #9]
 8004b22:	b2d2      	uxtb	r2, r2
 8004b24:	1852      	adds	r2, r2, r1
 8004b26:	b2d1      	uxtb	r1, r2
 8004b28:	7a9b      	ldrb	r3, [r3, #10]
 8004b2a:	0849      	lsrs	r1, r1, #1
 8004b2c:	01d2      	lsls	r2, r2, #7
 8004b2e:	430a      	orrs	r2, r1
 8004b30:	18d3      	adds	r3, r2, r3
 8004b32:	9a03      	ldr	r2, [sp, #12]
 8004b34:	b2db      	uxtb	r3, r3
 8004b36:	4293      	cmp	r3, r2
 8004b38:	d100      	bne.n	8004b3c <f_readdir+0x3b0>
 8004b3a:	e694      	b.n	8004866 <f_readdir+0xda>
 8004b3c:	2301      	movs	r3, #1
 8004b3e:	425b      	negs	r3, r3
 8004b40:	62e3      	str	r3, [r4, #44]	@ 0x2c
 8004b42:	e690      	b.n	8004866 <f_readdir+0xda>
 8004b44:	1c51      	adds	r1, r2, #1
 8004b46:	2a28      	cmp	r2, #40	@ 0x28
 8004b48:	d100      	bne.n	8004b4c <f_readdir+0x3c0>
 8004b4a:	e714      	b.n	8004976 <f_readdir+0x1ea>
 8004b4c:	9e04      	ldr	r6, [sp, #16]
 8004b4e:	0049      	lsls	r1, r1, #1
 8004b50:	5270      	strh	r0, [r6, r1]
 8004b52:	795e      	ldrb	r6, [r3, #5]
 8004b54:	46b4      	mov	ip, r6
 8004b56:	4667      	mov	r7, ip
 8004b58:	799e      	ldrb	r6, [r3, #6]
 8004b5a:	0236      	lsls	r6, r6, #8
 8004b5c:	4337      	orrs	r7, r6
 8004b5e:	2800      	cmp	r0, #0
 8004b60:	d100      	bne.n	8004b64 <f_readdir+0x3d8>
 8004b62:	e740      	b.n	80049e6 <f_readdir+0x25a>
 8004b64:	2a27      	cmp	r2, #39	@ 0x27
 8004b66:	d100      	bne.n	8004b6a <f_readdir+0x3de>
 8004b68:	e705      	b.n	8004976 <f_readdir+0x1ea>
 8004b6a:	9804      	ldr	r0, [sp, #16]
 8004b6c:	4684      	mov	ip, r0
 8004b6e:	4461      	add	r1, ip
 8004b70:	804f      	strh	r7, [r1, #2]
 8004b72:	7a1e      	ldrb	r6, [r3, #8]
 8004b74:	79d8      	ldrb	r0, [r3, #7]
 8004b76:	0236      	lsls	r6, r6, #8
 8004b78:	4306      	orrs	r6, r0
 8004b7a:	2f00      	cmp	r7, #0
 8004b7c:	d100      	bne.n	8004b80 <f_readdir+0x3f4>
 8004b7e:	e739      	b.n	80049f4 <f_readdir+0x268>
 8004b80:	2a26      	cmp	r2, #38	@ 0x26
 8004b82:	d100      	bne.n	8004b86 <f_readdir+0x3fa>
 8004b84:	e6f7      	b.n	8004976 <f_readdir+0x1ea>
 8004b86:	808e      	strh	r6, [r1, #4]
 8004b88:	7a58      	ldrb	r0, [r3, #9]
 8004b8a:	4684      	mov	ip, r0
 8004b8c:	4667      	mov	r7, ip
 8004b8e:	7a98      	ldrb	r0, [r3, #10]
 8004b90:	0200      	lsls	r0, r0, #8
 8004b92:	4338      	orrs	r0, r7
 8004b94:	2e00      	cmp	r6, #0
 8004b96:	d100      	bne.n	8004b9a <f_readdir+0x40e>
 8004b98:	e733      	b.n	8004a02 <f_readdir+0x276>
 8004b9a:	2a25      	cmp	r2, #37	@ 0x25
 8004b9c:	d100      	bne.n	8004ba0 <f_readdir+0x414>
 8004b9e:	e6ea      	b.n	8004976 <f_readdir+0x1ea>
 8004ba0:	80c8      	strh	r0, [r1, #6]
 8004ba2:	7b9e      	ldrb	r6, [r3, #14]
 8004ba4:	46b4      	mov	ip, r6
 8004ba6:	4667      	mov	r7, ip
 8004ba8:	7bde      	ldrb	r6, [r3, #15]
 8004baa:	0236      	lsls	r6, r6, #8
 8004bac:	433e      	orrs	r6, r7
 8004bae:	2800      	cmp	r0, #0
 8004bb0:	d100      	bne.n	8004bb4 <f_readdir+0x428>
 8004bb2:	e72d      	b.n	8004a10 <f_readdir+0x284>
 8004bb4:	2a24      	cmp	r2, #36	@ 0x24
 8004bb6:	d100      	bne.n	8004bba <f_readdir+0x42e>
 8004bb8:	e6dd      	b.n	8004976 <f_readdir+0x1ea>
 8004bba:	810e      	strh	r6, [r1, #8]
 8004bbc:	7c18      	ldrb	r0, [r3, #16]
 8004bbe:	4684      	mov	ip, r0
 8004bc0:	4667      	mov	r7, ip
 8004bc2:	7c58      	ldrb	r0, [r3, #17]
 8004bc4:	0200      	lsls	r0, r0, #8
 8004bc6:	4338      	orrs	r0, r7
 8004bc8:	2e00      	cmp	r6, #0
 8004bca:	d100      	bne.n	8004bce <f_readdir+0x442>
 8004bcc:	e727      	b.n	8004a1e <f_readdir+0x292>
 8004bce:	2a23      	cmp	r2, #35	@ 0x23
 8004bd0:	d100      	bne.n	8004bd4 <f_readdir+0x448>
 8004bd2:	e6d0      	b.n	8004976 <f_readdir+0x1ea>
 8004bd4:	8148      	strh	r0, [r1, #10]
 8004bd6:	7c9e      	ldrb	r6, [r3, #18]
 8004bd8:	46b4      	mov	ip, r6
 8004bda:	4667      	mov	r7, ip
 8004bdc:	7cde      	ldrb	r6, [r3, #19]
 8004bde:	0236      	lsls	r6, r6, #8
 8004be0:	433e      	orrs	r6, r7
 8004be2:	2800      	cmp	r0, #0
 8004be4:	d100      	bne.n	8004be8 <f_readdir+0x45c>
 8004be6:	e721      	b.n	8004a2c <f_readdir+0x2a0>
 8004be8:	2a22      	cmp	r2, #34	@ 0x22
 8004bea:	d100      	bne.n	8004bee <f_readdir+0x462>
 8004bec:	e6c3      	b.n	8004976 <f_readdir+0x1ea>
 8004bee:	818e      	strh	r6, [r1, #12]
 8004bf0:	7d18      	ldrb	r0, [r3, #20]
 8004bf2:	4684      	mov	ip, r0
 8004bf4:	4667      	mov	r7, ip
 8004bf6:	7d58      	ldrb	r0, [r3, #21]
 8004bf8:	0200      	lsls	r0, r0, #8
 8004bfa:	4307      	orrs	r7, r0
 8004bfc:	46bc      	mov	ip, r7
 8004bfe:	2e00      	cmp	r6, #0
 8004c00:	d100      	bne.n	8004c04 <f_readdir+0x478>
 8004c02:	e71b      	b.n	8004a3c <f_readdir+0x2b0>
 8004c04:	2a21      	cmp	r2, #33	@ 0x21
 8004c06:	d100      	bne.n	8004c0a <f_readdir+0x47e>
 8004c08:	e6b5      	b.n	8004976 <f_readdir+0x1ea>
 8004c0a:	81cf      	strh	r7, [r1, #14]
 8004c0c:	7dd8      	ldrb	r0, [r3, #23]
 8004c0e:	7d9e      	ldrb	r6, [r3, #22]
 8004c10:	0200      	lsls	r0, r0, #8
 8004c12:	4330      	orrs	r0, r6
 8004c14:	2f00      	cmp	r7, #0
 8004c16:	d100      	bne.n	8004c1a <f_readdir+0x48e>
 8004c18:	e717      	b.n	8004a4a <f_readdir+0x2be>
 8004c1a:	2a20      	cmp	r2, #32
 8004c1c:	d100      	bne.n	8004c20 <f_readdir+0x494>
 8004c1e:	e6aa      	b.n	8004976 <f_readdir+0x1ea>
 8004c20:	8208      	strh	r0, [r1, #16]
 8004c22:	7e1e      	ldrb	r6, [r3, #24]
 8004c24:	46b4      	mov	ip, r6
 8004c26:	4667      	mov	r7, ip
 8004c28:	7e5e      	ldrb	r6, [r3, #25]
 8004c2a:	0236      	lsls	r6, r6, #8
 8004c2c:	433e      	orrs	r6, r7
 8004c2e:	2800      	cmp	r0, #0
 8004c30:	d100      	bne.n	8004c34 <f_readdir+0x4a8>
 8004c32:	e711      	b.n	8004a58 <f_readdir+0x2cc>
 8004c34:	2a1f      	cmp	r2, #31
 8004c36:	d100      	bne.n	8004c3a <f_readdir+0x4ae>
 8004c38:	e69d      	b.n	8004976 <f_readdir+0x1ea>
 8004c3a:	824e      	strh	r6, [r1, #18]
 8004c3c:	7f18      	ldrb	r0, [r3, #28]
 8004c3e:	4684      	mov	ip, r0
 8004c40:	4667      	mov	r7, ip
 8004c42:	7f58      	ldrb	r0, [r3, #29]
 8004c44:	0200      	lsls	r0, r0, #8
 8004c46:	4338      	orrs	r0, r7
 8004c48:	2e00      	cmp	r6, #0
 8004c4a:	d100      	bne.n	8004c4e <f_readdir+0x4c2>
 8004c4c:	e70b      	b.n	8004a66 <f_readdir+0x2da>
 8004c4e:	2a1e      	cmp	r2, #30
 8004c50:	d100      	bne.n	8004c54 <f_readdir+0x4c8>
 8004c52:	e690      	b.n	8004976 <f_readdir+0x1ea>
 8004c54:	8288      	strh	r0, [r1, #20]
 8004c56:	7f9e      	ldrb	r6, [r3, #30]
 8004c58:	46b4      	mov	ip, r6
 8004c5a:	4667      	mov	r7, ip
 8004c5c:	7fde      	ldrb	r6, [r3, #31]
 8004c5e:	0236      	lsls	r6, r6, #8
 8004c60:	433e      	orrs	r6, r7
 8004c62:	2800      	cmp	r0, #0
 8004c64:	d100      	bne.n	8004c68 <f_readdir+0x4dc>
 8004c66:	e705      	b.n	8004a74 <f_readdir+0x2e8>
 8004c68:	2a1d      	cmp	r2, #29
 8004c6a:	d100      	bne.n	8004c6e <f_readdir+0x4e2>
 8004c6c:	e683      	b.n	8004976 <f_readdir+0x1ea>
 8004c6e:	82ce      	strh	r6, [r1, #22]
 8004c70:	781b      	ldrb	r3, [r3, #0]
 8004c72:	065b      	lsls	r3, r3, #25
 8004c74:	d400      	bmi.n	8004c78 <f_readdir+0x4ec>
 8004c76:	e701      	b.n	8004a7c <f_readdir+0x2f0>
 8004c78:	2e00      	cmp	r6, #0
 8004c7a:	d100      	bne.n	8004c7e <f_readdir+0x4f2>
 8004c7c:	e6fe      	b.n	8004a7c <f_readdir+0x2f0>
 8004c7e:	2a1c      	cmp	r2, #28
 8004c80:	d100      	bne.n	8004c84 <f_readdir+0x4f8>
 8004c82:	e678      	b.n	8004976 <f_readdir+0x1ea>
 8004c84:	9b05      	ldr	r3, [sp, #20]
 8004c86:	9f04      	ldr	r7, [sp, #16]
 8004c88:	469c      	mov	ip, r3
 8004c8a:	2300      	movs	r3, #0
 8004c8c:	4467      	add	r7, ip
 8004c8e:	837b      	strh	r3, [r7, #26]
 8004c90:	e6f4      	b.n	8004a7c <f_readdir+0x2f0>
 8004c92:	2302      	movs	r3, #2
 8004c94:	469b      	mov	fp, r3
 8004c96:	e58f      	b.n	80047b8 <f_readdir+0x2c>
 8004c98:	0000ffff 	.word	0x0000ffff

08004c9c <ff_uni2oem>:
 8004c9c:	0002      	movs	r2, r0
 8004c9e:	287f      	cmp	r0, #127	@ 0x7f
 8004ca0:	d801      	bhi.n	8004ca6 <ff_uni2oem+0xa>
 8004ca2:	b280      	uxth	r0, r0
 8004ca4:	4770      	bx	lr
 8004ca6:	2380      	movs	r3, #128	@ 0x80
 8004ca8:	2000      	movs	r0, #0
 8004caa:	025b      	lsls	r3, r3, #9
 8004cac:	429a      	cmp	r2, r3
 8004cae:	d2f9      	bcs.n	8004ca4 <ff_uni2oem+0x8>
 8004cb0:	4b09      	ldr	r3, [pc, #36]	@ (8004cd8 <ff_uni2oem+0x3c>)
 8004cb2:	4299      	cmp	r1, r3
 8004cb4:	d1f6      	bne.n	8004ca4 <ff_uni2oem+0x8>
 8004cb6:	2300      	movs	r3, #0
 8004cb8:	4908      	ldr	r1, [pc, #32]	@ (8004cdc <ff_uni2oem+0x40>)
 8004cba:	e004      	b.n	8004cc6 <ff_uni2oem+0x2a>
 8004cbc:	3301      	adds	r3, #1
 8004cbe:	b29b      	uxth	r3, r3
 8004cc0:	3102      	adds	r1, #2
 8004cc2:	2b80      	cmp	r3, #128	@ 0x80
 8004cc4:	d005      	beq.n	8004cd2 <ff_uni2oem+0x36>
 8004cc6:	8808      	ldrh	r0, [r1, #0]
 8004cc8:	4290      	cmp	r0, r2
 8004cca:	d1f7      	bne.n	8004cbc <ff_uni2oem+0x20>
 8004ccc:	3380      	adds	r3, #128	@ 0x80
 8004cce:	b298      	uxth	r0, r3
 8004cd0:	e7e8      	b.n	8004ca4 <ff_uni2oem+0x8>
 8004cd2:	2000      	movs	r0, #0
 8004cd4:	e7e6      	b.n	8004ca4 <ff_uni2oem+0x8>
 8004cd6:	46c0      	nop			@ (mov r8, r8)
 8004cd8:	00000362 	.word	0x00000362
 8004cdc:	08007ab4 	.word	0x08007ab4

08004ce0 <ff_oem2uni>:
 8004ce0:	287f      	cmp	r0, #127	@ 0x7f
 8004ce2:	d903      	bls.n	8004cec <ff_oem2uni+0xc>
 8004ce4:	4b06      	ldr	r3, [pc, #24]	@ (8004d00 <ff_oem2uni+0x20>)
 8004ce6:	4299      	cmp	r1, r3
 8004ce8:	d001      	beq.n	8004cee <ff_oem2uni+0xe>
 8004cea:	2000      	movs	r0, #0
 8004cec:	4770      	bx	lr
 8004cee:	28ff      	cmp	r0, #255	@ 0xff
 8004cf0:	d8fb      	bhi.n	8004cea <ff_oem2uni+0xa>
 8004cf2:	4b04      	ldr	r3, [pc, #16]	@ (8004d04 <ff_oem2uni+0x24>)
 8004cf4:	469c      	mov	ip, r3
 8004cf6:	4b04      	ldr	r3, [pc, #16]	@ (8004d08 <ff_oem2uni+0x28>)
 8004cf8:	4460      	add	r0, ip
 8004cfa:	0040      	lsls	r0, r0, #1
 8004cfc:	5a18      	ldrh	r0, [r3, r0]
 8004cfe:	e7f5      	b.n	8004cec <ff_oem2uni+0xc>
 8004d00:	00000362 	.word	0x00000362
 8004d04:	7fffff80 	.word	0x7fffff80
 8004d08:	08007ab4 	.word	0x08007ab4

08004d0c <ff_wtoupper>:
 8004d0c:	2380      	movs	r3, #128	@ 0x80
 8004d0e:	b5f0      	push	{r4, r5, r6, r7, lr}
 8004d10:	025b      	lsls	r3, r3, #9
 8004d12:	4298      	cmp	r0, r3
 8004d14:	d217      	bcs.n	8004d46 <ff_wtoupper+0x3a>
 8004d16:	2380      	movs	r3, #128	@ 0x80
 8004d18:	b286      	uxth	r6, r0
 8004d1a:	015b      	lsls	r3, r3, #5
 8004d1c:	4298      	cmp	r0, r3
 8004d1e:	d213      	bcs.n	8004d48 <ff_wtoupper+0x3c>
 8004d20:	4a24      	ldr	r2, [pc, #144]	@ (8004db4 <ff_wtoupper+0xa8>)
 8004d22:	27ff      	movs	r7, #255	@ 0xff
 8004d24:	e00a      	b.n	8004d3c <ff_wtoupper+0x30>
 8004d26:	428e      	cmp	r6, r1
 8004d28:	d30c      	bcc.n	8004d44 <ff_wtoupper+0x38>
 8004d2a:	885b      	ldrh	r3, [r3, #2]
 8004d2c:	3204      	adds	r2, #4
 8004d2e:	0a1c      	lsrs	r4, r3, #8
 8004d30:	403b      	ands	r3, r7
 8004d32:	185d      	adds	r5, r3, r1
 8004d34:	42a8      	cmp	r0, r5
 8004d36:	db09      	blt.n	8004d4c <ff_wtoupper+0x40>
 8004d38:	2c00      	cmp	r4, #0
 8004d3a:	d00d      	beq.n	8004d58 <ff_wtoupper+0x4c>
 8004d3c:	8811      	ldrh	r1, [r2, #0]
 8004d3e:	0013      	movs	r3, r2
 8004d40:	2900      	cmp	r1, #0
 8004d42:	d1f0      	bne.n	8004d26 <ff_wtoupper+0x1a>
 8004d44:	0030      	movs	r0, r6
 8004d46:	bdf0      	pop	{r4, r5, r6, r7, pc}
 8004d48:	4a1b      	ldr	r2, [pc, #108]	@ (8004db8 <ff_wtoupper+0xac>)
 8004d4a:	e7ea      	b.n	8004d22 <ff_wtoupper+0x16>
 8004d4c:	2c08      	cmp	r4, #8
 8004d4e:	d8f9      	bhi.n	8004d44 <ff_wtoupper+0x38>
 8004d50:	4b1a      	ldr	r3, [pc, #104]	@ (8004dbc <ff_wtoupper+0xb0>)
 8004d52:	00a4      	lsls	r4, r4, #2
 8004d54:	591b      	ldr	r3, [r3, r4]
 8004d56:	469f      	mov	pc, r3
 8004d58:	005b      	lsls	r3, r3, #1
 8004d5a:	18d2      	adds	r2, r2, r3
 8004d5c:	e7ee      	b.n	8004d3c <ff_wtoupper+0x30>
 8004d5e:	3e50      	subs	r6, #80	@ 0x50
 8004d60:	b2b6      	uxth	r6, r6
 8004d62:	0030      	movs	r0, r6
 8004d64:	e7ef      	b.n	8004d46 <ff_wtoupper+0x3a>
 8004d66:	3608      	adds	r6, #8
 8004d68:	b2b6      	uxth	r6, r6
 8004d6a:	0030      	movs	r0, r6
 8004d6c:	e7eb      	b.n	8004d46 <ff_wtoupper+0x3a>
 8004d6e:	3e1a      	subs	r6, #26
 8004d70:	b2b6      	uxth	r6, r6
 8004d72:	0030      	movs	r0, r6
 8004d74:	e7e7      	b.n	8004d46 <ff_wtoupper+0x3a>
 8004d76:	3e30      	subs	r6, #48	@ 0x30
 8004d78:	b2b6      	uxth	r6, r6
 8004d7a:	0030      	movs	r0, r6
 8004d7c:	e7e3      	b.n	8004d46 <ff_wtoupper+0x3a>
 8004d7e:	3e20      	subs	r6, #32
 8004d80:	b2b6      	uxth	r6, r6
 8004d82:	0030      	movs	r0, r6
 8004d84:	e7df      	b.n	8004d46 <ff_wtoupper+0x3a>
 8004d86:	3e10      	subs	r6, #16
 8004d88:	b2b6      	uxth	r6, r6
 8004d8a:	0030      	movs	r0, r6
 8004d8c:	e7db      	b.n	8004d46 <ff_wtoupper+0x3a>
 8004d8e:	2301      	movs	r3, #1
 8004d90:	1a71      	subs	r1, r6, r1
 8004d92:	400b      	ands	r3, r1
 8004d94:	1af6      	subs	r6, r6, r3
 8004d96:	b2b6      	uxth	r6, r6
 8004d98:	0030      	movs	r0, r6
 8004d9a:	e7d4      	b.n	8004d46 <ff_wtoupper+0x3a>
 8004d9c:	1a41      	subs	r1, r0, r1
 8004d9e:	0049      	lsls	r1, r1, #1
 8004da0:	5a8e      	ldrh	r6, [r1, r2]
 8004da2:	0030      	movs	r0, r6
 8004da4:	e7cf      	b.n	8004d46 <ff_wtoupper+0x3a>
 8004da6:	4b06      	ldr	r3, [pc, #24]	@ (8004dc0 <ff_wtoupper+0xb4>)
 8004da8:	469c      	mov	ip, r3
 8004daa:	4466      	add	r6, ip
 8004dac:	b2b6      	uxth	r6, r6
 8004dae:	0030      	movs	r0, r6
 8004db0:	e7c9      	b.n	8004d46 <ff_wtoupper+0x3a>
 8004db2:	46c0      	nop			@ (mov r8, r8)
 8004db4:	080078c0 	.word	0x080078c0
 8004db8:	08007804 	.word	0x08007804
 8004dbc:	080077e0 	.word	0x080077e0
 8004dc0:	ffffe3a0 	.word	0xffffe3a0

08004dc4 <SPI_DMA_TransmitReceive>:
 8004dc4:	b5f0      	push	{r4, r5, r6, r7, lr}
 8004dc6:	b083      	sub	sp, #12
 8004dc8:	23ff      	movs	r3, #255	@ 0xff
 8004dca:	0014      	movs	r4, r2
 8004dcc:	466a      	mov	r2, sp
 8004dce:	000e      	movs	r6, r1
 8004dd0:	2110      	movs	r1, #16
 8004dd2:	71d3      	strb	r3, [r2, #7]
 8004dd4:	4b38      	ldr	r3, [pc, #224]	@ (8004eb8 <SPI_DMA_TransmitReceive+0xf4>)
 8004dd6:	270e      	movs	r7, #14
 8004dd8:	685a      	ldr	r2, [r3, #4]
 8004dda:	430a      	orrs	r2, r1
 8004ddc:	605a      	str	r2, [r3, #4]
 8004dde:	2280      	movs	r2, #128	@ 0x80
 8004de0:	6859      	ldr	r1, [r3, #4]
 8004de2:	0052      	lsls	r2, r2, #1
 8004de4:	430a      	orrs	r2, r1
 8004de6:	2103      	movs	r1, #3
 8004de8:	605a      	str	r2, [r3, #4]
 8004dea:	4b34      	ldr	r3, [pc, #208]	@ (8004ebc <SPI_DMA_TransmitReceive+0xf8>)
 8004dec:	685a      	ldr	r2, [r3, #4]
 8004dee:	430a      	orrs	r2, r1
 8004df0:	605a      	str	r2, [r3, #4]
 8004df2:	685a      	ldr	r2, [r3, #4]
 8004df4:	4932      	ldr	r1, [pc, #200]	@ (8004ec0 <SPI_DMA_TransmitReceive+0xfc>)
 8004df6:	400a      	ands	r2, r1
 8004df8:	605a      	str	r2, [r3, #4]
 8004dfa:	4a32      	ldr	r2, [pc, #200]	@ (8004ec4 <SPI_DMA_TransmitReceive+0x100>)
 8004dfc:	4932      	ldr	r1, [pc, #200]	@ (8004ec8 <SPI_DMA_TransmitReceive+0x104>)
 8004dfe:	6815      	ldr	r5, [r2, #0]
 8004e00:	43bd      	bics	r5, r7
 8004e02:	6015      	str	r5, [r2, #0]
 8004e04:	680d      	ldr	r5, [r1, #0]
 8004e06:	43bd      	bics	r5, r7
 8004e08:	600d      	str	r5, [r1, #0]
 8004e0a:	681d      	ldr	r5, [r3, #0]
 8004e0c:	3732      	adds	r7, #50	@ 0x32
 8004e0e:	433d      	orrs	r5, r7
 8004e10:	601d      	str	r5, [r3, #0]
 8004e12:	6813      	ldr	r3, [r2, #0]
 8004e14:	2800      	cmp	r0, #0
 8004e16:	d03f      	beq.n	8004e98 <SPI_DMA_TransmitReceive+0xd4>
 8004e18:	20c0      	movs	r0, #192	@ 0xc0
 8004e1a:	4383      	bics	r3, r0
 8004e1c:	6013      	str	r3, [r2, #0]
 8004e1e:	680b      	ldr	r3, [r1, #0]
 8004e20:	3840      	subs	r0, #64	@ 0x40
 8004e22:	43bb      	bics	r3, r7
 8004e24:	600b      	str	r3, [r1, #0]
 8004e26:	680b      	ldr	r3, [r1, #0]
 8004e28:	4303      	orrs	r3, r0
 8004e2a:	600b      	str	r3, [r1, #0]
 8004e2c:	466b      	mov	r3, sp
 8004e2e:	3307      	adds	r3, #7
 8004e30:	60ce      	str	r6, [r1, #12]
 8004e32:	60d3      	str	r3, [r2, #12]
 8004e34:	2001      	movs	r0, #1
 8004e36:	4923      	ldr	r1, [pc, #140]	@ (8004ec4 <SPI_DMA_TransmitReceive+0x100>)
 8004e38:	4b23      	ldr	r3, [pc, #140]	@ (8004ec8 <SPI_DMA_TransmitReceive+0x104>)
 8004e3a:	4a24      	ldr	r2, [pc, #144]	@ (8004ecc <SPI_DMA_TransmitReceive+0x108>)
 8004e3c:	609a      	str	r2, [r3, #8]
 8004e3e:	608a      	str	r2, [r1, #8]
 8004e40:	605c      	str	r4, [r3, #4]
 8004e42:	604c      	str	r4, [r1, #4]
 8004e44:	680a      	ldr	r2, [r1, #0]
 8004e46:	4302      	orrs	r2, r0
 8004e48:	600a      	str	r2, [r1, #0]
 8004e4a:	681a      	ldr	r2, [r3, #0]
 8004e4c:	2120      	movs	r1, #32
 8004e4e:	4302      	orrs	r2, r0
 8004e50:	2080      	movs	r0, #128	@ 0x80
 8004e52:	601a      	str	r2, [r3, #0]
 8004e54:	4a18      	ldr	r2, [pc, #96]	@ (8004eb8 <SPI_DMA_TransmitReceive+0xf4>)
 8004e56:	0080      	lsls	r0, r0, #2
 8004e58:	6813      	ldr	r3, [r2, #0]
 8004e5a:	4219      	tst	r1, r3
 8004e5c:	d0fc      	beq.n	8004e58 <SPI_DMA_TransmitReceive+0x94>
 8004e5e:	6813      	ldr	r3, [r2, #0]
 8004e60:	4203      	tst	r3, r0
 8004e62:	d0f9      	beq.n	8004e58 <SPI_DMA_TransmitReceive+0x94>
 8004e64:	2201      	movs	r2, #1
 8004e66:	4918      	ldr	r1, [pc, #96]	@ (8004ec8 <SPI_DMA_TransmitReceive+0x104>)
 8004e68:	4816      	ldr	r0, [pc, #88]	@ (8004ec4 <SPI_DMA_TransmitReceive+0x100>)
 8004e6a:	680b      	ldr	r3, [r1, #0]
 8004e6c:	4393      	bics	r3, r2
 8004e6e:	600b      	str	r3, [r1, #0]
 8004e70:	6803      	ldr	r3, [r0, #0]
 8004e72:	4393      	bics	r3, r2
 8004e74:	6003      	str	r3, [r0, #0]
 8004e76:	680b      	ldr	r3, [r1, #0]
 8004e78:	421a      	tst	r2, r3
 8004e7a:	d1fc      	bne.n	8004e76 <SPI_DMA_TransmitReceive+0xb2>
 8004e7c:	6803      	ldr	r3, [r0, #0]
 8004e7e:	421a      	tst	r2, r3
 8004e80:	d1f9      	bne.n	8004e76 <SPI_DMA_TransmitReceive+0xb2>
 8004e82:	2103      	movs	r1, #3
 8004e84:	4a0d      	ldr	r2, [pc, #52]	@ (8004ebc <SPI_DMA_TransmitReceive+0xf8>)
 8004e86:	6853      	ldr	r3, [r2, #4]
 8004e88:	438b      	bics	r3, r1
 8004e8a:	6053      	str	r3, [r2, #4]
 8004e8c:	317d      	adds	r1, #125	@ 0x7d
 8004e8e:	6893      	ldr	r3, [r2, #8]
 8004e90:	4219      	tst	r1, r3
 8004e92:	d1fc      	bne.n	8004e8e <SPI_DMA_TransmitReceive+0xca>
 8004e94:	b003      	add	sp, #12
 8004e96:	bdf0      	pop	{r4, r5, r6, r7, pc}
 8004e98:	43bb      	bics	r3, r7
 8004e9a:	6013      	str	r3, [r2, #0]
 8004e9c:	6813      	ldr	r3, [r2, #0]
 8004e9e:	3080      	adds	r0, #128	@ 0x80
 8004ea0:	4303      	orrs	r3, r0
 8004ea2:	6013      	str	r3, [r2, #0]
 8004ea4:	680b      	ldr	r3, [r1, #0]
 8004ea6:	3040      	adds	r0, #64	@ 0x40
 8004ea8:	4383      	bics	r3, r0
 8004eaa:	600b      	str	r3, [r1, #0]
 8004eac:	466b      	mov	r3, sp
 8004eae:	3307      	adds	r3, #7
 8004eb0:	60cb      	str	r3, [r1, #12]
 8004eb2:	60d6      	str	r6, [r2, #12]
 8004eb4:	e7be      	b.n	8004e34 <SPI_DMA_TransmitReceive+0x70>
 8004eb6:	46c0      	nop			@ (mov r8, r8)
 8004eb8:	40020000 	.word	0x40020000
 8004ebc:	40003800 	.word	0x40003800
 8004ec0:	ffff9fff 	.word	0xffff9fff
 8004ec4:	4002001c 	.word	0x4002001c
 8004ec8:	40020030 	.word	0x40020030
 8004ecc:	4000380c 	.word	0x4000380c

08004ed0 <wait_ready>:
 8004ed0:	b5f0      	push	{r4, r5, r6, r7, lr}
 8004ed2:	46ce      	mov	lr, r9
 8004ed4:	4647      	mov	r7, r8
 8004ed6:	2202      	movs	r2, #2
 8004ed8:	b580      	push	{r7, lr}
 8004eda:	491c      	ldr	r1, [pc, #112]	@ (8004f4c <wait_ready+0x7c>)
 8004edc:	688b      	ldr	r3, [r1, #8]
 8004ede:	421a      	tst	r2, r3
 8004ee0:	d0fc      	beq.n	8004edc <wait_ready+0xc>
 8004ee2:	22ff      	movs	r2, #255	@ 0xff
 8004ee4:	4b1a      	ldr	r3, [pc, #104]	@ (8004f50 <wait_ready+0x80>)
 8004ee6:	4919      	ldr	r1, [pc, #100]	@ (8004f4c <wait_ready+0x7c>)
 8004ee8:	701a      	strb	r2, [r3, #0]
 8004eea:	3afe      	subs	r2, #254	@ 0xfe
 8004eec:	688b      	ldr	r3, [r1, #8]
 8004eee:	421a      	tst	r2, r3
 8004ef0:	d0fc      	beq.n	8004eec <wait_ready+0x1c>
 8004ef2:	2280      	movs	r2, #128	@ 0x80
 8004ef4:	4915      	ldr	r1, [pc, #84]	@ (8004f4c <wait_ready+0x7c>)
 8004ef6:	688b      	ldr	r3, [r1, #8]
 8004ef8:	421a      	tst	r2, r3
 8004efa:	d1fc      	bne.n	8004ef6 <wait_ready+0x26>
 8004efc:	22ff      	movs	r2, #255	@ 0xff
 8004efe:	2502      	movs	r5, #2
 8004f00:	4694      	mov	ip, r2
 8004f02:	2401      	movs	r4, #1
 8004f04:	2180      	movs	r1, #128	@ 0x80
 8004f06:	4e12      	ldr	r6, [pc, #72]	@ (8004f50 <wait_ready+0x80>)
 8004f08:	7833      	ldrb	r3, [r6, #0]
 8004f0a:	4b12      	ldr	r3, [pc, #72]	@ (8004f54 <wait_ready+0x84>)
 8004f0c:	4699      	mov	r9, r3
 8004f0e:	681b      	ldr	r3, [r3, #0]
 8004f10:	4698      	mov	r8, r3
 8004f12:	4b0e      	ldr	r3, [pc, #56]	@ (8004f4c <wait_ready+0x7c>)
 8004f14:	689a      	ldr	r2, [r3, #8]
 8004f16:	4215      	tst	r5, r2
 8004f18:	d0fc      	beq.n	8004f14 <wait_ready+0x44>
 8004f1a:	4662      	mov	r2, ip
 8004f1c:	7032      	strb	r2, [r6, #0]
 8004f1e:	689a      	ldr	r2, [r3, #8]
 8004f20:	4214      	tst	r4, r2
 8004f22:	d0fc      	beq.n	8004f1e <wait_ready+0x4e>
 8004f24:	689a      	ldr	r2, [r3, #8]
 8004f26:	4211      	tst	r1, r2
 8004f28:	d1fc      	bne.n	8004f24 <wait_ready+0x54>
 8004f2a:	464a      	mov	r2, r9
 8004f2c:	4647      	mov	r7, r8
 8004f2e:	7830      	ldrb	r0, [r6, #0]
 8004f30:	6812      	ldr	r2, [r2, #0]
 8004f32:	b2c0      	uxtb	r0, r0
 8004f34:	1bd2      	subs	r2, r2, r7
 8004f36:	2a64      	cmp	r2, #100	@ 0x64
 8004f38:	d805      	bhi.n	8004f46 <wait_ready+0x76>
 8004f3a:	28ff      	cmp	r0, #255	@ 0xff
 8004f3c:	d1ea      	bne.n	8004f14 <wait_ready+0x44>
 8004f3e:	bcc0      	pop	{r6, r7}
 8004f40:	46b9      	mov	r9, r7
 8004f42:	46b0      	mov	r8, r6
 8004f44:	bdf0      	pop	{r4, r5, r6, r7, pc}
 8004f46:	2000      	movs	r0, #0
 8004f48:	e7f9      	b.n	8004f3e <wait_ready+0x6e>
 8004f4a:	46c0      	nop			@ (mov r8, r8)
 8004f4c:	40003800 	.word	0x40003800
 8004f50:	4000380c 	.word	0x4000380c
 8004f54:	20000370 	.word	0x20000370

08004f58 <send_cmd>:
 8004f58:	b5f8      	push	{r3, r4, r5, r6, r7, lr}
 8004f5a:	46ce      	mov	lr, r9
 8004f5c:	4647      	mov	r7, r8
 8004f5e:	b243      	sxtb	r3, r0
 8004f60:	0006      	movs	r6, r0
 8004f62:	4689      	mov	r9, r1
 8004f64:	b580      	push	{r7, lr}
 8004f66:	2b00      	cmp	r3, #0
 8004f68:	da00      	bge.n	8004f6c <send_cmd+0x14>
 8004f6a:	e07a      	b.n	8005062 <send_cmd+0x10a>
 8004f6c:	2240      	movs	r2, #64	@ 0x40
 8004f6e:	4b4f      	ldr	r3, [pc, #316]	@ (80050ac <send_cmd+0x154>)
 8004f70:	619a      	str	r2, [r3, #24]
 8004f72:	2280      	movs	r2, #128	@ 0x80
 8004f74:	03d2      	lsls	r2, r2, #15
 8004f76:	619a      	str	r2, [r3, #24]
 8004f78:	f7ff ffaa 	bl	8004ed0 <wait_ready>
 8004f7c:	28ff      	cmp	r0, #255	@ 0xff
 8004f7e:	d000      	beq.n	8004f82 <send_cmd+0x2a>
 8004f80:	e079      	b.n	8005076 <send_cmd+0x11e>
 8004f82:	2202      	movs	r2, #2
 8004f84:	494a      	ldr	r1, [pc, #296]	@ (80050b0 <send_cmd+0x158>)
 8004f86:	688b      	ldr	r3, [r1, #8]
 8004f88:	421a      	tst	r2, r3
 8004f8a:	d0fc      	beq.n	8004f86 <send_cmd+0x2e>
 8004f8c:	2201      	movs	r2, #1
 8004f8e:	4b49      	ldr	r3, [pc, #292]	@ (80050b4 <send_cmd+0x15c>)
 8004f90:	4947      	ldr	r1, [pc, #284]	@ (80050b0 <send_cmd+0x158>)
 8004f92:	701e      	strb	r6, [r3, #0]
 8004f94:	688b      	ldr	r3, [r1, #8]
 8004f96:	421a      	tst	r2, r3
 8004f98:	d0fc      	beq.n	8004f94 <send_cmd+0x3c>
 8004f9a:	2280      	movs	r2, #128	@ 0x80
 8004f9c:	4944      	ldr	r1, [pc, #272]	@ (80050b0 <send_cmd+0x158>)
 8004f9e:	688b      	ldr	r3, [r1, #8]
 8004fa0:	421a      	tst	r2, r3
 8004fa2:	d1fc      	bne.n	8004f9e <send_cmd+0x46>
 8004fa4:	2018      	movs	r0, #24
 8004fa6:	2102      	movs	r1, #2
 8004fa8:	2501      	movs	r5, #1
 8004faa:	2480      	movs	r4, #128	@ 0x80
 8004fac:	4b41      	ldr	r3, [pc, #260]	@ (80050b4 <send_cmd+0x15c>)
 8004fae:	4698      	mov	r8, r3
 8004fb0:	781b      	ldrb	r3, [r3, #0]
 8004fb2:	4b3f      	ldr	r3, [pc, #252]	@ (80050b0 <send_cmd+0x158>)
 8004fb4:	464a      	mov	r2, r9
 8004fb6:	40c2      	lsrs	r2, r0
 8004fb8:	b2d2      	uxtb	r2, r2
 8004fba:	4694      	mov	ip, r2
 8004fbc:	689a      	ldr	r2, [r3, #8]
 8004fbe:	4211      	tst	r1, r2
 8004fc0:	d0fc      	beq.n	8004fbc <send_cmd+0x64>
 8004fc2:	4642      	mov	r2, r8
 8004fc4:	4667      	mov	r7, ip
 8004fc6:	7017      	strb	r7, [r2, #0]
 8004fc8:	689a      	ldr	r2, [r3, #8]
 8004fca:	4215      	tst	r5, r2
 8004fcc:	d0fc      	beq.n	8004fc8 <send_cmd+0x70>
 8004fce:	689a      	ldr	r2, [r3, #8]
 8004fd0:	4214      	tst	r4, r2
 8004fd2:	d1fc      	bne.n	8004fce <send_cmd+0x76>
 8004fd4:	4642      	mov	r2, r8
 8004fd6:	3808      	subs	r0, #8
 8004fd8:	7812      	ldrb	r2, [r2, #0]
 8004fda:	0002      	movs	r2, r0
 8004fdc:	3208      	adds	r2, #8
 8004fde:	d1e9      	bne.n	8004fb4 <send_cmd+0x5c>
 8004fe0:	2e40      	cmp	r6, #64	@ 0x40
 8004fe2:	d04b      	beq.n	800507c <send_cmd+0x124>
 8004fe4:	0030      	movs	r0, r6
 8004fe6:	3848      	subs	r0, #72	@ 0x48
 8004fe8:	1e43      	subs	r3, r0, #1
 8004fea:	4198      	sbcs	r0, r3
 8004fec:	2385      	movs	r3, #133	@ 0x85
 8004fee:	4240      	negs	r0, r0
 8004ff0:	4398      	bics	r0, r3
 8004ff2:	3087      	adds	r0, #135	@ 0x87
 8004ff4:	2202      	movs	r2, #2
 8004ff6:	492e      	ldr	r1, [pc, #184]	@ (80050b0 <send_cmd+0x158>)
 8004ff8:	688b      	ldr	r3, [r1, #8]
 8004ffa:	421a      	tst	r2, r3
 8004ffc:	d0fc      	beq.n	8004ff8 <send_cmd+0xa0>
 8004ffe:	2201      	movs	r2, #1
 8005000:	4b2c      	ldr	r3, [pc, #176]	@ (80050b4 <send_cmd+0x15c>)
 8005002:	492b      	ldr	r1, [pc, #172]	@ (80050b0 <send_cmd+0x158>)
 8005004:	7018      	strb	r0, [r3, #0]
 8005006:	688b      	ldr	r3, [r1, #8]
 8005008:	421a      	tst	r2, r3
 800500a:	d0fc      	beq.n	8005006 <send_cmd+0xae>
 800500c:	2280      	movs	r2, #128	@ 0x80
 800500e:	4928      	ldr	r1, [pc, #160]	@ (80050b0 <send_cmd+0x158>)
 8005010:	688b      	ldr	r3, [r1, #8]
 8005012:	421a      	tst	r2, r3
 8005014:	d1fc      	bne.n	8005010 <send_cmd+0xb8>
 8005016:	4b27      	ldr	r3, [pc, #156]	@ (80050b4 <send_cmd+0x15c>)
 8005018:	781b      	ldrb	r3, [r3, #0]
 800501a:	2e4c      	cmp	r6, #76	@ 0x4c
 800501c:	d030      	beq.n	8005080 <send_cmd+0x128>
 800501e:	22ff      	movs	r2, #255	@ 0xff
 8005020:	260a      	movs	r6, #10
 8005022:	2502      	movs	r5, #2
 8005024:	4690      	mov	r8, r2
 8005026:	2401      	movs	r4, #1
 8005028:	2180      	movs	r1, #128	@ 0x80
 800502a:	4b21      	ldr	r3, [pc, #132]	@ (80050b0 <send_cmd+0x158>)
 800502c:	4f21      	ldr	r7, [pc, #132]	@ (80050b4 <send_cmd+0x15c>)
 800502e:	689a      	ldr	r2, [r3, #8]
 8005030:	4215      	tst	r5, r2
 8005032:	d0fc      	beq.n	800502e <send_cmd+0xd6>
 8005034:	4642      	mov	r2, r8
 8005036:	703a      	strb	r2, [r7, #0]
 8005038:	689a      	ldr	r2, [r3, #8]
 800503a:	4214      	tst	r4, r2
 800503c:	d0fc      	beq.n	8005038 <send_cmd+0xe0>
 800503e:	689a      	ldr	r2, [r3, #8]
 8005040:	4211      	tst	r1, r2
 8005042:	d1fc      	bne.n	800503e <send_cmd+0xe6>
 8005044:	783a      	ldrb	r2, [r7, #0]
 8005046:	b2d0      	uxtb	r0, r2
 8005048:	b252      	sxtb	r2, r2
 800504a:	4684      	mov	ip, r0
 800504c:	2a00      	cmp	r2, #0
 800504e:	da03      	bge.n	8005058 <send_cmd+0x100>
 8005050:	3e01      	subs	r6, #1
 8005052:	b2f6      	uxtb	r6, r6
 8005054:	2e00      	cmp	r6, #0
 8005056:	d1ea      	bne.n	800502e <send_cmd+0xd6>
 8005058:	4660      	mov	r0, ip
 800505a:	bcc0      	pop	{r6, r7}
 800505c:	46b9      	mov	r9, r7
 800505e:	46b0      	mov	r8, r6
 8005060:	bdf8      	pop	{r3, r4, r5, r6, r7, pc}
 8005062:	2100      	movs	r1, #0
 8005064:	2077      	movs	r0, #119	@ 0x77
 8005066:	f7ff ff77 	bl	8004f58 <send_cmd>
 800506a:	4684      	mov	ip, r0
 800506c:	2801      	cmp	r0, #1
 800506e:	d8f3      	bhi.n	8005058 <send_cmd+0x100>
 8005070:	237f      	movs	r3, #127	@ 0x7f
 8005072:	401e      	ands	r6, r3
 8005074:	e77a      	b.n	8004f6c <send_cmd+0x14>
 8005076:	23ff      	movs	r3, #255	@ 0xff
 8005078:	469c      	mov	ip, r3
 800507a:	e7ed      	b.n	8005058 <send_cmd+0x100>
 800507c:	2095      	movs	r0, #149	@ 0x95
 800507e:	e7b9      	b.n	8004ff4 <send_cmd+0x9c>
 8005080:	2202      	movs	r2, #2
 8005082:	490b      	ldr	r1, [pc, #44]	@ (80050b0 <send_cmd+0x158>)
 8005084:	688b      	ldr	r3, [r1, #8]
 8005086:	421a      	tst	r2, r3
 8005088:	d0fc      	beq.n	8005084 <send_cmd+0x12c>
 800508a:	22ff      	movs	r2, #255	@ 0xff
 800508c:	4b09      	ldr	r3, [pc, #36]	@ (80050b4 <send_cmd+0x15c>)
 800508e:	4908      	ldr	r1, [pc, #32]	@ (80050b0 <send_cmd+0x158>)
 8005090:	701a      	strb	r2, [r3, #0]
 8005092:	3afe      	subs	r2, #254	@ 0xfe
 8005094:	688b      	ldr	r3, [r1, #8]
 8005096:	421a      	tst	r2, r3
 8005098:	d0fc      	beq.n	8005094 <send_cmd+0x13c>
 800509a:	2280      	movs	r2, #128	@ 0x80
 800509c:	4904      	ldr	r1, [pc, #16]	@ (80050b0 <send_cmd+0x158>)
 800509e:	688b      	ldr	r3, [r1, #8]
 80050a0:	421a      	tst	r2, r3
 80050a2:	d1fc      	bne.n	800509e <send_cmd+0x146>
 80050a4:	4b03      	ldr	r3, [pc, #12]	@ (80050b4 <send_cmd+0x15c>)
 80050a6:	781b      	ldrb	r3, [r3, #0]
 80050a8:	e7b9      	b.n	800501e <send_cmd+0xc6>
 80050aa:	46c0      	nop			@ (mov r8, r8)
 80050ac:	50000400 	.word	0x50000400
 80050b0:	40003800 	.word	0x40003800
 80050b4:	4000380c 	.word	0x4000380c

080050b8 <rcvr_datablock>:
 80050b8:	22ff      	movs	r2, #255	@ 0xff
 80050ba:	b5f8      	push	{r3, r4, r5, r6, r7, lr}
 80050bc:	464e      	mov	r6, r9
 80050be:	4645      	mov	r5, r8
 80050c0:	46de      	mov	lr, fp
 80050c2:	4657      	mov	r7, sl
 80050c4:	4684      	mov	ip, r0
 80050c6:	4689      	mov	r9, r1
 80050c8:	2402      	movs	r4, #2
 80050ca:	4693      	mov	fp, r2
 80050cc:	2101      	movs	r1, #1
 80050ce:	2080      	movs	r0, #128	@ 0x80
 80050d0:	b5e0      	push	{r5, r6, r7, lr}
 80050d2:	4e2a      	ldr	r6, [pc, #168]	@ (800517c <rcvr_datablock+0xc4>)
 80050d4:	4d2a      	ldr	r5, [pc, #168]	@ (8005180 <rcvr_datablock+0xc8>)
 80050d6:	6833      	ldr	r3, [r6, #0]
 80050d8:	4698      	mov	r8, r3
 80050da:	4b2a      	ldr	r3, [pc, #168]	@ (8005184 <rcvr_datablock+0xcc>)
 80050dc:	689a      	ldr	r2, [r3, #8]
 80050de:	4214      	tst	r4, r2
 80050e0:	d0fc      	beq.n	80050dc <rcvr_datablock+0x24>
 80050e2:	465a      	mov	r2, fp
 80050e4:	702a      	strb	r2, [r5, #0]
 80050e6:	689a      	ldr	r2, [r3, #8]
 80050e8:	4211      	tst	r1, r2
 80050ea:	d0fc      	beq.n	80050e6 <rcvr_datablock+0x2e>
 80050ec:	689a      	ldr	r2, [r3, #8]
 80050ee:	4210      	tst	r0, r2
 80050f0:	d1fc      	bne.n	80050ec <rcvr_datablock+0x34>
 80050f2:	4647      	mov	r7, r8
 80050f4:	782a      	ldrb	r2, [r5, #0]
 80050f6:	b2d2      	uxtb	r2, r2
 80050f8:	4692      	mov	sl, r2
 80050fa:	6832      	ldr	r2, [r6, #0]
 80050fc:	1bd2      	subs	r2, r2, r7
 80050fe:	2a64      	cmp	r2, #100	@ 0x64
 8005100:	d834      	bhi.n	800516c <rcvr_datablock+0xb4>
 8005102:	4652      	mov	r2, sl
 8005104:	2aff      	cmp	r2, #255	@ 0xff
 8005106:	d0e9      	beq.n	80050dc <rcvr_datablock+0x24>
 8005108:	2afe      	cmp	r2, #254	@ 0xfe
 800510a:	d12f      	bne.n	800516c <rcvr_datablock+0xb4>
 800510c:	464b      	mov	r3, r9
 800510e:	4661      	mov	r1, ip
 8005110:	b29a      	uxth	r2, r3
 8005112:	2000      	movs	r0, #0
 8005114:	f7ff fe56 	bl	8004dc4 <SPI_DMA_TransmitReceive>
 8005118:	2202      	movs	r2, #2
 800511a:	491a      	ldr	r1, [pc, #104]	@ (8005184 <rcvr_datablock+0xcc>)
 800511c:	688b      	ldr	r3, [r1, #8]
 800511e:	421a      	tst	r2, r3
 8005120:	d0fc      	beq.n	800511c <rcvr_datablock+0x64>
 8005122:	22ff      	movs	r2, #255	@ 0xff
 8005124:	4b16      	ldr	r3, [pc, #88]	@ (8005180 <rcvr_datablock+0xc8>)
 8005126:	4917      	ldr	r1, [pc, #92]	@ (8005184 <rcvr_datablock+0xcc>)
 8005128:	701a      	strb	r2, [r3, #0]
 800512a:	3afe      	subs	r2, #254	@ 0xfe
 800512c:	688b      	ldr	r3, [r1, #8]
 800512e:	421a      	tst	r2, r3
 8005130:	d0fc      	beq.n	800512c <rcvr_datablock+0x74>
 8005132:	2280      	movs	r2, #128	@ 0x80
 8005134:	4913      	ldr	r1, [pc, #76]	@ (8005184 <rcvr_datablock+0xcc>)
 8005136:	688b      	ldr	r3, [r1, #8]
 8005138:	421a      	tst	r2, r3
 800513a:	d1fc      	bne.n	8005136 <rcvr_datablock+0x7e>
 800513c:	2202      	movs	r2, #2
 800513e:	4b10      	ldr	r3, [pc, #64]	@ (8005180 <rcvr_datablock+0xc8>)
 8005140:	4910      	ldr	r1, [pc, #64]	@ (8005184 <rcvr_datablock+0xcc>)
 8005142:	781b      	ldrb	r3, [r3, #0]
 8005144:	688b      	ldr	r3, [r1, #8]
 8005146:	421a      	tst	r2, r3
 8005148:	d0fc      	beq.n	8005144 <rcvr_datablock+0x8c>
 800514a:	22ff      	movs	r2, #255	@ 0xff
 800514c:	4b0c      	ldr	r3, [pc, #48]	@ (8005180 <rcvr_datablock+0xc8>)
 800514e:	490d      	ldr	r1, [pc, #52]	@ (8005184 <rcvr_datablock+0xcc>)
 8005150:	701a      	strb	r2, [r3, #0]
 8005152:	3afe      	subs	r2, #254	@ 0xfe
 8005154:	688b      	ldr	r3, [r1, #8]
 8005156:	421a      	tst	r2, r3
 8005158:	d0fc      	beq.n	8005154 <rcvr_datablock+0x9c>
 800515a:	2280      	movs	r2, #128	@ 0x80
 800515c:	4909      	ldr	r1, [pc, #36]	@ (8005184 <rcvr_datablock+0xcc>)
 800515e:	688b      	ldr	r3, [r1, #8]
 8005160:	421a      	tst	r2, r3
 8005162:	d1fc      	bne.n	800515e <rcvr_datablock+0xa6>
 8005164:	4b06      	ldr	r3, [pc, #24]	@ (8005180 <rcvr_datablock+0xc8>)
 8005166:	2001      	movs	r0, #1
 8005168:	781b      	ldrb	r3, [r3, #0]
 800516a:	e000      	b.n	800516e <rcvr_datablock+0xb6>
 800516c:	2000      	movs	r0, #0
 800516e:	bcf0      	pop	{r4, r5, r6, r7}
 8005170:	46bb      	mov	fp, r7
 8005172:	46b2      	mov	sl, r6
 8005174:	46a9      	mov	r9, r5
 8005176:	46a0      	mov	r8, r4
 8005178:	bdf8      	pop	{r3, r4, r5, r6, r7, pc}
 800517a:	46c0      	nop			@ (mov r8, r8)
 800517c:	20000370 	.word	0x20000370
 8005180:	4000380c 	.word	0x4000380c
 8005184:	40003800 	.word	0x40003800

08005188 <USER_SPI_initialize>:
 8005188:	b5f0      	push	{r4, r5, r6, r7, lr}
 800518a:	2140      	movs	r1, #64	@ 0x40
 800518c:	464f      	mov	r7, r9
 800518e:	4646      	mov	r6, r8
 8005190:	46d6      	mov	lr, sl
 8005192:	2438      	movs	r4, #56	@ 0x38
 8005194:	487a      	ldr	r0, [pc, #488]	@ (8005380 <USER_SPI_initialize+0x1f8>)
 8005196:	4b7b      	ldr	r3, [pc, #492]	@ (8005384 <USER_SPI_initialize+0x1fc>)
 8005198:	b5c0      	push	{r6, r7, lr}
 800519a:	6181      	str	r1, [r0, #24]
 800519c:	681a      	ldr	r2, [r3, #0]
 800519e:	250a      	movs	r5, #10
 80051a0:	438a      	bics	r2, r1
 80051a2:	601a      	str	r2, [r3, #0]
 80051a4:	681a      	ldr	r2, [r3, #0]
 80051a6:	27ff      	movs	r7, #255	@ 0xff
 80051a8:	43a2      	bics	r2, r4
 80051aa:	601a      	str	r2, [r3, #0]
 80051ac:	681a      	ldr	r2, [r3, #0]
 80051ae:	4e76      	ldr	r6, [pc, #472]	@ (8005388 <USER_SPI_initialize+0x200>)
 80051b0:	4322      	orrs	r2, r4
 80051b2:	601a      	str	r2, [r3, #0]
 80051b4:	681a      	ldr	r2, [r3, #0]
 80051b6:	b082      	sub	sp, #8
 80051b8:	430a      	orrs	r2, r1
 80051ba:	601a      	str	r2, [r3, #0]
 80051bc:	2280      	movs	r2, #128	@ 0x80
 80051be:	03d2      	lsls	r2, r2, #15
 80051c0:	6182      	str	r2, [r0, #24]
 80051c2:	2001      	movs	r0, #1
 80051c4:	3c36      	subs	r4, #54	@ 0x36
 80051c6:	3140      	adds	r1, #64	@ 0x40
 80051c8:	689a      	ldr	r2, [r3, #8]
 80051ca:	4214      	tst	r4, r2
 80051cc:	d0fc      	beq.n	80051c8 <USER_SPI_initialize+0x40>
 80051ce:	7037      	strb	r7, [r6, #0]
 80051d0:	689a      	ldr	r2, [r3, #8]
 80051d2:	4210      	tst	r0, r2
 80051d4:	d0fc      	beq.n	80051d0 <USER_SPI_initialize+0x48>
 80051d6:	689a      	ldr	r2, [r3, #8]
 80051d8:	4211      	tst	r1, r2
 80051da:	d1fc      	bne.n	80051d6 <USER_SPI_initialize+0x4e>
 80051dc:	3d01      	subs	r5, #1
 80051de:	b2ed      	uxtb	r5, r5
 80051e0:	7832      	ldrb	r2, [r6, #0]
 80051e2:	2d00      	cmp	r5, #0
 80051e4:	d1f0      	bne.n	80051c8 <USER_SPI_initialize+0x40>
 80051e6:	2100      	movs	r1, #0
 80051e8:	2040      	movs	r0, #64	@ 0x40
 80051ea:	f7ff feb5 	bl	8004f58 <send_cmd>
 80051ee:	0004      	movs	r4, r0
 80051f0:	2801      	cmp	r0, #1
 80051f2:	d014      	beq.n	800521e <USER_SPI_initialize+0x96>
 80051f4:	2240      	movs	r2, #64	@ 0x40
 80051f6:	4b65      	ldr	r3, [pc, #404]	@ (800538c <USER_SPI_initialize+0x204>)
 80051f8:	701d      	strb	r5, [r3, #0]
 80051fa:	4b61      	ldr	r3, [pc, #388]	@ (8005380 <USER_SPI_initialize+0x1f8>)
 80051fc:	619a      	str	r2, [r3, #24]
 80051fe:	4c64      	ldr	r4, [pc, #400]	@ (8005390 <USER_SPI_initialize+0x208>)
 8005200:	7823      	ldrb	r3, [r4, #0]
 8005202:	07db      	lsls	r3, r3, #31
 8005204:	d53b      	bpl.n	800527e <USER_SPI_initialize+0xf6>
 8005206:	2201      	movs	r2, #1
 8005208:	7823      	ldrb	r3, [r4, #0]
 800520a:	4313      	orrs	r3, r2
 800520c:	7023      	strb	r3, [r4, #0]
 800520e:	7820      	ldrb	r0, [r4, #0]
 8005210:	b2c0      	uxtb	r0, r0
 8005212:	b002      	add	sp, #8
 8005214:	bce0      	pop	{r5, r6, r7}
 8005216:	46ba      	mov	sl, r7
 8005218:	46b1      	mov	r9, r6
 800521a:	46a8      	mov	r8, r5
 800521c:	bdf0      	pop	{r4, r5, r6, r7, pc}
 800521e:	21d5      	movs	r1, #213	@ 0xd5
 8005220:	2048      	movs	r0, #72	@ 0x48
 8005222:	0049      	lsls	r1, r1, #1
 8005224:	f7ff fe98 	bl	8004f58 <send_cmd>
 8005228:	2801      	cmp	r0, #1
 800522a:	d131      	bne.n	8005290 <USER_SPI_initialize+0x108>
 800522c:	4a56      	ldr	r2, [pc, #344]	@ (8005388 <USER_SPI_initialize+0x200>)
 800522e:	2702      	movs	r7, #2
 8005230:	4690      	mov	r8, r2
 8005232:	22ff      	movs	r2, #255	@ 0xff
 8005234:	2180      	movs	r1, #128	@ 0x80
 8005236:	4691      	mov	r9, r2
 8005238:	ab01      	add	r3, sp, #4
 800523a:	469a      	mov	sl, r3
 800523c:	001c      	movs	r4, r3
 800523e:	4b51      	ldr	r3, [pc, #324]	@ (8005384 <USER_SPI_initialize+0x1fc>)
 8005240:	ad02      	add	r5, sp, #8
 8005242:	689a      	ldr	r2, [r3, #8]
 8005244:	4217      	tst	r7, r2
 8005246:	d0fc      	beq.n	8005242 <USER_SPI_initialize+0xba>
 8005248:	4642      	mov	r2, r8
 800524a:	464e      	mov	r6, r9
 800524c:	7016      	strb	r6, [r2, #0]
 800524e:	689a      	ldr	r2, [r3, #8]
 8005250:	4210      	tst	r0, r2
 8005252:	d0fc      	beq.n	800524e <USER_SPI_initialize+0xc6>
 8005254:	000e      	movs	r6, r1
 8005256:	689a      	ldr	r2, [r3, #8]
 8005258:	4016      	ands	r6, r2
 800525a:	4211      	tst	r1, r2
 800525c:	d1fa      	bne.n	8005254 <USER_SPI_initialize+0xcc>
 800525e:	4642      	mov	r2, r8
 8005260:	7812      	ldrb	r2, [r2, #0]
 8005262:	7022      	strb	r2, [r4, #0]
 8005264:	3401      	adds	r4, #1
 8005266:	42a5      	cmp	r5, r4
 8005268:	d1eb      	bne.n	8005242 <USER_SPI_initialize+0xba>
 800526a:	466b      	mov	r3, sp
 800526c:	799b      	ldrb	r3, [r3, #6]
 800526e:	2b01      	cmp	r3, #1
 8005270:	d042      	beq.n	80052f8 <USER_SPI_initialize+0x170>
 8005272:	2240      	movs	r2, #64	@ 0x40
 8005274:	4b45      	ldr	r3, [pc, #276]	@ (800538c <USER_SPI_initialize+0x204>)
 8005276:	701e      	strb	r6, [r3, #0]
 8005278:	4b41      	ldr	r3, [pc, #260]	@ (8005380 <USER_SPI_initialize+0x1f8>)
 800527a:	619a      	str	r2, [r3, #24]
 800527c:	e7bf      	b.n	80051fe <USER_SPI_initialize+0x76>
 800527e:	2380      	movs	r3, #128	@ 0x80
 8005280:	4d3f      	ldr	r5, [pc, #252]	@ (8005380 <USER_SPI_initialize+0x1f8>)
 8005282:	03db      	lsls	r3, r3, #15
 8005284:	61ab      	str	r3, [r5, #24]
 8005286:	f7ff fe23 	bl	8004ed0 <wait_ready>
 800528a:	2340      	movs	r3, #64	@ 0x40
 800528c:	61ab      	str	r3, [r5, #24]
 800528e:	e7ba      	b.n	8005206 <USER_SPI_initialize+0x7e>
 8005290:	2100      	movs	r1, #0
 8005292:	20e9      	movs	r0, #233	@ 0xe9
 8005294:	f7ff fe60 	bl	8004f58 <send_cmd>
 8005298:	2641      	movs	r6, #65	@ 0x41
 800529a:	2801      	cmp	r0, #1
 800529c:	d801      	bhi.n	80052a2 <USER_SPI_initialize+0x11a>
 800529e:	2402      	movs	r4, #2
 80052a0:	36a8      	adds	r6, #168	@ 0xa8
 80052a2:	2100      	movs	r1, #0
 80052a4:	0030      	movs	r0, r6
 80052a6:	f7ff fe57 	bl	8004f58 <send_cmd>
 80052aa:	1e05      	subs	r5, r0, #0
 80052ac:	d1f9      	bne.n	80052a2 <USER_SPI_initialize+0x11a>
 80052ae:	2180      	movs	r1, #128	@ 0x80
 80052b0:	2050      	movs	r0, #80	@ 0x50
 80052b2:	0089      	lsls	r1, r1, #2
 80052b4:	f7ff fe50 	bl	8004f58 <send_cmd>
 80052b8:	4b34      	ldr	r3, [pc, #208]	@ (800538c <USER_SPI_initialize+0x204>)
 80052ba:	2800      	cmp	r0, #0
 80052bc:	d117      	bne.n	80052ee <USER_SPI_initialize+0x166>
 80052be:	2240      	movs	r2, #64	@ 0x40
 80052c0:	701c      	strb	r4, [r3, #0]
 80052c2:	4b2f      	ldr	r3, [pc, #188]	@ (8005380 <USER_SPI_initialize+0x1f8>)
 80052c4:	619a      	str	r2, [r3, #24]
 80052c6:	2201      	movs	r2, #1
 80052c8:	2140      	movs	r1, #64	@ 0x40
 80052ca:	2038      	movs	r0, #56	@ 0x38
 80052cc:	4c30      	ldr	r4, [pc, #192]	@ (8005390 <USER_SPI_initialize+0x208>)
 80052ce:	7823      	ldrb	r3, [r4, #0]
 80052d0:	4393      	bics	r3, r2
 80052d2:	7023      	strb	r3, [r4, #0]
 80052d4:	4b2b      	ldr	r3, [pc, #172]	@ (8005384 <USER_SPI_initialize+0x1fc>)
 80052d6:	681a      	ldr	r2, [r3, #0]
 80052d8:	438a      	bics	r2, r1
 80052da:	601a      	str	r2, [r3, #0]
 80052dc:	681a      	ldr	r2, [r3, #0]
 80052de:	4382      	bics	r2, r0
 80052e0:	601a      	str	r2, [r3, #0]
 80052e2:	681a      	ldr	r2, [r3, #0]
 80052e4:	601a      	str	r2, [r3, #0]
 80052e6:	681a      	ldr	r2, [r3, #0]
 80052e8:	430a      	orrs	r2, r1
 80052ea:	601a      	str	r2, [r3, #0]
 80052ec:	e78f      	b.n	800520e <USER_SPI_initialize+0x86>
 80052ee:	2240      	movs	r2, #64	@ 0x40
 80052f0:	701d      	strb	r5, [r3, #0]
 80052f2:	4b23      	ldr	r3, [pc, #140]	@ (8005380 <USER_SPI_initialize+0x1f8>)
 80052f4:	619a      	str	r2, [r3, #24]
 80052f6:	e782      	b.n	80051fe <USER_SPI_initialize+0x76>
 80052f8:	466b      	mov	r3, sp
 80052fa:	79db      	ldrb	r3, [r3, #7]
 80052fc:	2baa      	cmp	r3, #170	@ 0xaa
 80052fe:	d1b8      	bne.n	8005272 <USER_SPI_initialize+0xea>
 8005300:	2180      	movs	r1, #128	@ 0x80
 8005302:	20e9      	movs	r0, #233	@ 0xe9
 8005304:	05c9      	lsls	r1, r1, #23
 8005306:	f7ff fe27 	bl	8004f58 <send_cmd>
 800530a:	1e07      	subs	r7, r0, #0
 800530c:	d1f8      	bne.n	8005300 <USER_SPI_initialize+0x178>
 800530e:	2100      	movs	r1, #0
 8005310:	207a      	movs	r0, #122	@ 0x7a
 8005312:	f7ff fe21 	bl	8004f58 <send_cmd>
 8005316:	2800      	cmp	r0, #0
 8005318:	d125      	bne.n	8005366 <USER_SPI_initialize+0x1de>
 800531a:	2202      	movs	r2, #2
 800531c:	4694      	mov	ip, r2
 800531e:	32fd      	adds	r2, #253	@ 0xfd
 8005320:	4690      	mov	r8, r2
 8005322:	2180      	movs	r1, #128	@ 0x80
 8005324:	4b17      	ldr	r3, [pc, #92]	@ (8005384 <USER_SPI_initialize+0x1fc>)
 8005326:	4f18      	ldr	r7, [pc, #96]	@ (8005388 <USER_SPI_initialize+0x200>)
 8005328:	3001      	adds	r0, #1
 800532a:	4664      	mov	r4, ip
 800532c:	689a      	ldr	r2, [r3, #8]
 800532e:	4214      	tst	r4, r2
 8005330:	d0fb      	beq.n	800532a <USER_SPI_initialize+0x1a2>
 8005332:	4642      	mov	r2, r8
 8005334:	703a      	strb	r2, [r7, #0]
 8005336:	689a      	ldr	r2, [r3, #8]
 8005338:	4210      	tst	r0, r2
 800533a:	d0fc      	beq.n	8005336 <USER_SPI_initialize+0x1ae>
 800533c:	689a      	ldr	r2, [r3, #8]
 800533e:	4211      	tst	r1, r2
 8005340:	d1fc      	bne.n	800533c <USER_SPI_initialize+0x1b4>
 8005342:	4654      	mov	r4, sl
 8005344:	783a      	ldrb	r2, [r7, #0]
 8005346:	7022      	strb	r2, [r4, #0]
 8005348:	1c62      	adds	r2, r4, #1
 800534a:	4692      	mov	sl, r2
 800534c:	4295      	cmp	r5, r2
 800534e:	d1ec      	bne.n	800532a <USER_SPI_initialize+0x1a2>
 8005350:	466a      	mov	r2, sp
 8005352:	2340      	movs	r3, #64	@ 0x40
 8005354:	7912      	ldrb	r2, [r2, #4]
 8005356:	4213      	tst	r3, r2
 8005358:	d10b      	bne.n	8005372 <USER_SPI_initialize+0x1ea>
 800535a:	2104      	movs	r1, #4
 800535c:	4a0b      	ldr	r2, [pc, #44]	@ (800538c <USER_SPI_initialize+0x204>)
 800535e:	7011      	strb	r1, [r2, #0]
 8005360:	4a07      	ldr	r2, [pc, #28]	@ (8005380 <USER_SPI_initialize+0x1f8>)
 8005362:	6193      	str	r3, [r2, #24]
 8005364:	e7af      	b.n	80052c6 <USER_SPI_initialize+0x13e>
 8005366:	2240      	movs	r2, #64	@ 0x40
 8005368:	4b08      	ldr	r3, [pc, #32]	@ (800538c <USER_SPI_initialize+0x204>)
 800536a:	701f      	strb	r7, [r3, #0]
 800536c:	4b04      	ldr	r3, [pc, #16]	@ (8005380 <USER_SPI_initialize+0x1f8>)
 800536e:	619a      	str	r2, [r3, #24]
 8005370:	e745      	b.n	80051fe <USER_SPI_initialize+0x76>
 8005372:	210c      	movs	r1, #12
 8005374:	4a05      	ldr	r2, [pc, #20]	@ (800538c <USER_SPI_initialize+0x204>)
 8005376:	7011      	strb	r1, [r2, #0]
 8005378:	4a01      	ldr	r2, [pc, #4]	@ (8005380 <USER_SPI_initialize+0x1f8>)
 800537a:	6193      	str	r3, [r2, #24]
 800537c:	e7a3      	b.n	80052c6 <USER_SPI_initialize+0x13e>
 800537e:	46c0      	nop			@ (mov r8, r8)
 8005380:	50000400 	.word	0x50000400
 8005384:	40003800 	.word	0x40003800
 8005388:	4000380c 	.word	0x4000380c
 800538c:	200003d4 	.word	0x200003d4
 8005390:	200000a1 	.word	0x200000a1

08005394 <USER_SPI_status>:
 8005394:	4b01      	ldr	r3, [pc, #4]	@ (800539c <USER_SPI_status+0x8>)
 8005396:	7818      	ldrb	r0, [r3, #0]
 8005398:	b2c0      	uxtb	r0, r0
 800539a:	4770      	bx	lr
 800539c:	200000a1 	.word	0x200000a1

080053a0 <USER_SPI_read>:
 80053a0:	b570      	push	{r4, r5, r6, lr}
 80053a2:	000d      	movs	r5, r1
 80053a4:	001c      	movs	r4, r3
 80053a6:	0011      	movs	r1, r2
 80053a8:	2b00      	cmp	r3, #0
 80053aa:	d036      	beq.n	800541a <USER_SPI_read+0x7a>
 80053ac:	4b1d      	ldr	r3, [pc, #116]	@ (8005424 <USER_SPI_read+0x84>)
 80053ae:	781b      	ldrb	r3, [r3, #0]
 80053b0:	07db      	lsls	r3, r3, #31
 80053b2:	d435      	bmi.n	8005420 <USER_SPI_read+0x80>
 80053b4:	4b1c      	ldr	r3, [pc, #112]	@ (8005428 <USER_SPI_read+0x88>)
 80053b6:	781b      	ldrb	r3, [r3, #0]
 80053b8:	071b      	lsls	r3, r3, #28
 80053ba:	d400      	bmi.n	80053be <USER_SPI_read+0x1e>
 80053bc:	0251      	lsls	r1, r2, #9
 80053be:	2c01      	cmp	r4, #1
 80053c0:	d01d      	beq.n	80053fe <USER_SPI_read+0x5e>
 80053c2:	2052      	movs	r0, #82	@ 0x52
 80053c4:	f7ff fdc8 	bl	8004f58 <send_cmd>
 80053c8:	1e06      	subs	r6, r0, #0
 80053ca:	d008      	beq.n	80053de <USER_SPI_read+0x3e>
 80053cc:	2601      	movs	r6, #1
 80053ce:	e012      	b.n	80053f6 <USER_SPI_read+0x56>
 80053d0:	2380      	movs	r3, #128	@ 0x80
 80053d2:	009b      	lsls	r3, r3, #2
 80053d4:	469c      	mov	ip, r3
 80053d6:	3c01      	subs	r4, #1
 80053d8:	4465      	add	r5, ip
 80053da:	2c00      	cmp	r4, #0
 80053dc:	d007      	beq.n	80053ee <USER_SPI_read+0x4e>
 80053de:	2180      	movs	r1, #128	@ 0x80
 80053e0:	0028      	movs	r0, r5
 80053e2:	0089      	lsls	r1, r1, #2
 80053e4:	f7ff fe68 	bl	80050b8 <rcvr_datablock>
 80053e8:	2800      	cmp	r0, #0
 80053ea:	d1f1      	bne.n	80053d0 <USER_SPI_read+0x30>
 80053ec:	2601      	movs	r6, #1
 80053ee:	2100      	movs	r1, #0
 80053f0:	204c      	movs	r0, #76	@ 0x4c
 80053f2:	f7ff fdb1 	bl	8004f58 <send_cmd>
 80053f6:	2240      	movs	r2, #64	@ 0x40
 80053f8:	4b0c      	ldr	r3, [pc, #48]	@ (800542c <USER_SPI_read+0x8c>)
 80053fa:	619a      	str	r2, [r3, #24]
 80053fc:	e00e      	b.n	800541c <USER_SPI_read+0x7c>
 80053fe:	2051      	movs	r0, #81	@ 0x51
 8005400:	f7ff fdaa 	bl	8004f58 <send_cmd>
 8005404:	2800      	cmp	r0, #0
 8005406:	d1e1      	bne.n	80053cc <USER_SPI_read+0x2c>
 8005408:	2180      	movs	r1, #128	@ 0x80
 800540a:	0028      	movs	r0, r5
 800540c:	0089      	lsls	r1, r1, #2
 800540e:	f7ff fe53 	bl	80050b8 <rcvr_datablock>
 8005412:	4243      	negs	r3, r0
 8005414:	4158      	adcs	r0, r3
 8005416:	b2c6      	uxtb	r6, r0
 8005418:	e7ed      	b.n	80053f6 <USER_SPI_read+0x56>
 800541a:	2604      	movs	r6, #4
 800541c:	0030      	movs	r0, r6
 800541e:	bd70      	pop	{r4, r5, r6, pc}
 8005420:	2603      	movs	r6, #3
 8005422:	e7fb      	b.n	800541c <USER_SPI_read+0x7c>
 8005424:	200000a1 	.word	0x200000a1
 8005428:	200003d4 	.word	0x200003d4
 800542c:	50000400 	.word	0x50000400

08005430 <FileManagerSetDisplay>:
 8005430:	6001      	str	r1, [r0, #0]
 8005432:	4770      	bx	lr

08005434 <FileManagerSetWin>:
 8005434:	8103      	strh	r3, [r0, #8]
 8005436:	9b00      	ldr	r3, [sp, #0]
 8005438:	8081      	strh	r1, [r0, #4]
 800543a:	80c2      	strh	r2, [r0, #6]
 800543c:	8143      	strh	r3, [r0, #10]
 800543e:	4770      	bx	lr

08005440 <FileManagerSetColor>:
 8005440:	60c1      	str	r1, [r0, #12]
 8005442:	4770      	bx	lr

08005444 <FileManagerSetFont>:
 8005444:	6101      	str	r1, [r0, #16]
 8005446:	4770      	bx	lr

08005448 <FileManagerSetKeys>:
 8005448:	b510      	push	{r4, lr}
 800544a:	2435      	movs	r4, #53	@ 0x35
 800544c:	5501      	strb	r1, [r0, r4]
 800544e:	2136      	movs	r1, #54	@ 0x36
 8005450:	5442      	strb	r2, [r0, r1]
 8005452:	2237      	movs	r2, #55	@ 0x37
 8005454:	5483      	strb	r3, [r0, r2]
 8005456:	bd10      	pop	{r4, pc}

08005458 <FileManagerChangeActiveFlag>:
 8005458:	2334      	movs	r3, #52	@ 0x34
 800545a:	54c1      	strb	r1, [r0, r3]
 800545c:	4770      	bx	lr
 800545e:	46c0      	nop			@ (mov r8, r8)

08005460 <FileManagerGetStatus>:
 8005460:	2328      	movs	r3, #40	@ 0x28
 8005462:	5cc0      	ldrb	r0, [r0, r3]
 8005464:	4770      	bx	lr
 8005466:	46c0      	nop			@ (mov r8, r8)

08005468 <FileManagerGetFilePath>:
 8005468:	6940      	ldr	r0, [r0, #20]
 800546a:	4770      	bx	lr

0800546c <FileManagerGetFileName>:
 800546c:	6980      	ldr	r0, [r0, #24]
 800546e:	4770      	bx	lr

08005470 <FileManagerShow>:
 8005470:	b5f0      	push	{r4, r5, r6, r7, lr}
 8005472:	4657      	mov	r7, sl
 8005474:	464e      	mov	r6, r9
 8005476:	4645      	mov	r5, r8
 8005478:	46de      	mov	lr, fp
 800547a:	b5e0      	push	{r5, r6, r7, lr}
 800547c:	0007      	movs	r7, r0
 800547e:	693b      	ldr	r3, [r7, #16]
 8005480:	683a      	ldr	r2, [r7, #0]
 8005482:	8900      	ldrh	r0, [r0, #8]
 8005484:	781d      	ldrb	r5, [r3, #0]
 8005486:	785c      	ldrb	r4, [r3, #1]
 8005488:	88bb      	ldrh	r3, [r7, #4]
 800548a:	8891      	ldrh	r1, [r2, #4]
 800548c:	181b      	adds	r3, r3, r0
 800548e:	897e      	ldrh	r6, [r7, #10]
 8005490:	b0c9      	sub	sp, #292	@ 0x124
 8005492:	428b      	cmp	r3, r1
 8005494:	dd00      	ble.n	8005498 <FileManagerShow+0x28>
 8005496:	e12e      	b.n	80056f6 <FileManagerShow+0x286>
 8005498:	88fb      	ldrh	r3, [r7, #6]
 800549a:	88d2      	ldrh	r2, [r2, #6]
 800549c:	199b      	adds	r3, r3, r6
 800549e:	4293      	cmp	r3, r2
 80054a0:	dd00      	ble.n	80054a4 <FileManagerShow+0x34>
 80054a2:	e128      	b.n	80056f6 <FileManagerShow+0x286>
 80054a4:	0029      	movs	r1, r5
 80054a6:	f7fa febf 	bl	8000228 <__divsi3>
 80054aa:	900e      	str	r0, [sp, #56]	@ 0x38
 80054ac:	2802      	cmp	r0, #2
 80054ae:	dc00      	bgt.n	80054b2 <FileManagerShow+0x42>
 80054b0:	e121      	b.n	80056f6 <FileManagerShow+0x286>
 80054b2:	0021      	movs	r1, r4
 80054b4:	0030      	movs	r0, r6
 80054b6:	f7fa feb7 	bl	8000228 <__divsi3>
 80054ba:	9004      	str	r0, [sp, #16]
 80054bc:	2800      	cmp	r0, #0
 80054be:	d100      	bne.n	80054c2 <FileManagerShow+0x52>
 80054c0:	e119      	b.n	80056f6 <FileManagerShow+0x286>
 80054c2:	68fb      	ldr	r3, [r7, #12]
 80054c4:	9a0e      	ldr	r2, [sp, #56]	@ 0x38
 80054c6:	469b      	mov	fp, r3
 80054c8:	0013      	movs	r3, r2
 80054ca:	436b      	muls	r3, r5
 80054cc:	930b      	str	r3, [sp, #44]	@ 0x2c
 80054ce:	0003      	movs	r3, r0
 80054d0:	0006      	movs	r6, r0
 80054d2:	4363      	muls	r3, r4
 80054d4:	46da      	mov	sl, fp
 80054d6:	469b      	mov	fp, r3
 80054d8:	435e      	muls	r6, r3
 80054da:	3a01      	subs	r2, #1
 80054dc:	920c      	str	r2, [sp, #48]	@ 0x30
 80054de:	46c0      	nop			@ (mov r8, r8)
 80054e0:	6979      	ldr	r1, [r7, #20]
 80054e2:	a81c      	add	r0, sp, #112	@ 0x70
 80054e4:	f7ff f8f8 	bl	80046d8 <f_opendir>
 80054e8:	900a      	str	r0, [sp, #40]	@ 0x28
 80054ea:	46c0      	nop			@ (mov r8, r8)
 80054ec:	2800      	cmp	r0, #0
 80054ee:	d000      	beq.n	80054f2 <FileManagerShow+0x82>
 80054f0:	e340      	b.n	8005b74 <FileManagerShow+0x704>
 80054f2:	2329      	movs	r3, #41	@ 0x29
 80054f4:	5cfb      	ldrb	r3, [r7, r3]
 80054f6:	2b00      	cmp	r3, #0
 80054f8:	d107      	bne.n	800550a <FileManagerShow+0x9a>
 80054fa:	6a7b      	ldr	r3, [r7, #36]	@ 0x24
 80054fc:	69fa      	ldr	r2, [r7, #28]
 80054fe:	009b      	lsls	r3, r3, #2
 8005500:	58d2      	ldr	r2, [r2, r3]
 8005502:	62fa      	str	r2, [r7, #44]	@ 0x2c
 8005504:	6a3a      	ldr	r2, [r7, #32]
 8005506:	58d3      	ldr	r3, [r2, r3]
 8005508:	633b      	str	r3, [r7, #48]	@ 0x30
 800550a:	2301      	movs	r3, #1
 800550c:	2406      	movs	r4, #6
 800550e:	001d      	movs	r5, r3
 8005510:	e00d      	b.n	800552e <FileManagerShow+0xbe>
 8005512:	2286      	movs	r2, #134	@ 0x86
 8005514:	ab0c      	add	r3, sp, #48	@ 0x30
 8005516:	189b      	adds	r3, r3, r2
 8005518:	781b      	ldrb	r3, [r3, #0]
 800551a:	2b00      	cmp	r3, #0
 800551c:	d00f      	beq.n	800553e <FileManagerShow+0xce>
 800551e:	3a0e      	subs	r2, #14
 8005520:	ab0c      	add	r3, sp, #48	@ 0x30
 8005522:	189b      	adds	r3, r3, r2
 8005524:	781b      	ldrb	r3, [r3, #0]
 8005526:	4023      	ands	r3, r4
 8005528:	425a      	negs	r2, r3
 800552a:	4153      	adcs	r3, r2
 800552c:	18ed      	adds	r5, r5, r3
 800552e:	46c0      	nop			@ (mov r8, r8)
 8005530:	a928      	add	r1, sp, #160	@ 0xa0
 8005532:	a81c      	add	r0, sp, #112	@ 0x70
 8005534:	f7ff f92a 	bl	800478c <f_readdir>
 8005538:	46c0      	nop			@ (mov r8, r8)
 800553a:	2800      	cmp	r0, #0
 800553c:	d0e9      	beq.n	8005512 <FileManagerShow+0xa2>
 800553e:	693b      	ldr	r3, [r7, #16]
 8005540:	0029      	movs	r1, r5
 8005542:	0030      	movs	r0, r6
 8005544:	785c      	ldrb	r4, [r3, #1]
 8005546:	f7fa fe6f 	bl	8000228 <__divsi3>
 800554a:	46a9      	mov	r9, r5
 800554c:	940d      	str	r4, [sp, #52]	@ 0x34
 800554e:	4284      	cmp	r4, r0
 8005550:	da00      	bge.n	8005554 <FileManagerShow+0xe4>
 8005552:	900d      	str	r0, [sp, #52]	@ 0x34
 8005554:	9b04      	ldr	r3, [sp, #16]
 8005556:	4599      	cmp	r9, r3
 8005558:	dd05      	ble.n	8005566 <FileManagerShow+0xf6>
 800555a:	9b0e      	ldr	r3, [sp, #56]	@ 0x38
 800555c:	3b03      	subs	r3, #3
 800555e:	1e5a      	subs	r2, r3, #1
 8005560:	4193      	sbcs	r3, r2
 8005562:	b2db      	uxtb	r3, r3
 8005564:	930a      	str	r3, [sp, #40]	@ 0x28
 8005566:	46d0      	mov	r8, sl
 8005568:	46ca      	mov	sl, r9
 800556a:	9b0c      	ldr	r3, [sp, #48]	@ 0x30
 800556c:	9a0a      	ldr	r2, [sp, #40]	@ 0x28
 800556e:	960f      	str	r6, [sp, #60]	@ 0x3c
 8005570:	1a9b      	subs	r3, r3, r2
 8005572:	9309      	str	r3, [sp, #36]	@ 0x24
 8005574:	46c0      	nop			@ (mov r8, r8)
 8005576:	2100      	movs	r1, #0
 8005578:	a81c      	add	r0, sp, #112	@ 0x70
 800557a:	f7ff f907 	bl	800478c <f_readdir>
 800557e:	46c0      	nop			@ (mov r8, r8)
 8005580:	2800      	cmp	r0, #0
 8005582:	d000      	beq.n	8005586 <FileManagerShow+0x116>
 8005584:	e2f6      	b.n	8005b74 <FileManagerShow+0x704>
 8005586:	ab0c      	add	r3, sp, #48	@ 0x30
 8005588:	7518      	strb	r0, [r3, #20]
 800558a:	2300      	movs	r3, #0
 800558c:	2400      	movs	r4, #0
 800558e:	4699      	mov	r9, r3
 8005590:	6b3a      	ldr	r2, [r7, #48]	@ 0x30
 8005592:	9305      	str	r3, [sp, #20]
 8005594:	6afb      	ldr	r3, [r7, #44]	@ 0x2c
 8005596:	1a9b      	subs	r3, r3, r2
 8005598:	42a3      	cmp	r3, r4
 800559a:	dc04      	bgt.n	80055a6 <FileManagerShow+0x136>
 800559c:	9a04      	ldr	r2, [sp, #16]
 800559e:	4694      	mov	ip, r2
 80055a0:	4463      	add	r3, ip
 80055a2:	42a3      	cmp	r3, r4
 80055a4:	dc2a      	bgt.n	80055fc <FileManagerShow+0x18c>
 80055a6:	3401      	adds	r4, #1
 80055a8:	45a2      	cmp	sl, r4
 80055aa:	dc00      	bgt.n	80055ae <FileManagerShow+0x13e>
 80055ac:	e0bc      	b.n	8005728 <FileManagerShow+0x2b8>
 80055ae:	4655      	mov	r5, sl
 80055b0:	464a      	mov	r2, r9
 80055b2:	ab0c      	add	r3, sp, #48	@ 0x30
 80055b4:	751a      	strb	r2, [r3, #20]
 80055b6:	46c0      	nop			@ (mov r8, r8)
 80055b8:	a928      	add	r1, sp, #160	@ 0xa0
 80055ba:	a81c      	add	r0, sp, #112	@ 0x70
 80055bc:	f7ff f8e6 	bl	800478c <f_readdir>
 80055c0:	46c0      	nop			@ (mov r8, r8)
 80055c2:	2800      	cmp	r0, #0
 80055c4:	d000      	beq.n	80055c8 <FileManagerShow+0x158>
 80055c6:	e0ae      	b.n	8005726 <FileManagerShow+0x2b6>
 80055c8:	2286      	movs	r2, #134	@ 0x86
 80055ca:	ab0c      	add	r3, sp, #48	@ 0x30
 80055cc:	189b      	adds	r3, r3, r2
 80055ce:	781b      	ldrb	r3, [r3, #0]
 80055d0:	2b00      	cmp	r3, #0
 80055d2:	d100      	bne.n	80055d6 <FileManagerShow+0x166>
 80055d4:	e0a7      	b.n	8005726 <FileManagerShow+0x2b6>
 80055d6:	3a0e      	subs	r2, #14
 80055d8:	ab0c      	add	r3, sp, #48	@ 0x30
 80055da:	189b      	adds	r3, r3, r2
 80055dc:	781b      	ldrb	r3, [r3, #0]
 80055de:	3a72      	subs	r2, #114	@ 0x72
 80055e0:	421a      	tst	r2, r3
 80055e2:	d000      	beq.n	80055e6 <FileManagerShow+0x176>
 80055e4:	e09c      	b.n	8005720 <FileManagerShow+0x2b0>
 80055e6:	6afb      	ldr	r3, [r7, #44]	@ 0x2c
 80055e8:	6b3a      	ldr	r2, [r7, #48]	@ 0x30
 80055ea:	46aa      	mov	sl, r5
 80055ec:	1a9b      	subs	r3, r3, r2
 80055ee:	42a3      	cmp	r3, r4
 80055f0:	dcd9      	bgt.n	80055a6 <FileManagerShow+0x136>
 80055f2:	9a04      	ldr	r2, [sp, #16]
 80055f4:	4694      	mov	ip, r2
 80055f6:	4463      	add	r3, ip
 80055f8:	42a3      	cmp	r3, r4
 80055fa:	ddd4      	ble.n	80055a6 <FileManagerShow+0x136>
 80055fc:	4643      	mov	r3, r8
 80055fe:	685b      	ldr	r3, [r3, #4]
 8005600:	9307      	str	r3, [sp, #28]
 8005602:	2c00      	cmp	r4, #0
 8005604:	d000      	beq.n	8005608 <FileManagerShow+0x198>
 8005606:	e167      	b.n	80058d8 <FileManagerShow+0x468>
 8005608:	49b1      	ldr	r1, [pc, #708]	@ (80058d0 <FileManagerShow+0x460>)
 800560a:	9a0c      	ldr	r2, [sp, #48]	@ 0x30
 800560c:	a811      	add	r0, sp, #68	@ 0x44
 800560e:	f000 fb6d 	bl	8005cec <my_strcpy_fixed_sym>
 8005612:	4643      	mov	r3, r8
 8005614:	6afd      	ldr	r5, [r7, #44]	@ 0x2c
 8005616:	691b      	ldr	r3, [r3, #16]
 8005618:	263e      	movs	r6, #62	@ 0x3e
 800561a:	9306      	str	r3, [sp, #24]
 800561c:	42a5      	cmp	r5, r4
 800561e:	d100      	bne.n	8005622 <FileManagerShow+0x1b2>
 8005620:	e19b      	b.n	800595a <FileManagerShow+0x4ea>
 8005622:	466b      	mov	r3, sp
 8005624:	8a9b      	ldrh	r3, [r3, #20]
 8005626:	6838      	ldr	r0, [r7, #0]
 8005628:	9308      	str	r3, [sp, #32]
 800562a:	469c      	mov	ip, r3
 800562c:	464b      	mov	r3, r9
 800562e:	88fa      	ldrh	r2, [r7, #6]
 8005630:	88b9      	ldrh	r1, [r7, #4]
 8005632:	9303      	str	r3, [sp, #12]
 8005634:	9b07      	ldr	r3, [sp, #28]
 8005636:	4462      	add	r2, ip
 8005638:	9302      	str	r3, [sp, #8]
 800563a:	9b06      	ldr	r3, [sp, #24]
 800563c:	b292      	uxth	r2, r2
 800563e:	9301      	str	r3, [sp, #4]
 8005640:	693b      	ldr	r3, [r7, #16]
 8005642:	9300      	str	r3, [sp, #0]
 8005644:	0033      	movs	r3, r6
 8005646:	f7fc ff35 	bl	80024b4 <LCD_WriteChar>
 800564a:	a811      	add	r0, sp, #68	@ 0x44
 800564c:	f7fa fd5a 	bl	8000104 <strlen>
 8005650:	2800      	cmp	r0, #0
 8005652:	d01f      	beq.n	8005694 <FileManagerShow+0x224>
 8005654:	2600      	movs	r6, #0
 8005656:	ad11      	add	r5, sp, #68	@ 0x44
 8005658:	e008      	b.n	800566c <FileManagerShow+0x1fc>
 800565a:	3340      	adds	r3, #64	@ 0x40
 800565c:	702b      	strb	r3, [r5, #0]
 800565e:	a811      	add	r0, sp, #68	@ 0x44
 8005660:	f7fa fd50 	bl	8000104 <strlen>
 8005664:	3601      	adds	r6, #1
 8005666:	3501      	adds	r5, #1
 8005668:	42b0      	cmp	r0, r6
 800566a:	d913      	bls.n	8005694 <FileManagerShow+0x224>
 800566c:	782b      	ldrb	r3, [r5, #0]
 800566e:	001a      	movs	r2, r3
 8005670:	3a80      	subs	r2, #128	@ 0x80
 8005672:	b2d2      	uxtb	r2, r2
 8005674:	2a2f      	cmp	r2, #47	@ 0x2f
 8005676:	d9f0      	bls.n	800565a <FileManagerShow+0x1ea>
 8005678:	001a      	movs	r2, r3
 800567a:	3220      	adds	r2, #32
 800567c:	b2d2      	uxtb	r2, r2
 800567e:	2a0f      	cmp	r2, #15
 8005680:	d843      	bhi.n	800570a <FileManagerShow+0x29a>
 8005682:	3310      	adds	r3, #16
 8005684:	702b      	strb	r3, [r5, #0]
 8005686:	a811      	add	r0, sp, #68	@ 0x44
 8005688:	f7fa fd3c 	bl	8000104 <strlen>
 800568c:	3601      	adds	r6, #1
 800568e:	3501      	adds	r5, #1
 8005690:	42b0      	cmp	r0, r6
 8005692:	d8eb      	bhi.n	800566c <FileManagerShow+0x1fc>
 8005694:	a811      	add	r0, sp, #68	@ 0x44
 8005696:	f000 fb95 	bl	8005dc4 <my_strlen>
 800569a:	9b09      	ldr	r3, [sp, #36]	@ 0x24
 800569c:	001d      	movs	r5, r3
 800569e:	4298      	cmp	r0, r3
 80056a0:	db00      	blt.n	80056a4 <FileManagerShow+0x234>
 80056a2:	e1e7      	b.n	8005a74 <FileManagerShow+0x604>
 80056a4:	1a1a      	subs	r2, r3, r0
 80056a6:	ab11      	add	r3, sp, #68	@ 0x44
 80056a8:	469c      	mov	ip, r3
 80056aa:	2120      	movs	r1, #32
 80056ac:	4460      	add	r0, ip
 80056ae:	f000 ffd7 	bl	8006660 <memset>
 80056b2:	2214      	movs	r2, #20
 80056b4:	ab0c      	add	r3, sp, #48	@ 0x30
 80056b6:	189b      	adds	r3, r3, r2
 80056b8:	464a      	mov	r2, r9
 80056ba:	555a      	strb	r2, [r3, r5]
 80056bc:	464d      	mov	r5, r9
 80056be:	9908      	ldr	r1, [sp, #32]
 80056c0:	693b      	ldr	r3, [r7, #16]
 80056c2:	468c      	mov	ip, r1
 80056c4:	88b8      	ldrh	r0, [r7, #4]
 80056c6:	7819      	ldrb	r1, [r3, #0]
 80056c8:	88fa      	ldrh	r2, [r7, #6]
 80056ca:	1809      	adds	r1, r1, r0
 80056cc:	6838      	ldr	r0, [r7, #0]
 80056ce:	9503      	str	r5, [sp, #12]
 80056d0:	9d06      	ldr	r5, [sp, #24]
 80056d2:	4462      	add	r2, ip
 80056d4:	9502      	str	r5, [sp, #8]
 80056d6:	9d07      	ldr	r5, [sp, #28]
 80056d8:	b292      	uxth	r2, r2
 80056da:	9300      	str	r3, [sp, #0]
 80056dc:	b289      	uxth	r1, r1
 80056de:	ab11      	add	r3, sp, #68	@ 0x44
 80056e0:	9501      	str	r5, [sp, #4]
 80056e2:	f7fd f87f 	bl	80027e4 <LCD_WriteString>
 80056e6:	9a05      	ldr	r2, [sp, #20]
 80056e8:	693b      	ldr	r3, [r7, #16]
 80056ea:	4694      	mov	ip, r2
 80056ec:	785b      	ldrb	r3, [r3, #1]
 80056ee:	449c      	add	ip, r3
 80056f0:	4663      	mov	r3, ip
 80056f2:	9305      	str	r3, [sp, #20]
 80056f4:	e757      	b.n	80055a6 <FileManagerShow+0x136>
 80056f6:	2328      	movs	r3, #40	@ 0x28
 80056f8:	2201      	movs	r2, #1
 80056fa:	54fa      	strb	r2, [r7, r3]
 80056fc:	b049      	add	sp, #292	@ 0x124
 80056fe:	bcf0      	pop	{r4, r5, r6, r7}
 8005700:	46bb      	mov	fp, r7
 8005702:	46b2      	mov	sl, r6
 8005704:	46a9      	mov	r9, r5
 8005706:	46a0      	mov	r8, r4
 8005708:	bdf0      	pop	{r4, r5, r6, r7, pc}
 800570a:	2bf0      	cmp	r3, #240	@ 0xf0
 800570c:	d100      	bne.n	8005710 <FileManagerShow+0x2a0>
 800570e:	e0d8      	b.n	80058c2 <FileManagerShow+0x452>
 8005710:	2bf1      	cmp	r3, #241	@ 0xf1
 8005712:	d1a7      	bne.n	8005664 <FileManagerShow+0x1f4>
 8005714:	3b39      	subs	r3, #57	@ 0x39
 8005716:	702b      	strb	r3, [r5, #0]
 8005718:	a811      	add	r0, sp, #68	@ 0x44
 800571a:	f7fa fcf3 	bl	8000104 <strlen>
 800571e:	e7a1      	b.n	8005664 <FileManagerShow+0x1f4>
 8005720:	42a5      	cmp	r5, r4
 8005722:	dd00      	ble.n	8005726 <FileManagerShow+0x2b6>
 8005724:	e744      	b.n	80055b0 <FileManagerShow+0x140>
 8005726:	46aa      	mov	sl, r5
 8005728:	9b05      	ldr	r3, [sp, #20]
 800572a:	459b      	cmp	fp, r3
 800572c:	dd00      	ble.n	8005730 <FileManagerShow+0x2c0>
 800572e:	e120      	b.n	8005972 <FileManagerShow+0x502>
 8005730:	2334      	movs	r3, #52	@ 0x34
 8005732:	5cfb      	ldrb	r3, [r7, r3]
 8005734:	2b01      	cmp	r3, #1
 8005736:	d0e1      	beq.n	80056fc <FileManagerShow+0x28c>
 8005738:	2324      	movs	r3, #36	@ 0x24
 800573a:	4642      	mov	r2, r8
 800573c:	5cd3      	ldrb	r3, [r2, r3]
 800573e:	2b00      	cmp	r3, #0
 8005740:	d100      	bne.n	8005744 <FileManagerShow+0x2d4>
 8005742:	e13c      	b.n	80059be <FileManagerShow+0x54e>
 8005744:	9b0a      	ldr	r3, [sp, #40]	@ 0x28
 8005746:	2b00      	cmp	r3, #0
 8005748:	d039      	beq.n	80057be <FileManagerShow+0x34e>
 800574a:	6b3a      	ldr	r2, [r7, #48]	@ 0x30
 800574c:	6afb      	ldr	r3, [r7, #44]	@ 0x2c
 800574e:	990d      	ldr	r1, [sp, #52]	@ 0x34
 8005750:	1a9b      	subs	r3, r3, r2
 8005752:	465a      	mov	r2, fp
 8005754:	1a50      	subs	r0, r2, r1
 8005756:	4358      	muls	r0, r3
 8005758:	4653      	mov	r3, sl
 800575a:	9a04      	ldr	r2, [sp, #16]
 800575c:	1a99      	subs	r1, r3, r2
 800575e:	f7fa fd63 	bl	8000228 <__divsi3>
 8005762:	466b      	mov	r3, sp
 8005764:	8d9b      	ldrh	r3, [r3, #44]	@ 0x2c
 8005766:	0004      	movs	r4, r0
 8005768:	9305      	str	r3, [sp, #20]
 800576a:	b286      	uxth	r6, r0
 800576c:	2800      	cmp	r0, #0
 800576e:	d000      	beq.n	8005772 <FileManagerShow+0x302>
 8005770:	e1da      	b.n	8005b28 <FileManagerShow+0x6b8>
 8005772:	9b05      	ldr	r3, [sp, #20]
 8005774:	88fa      	ldrh	r2, [r7, #6]
 8005776:	469c      	mov	ip, r3
 8005778:	88b9      	ldrh	r1, [r7, #4]
 800577a:	18b2      	adds	r2, r6, r2
 800577c:	b210      	sxth	r0, r2
 800577e:	4461      	add	r1, ip
 8005780:	4684      	mov	ip, r0
 8005782:	6938      	ldr	r0, [r7, #16]
 8005784:	9d0d      	ldr	r5, [sp, #52]	@ 0x34
 8005786:	7800      	ldrb	r0, [r0, #0]
 8005788:	b289      	uxth	r1, r1
 800578a:	b2ab      	uxth	r3, r5
 800578c:	9307      	str	r3, [sp, #28]
 800578e:	1e4b      	subs	r3, r1, #1
 8005790:	1a09      	subs	r1, r1, r0
 8005792:	b209      	sxth	r1, r1
 8005794:	9106      	str	r1, [sp, #24]
 8005796:	4641      	mov	r1, r8
 8005798:	69c9      	ldr	r1, [r1, #28]
 800579a:	6838      	ldr	r0, [r7, #0]
 800579c:	9101      	str	r1, [sp, #4]
 800579e:	b2a9      	uxth	r1, r5
 80057a0:	3901      	subs	r1, #1
 80057a2:	4689      	mov	r9, r1
 80057a4:	444a      	add	r2, r9
 80057a6:	b212      	sxth	r2, r2
 80057a8:	9200      	str	r2, [sp, #0]
 80057aa:	9906      	ldr	r1, [sp, #24]
 80057ac:	4662      	mov	r2, ip
 80057ae:	b21b      	sxth	r3, r3
 80057b0:	f7fc fe54 	bl	800245c <LCD_DrawFilledRectangle>
 80057b4:	46ac      	mov	ip, r5
 80057b6:	4464      	add	r4, ip
 80057b8:	455c      	cmp	r4, fp
 80057ba:	da00      	bge.n	80057be <FileManagerShow+0x34e>
 80057bc:	e199      	b.n	8005af2 <FileManagerShow+0x682>
 80057be:	4653      	mov	r3, sl
 80057c0:	2536      	movs	r5, #54	@ 0x36
 80057c2:	2401      	movs	r4, #1
 80057c4:	1e5e      	subs	r6, r3, #1
 80057c6:	f000 fa65 	bl	8005c94 <KEYB_Inkeys>
 80057ca:	0022      	movs	r2, r4
 80057cc:	5d7b      	ldrb	r3, [r7, r5]
 80057ce:	0001      	movs	r1, r0
 80057d0:	409a      	lsls	r2, r3
 80057d2:	4011      	ands	r1, r2
 80057d4:	4210      	tst	r0, r2
 80057d6:	d003      	beq.n	80057e0 <FileManagerShow+0x370>
 80057d8:	6afa      	ldr	r2, [r7, #44]	@ 0x2c
 80057da:	42b2      	cmp	r2, r6
 80057dc:	da00      	bge.n	80057e0 <FileManagerShow+0x370>
 80057de:	e119      	b.n	8005a14 <FileManagerShow+0x5a4>
 80057e0:	2335      	movs	r3, #53	@ 0x35
 80057e2:	0022      	movs	r2, r4
 80057e4:	5cfb      	ldrb	r3, [r7, r3]
 80057e6:	409a      	lsls	r2, r3
 80057e8:	0013      	movs	r3, r2
 80057ea:	0002      	movs	r2, r0
 80057ec:	401a      	ands	r2, r3
 80057ee:	4694      	mov	ip, r2
 80057f0:	4218      	tst	r0, r3
 80057f2:	d003      	beq.n	80057fc <FileManagerShow+0x38c>
 80057f4:	6afa      	ldr	r2, [r7, #44]	@ 0x2c
 80057f6:	2a00      	cmp	r2, #0
 80057f8:	dd00      	ble.n	80057fc <FileManagerShow+0x38c>
 80057fa:	e127      	b.n	8005a4c <FileManagerShow+0x5dc>
 80057fc:	2337      	movs	r3, #55	@ 0x37
 80057fe:	0022      	movs	r2, r4
 8005800:	5cfb      	ldrb	r3, [r7, r3]
 8005802:	409a      	lsls	r2, r3
 8005804:	0003      	movs	r3, r0
 8005806:	4013      	ands	r3, r2
 8005808:	4210      	tst	r0, r2
 800580a:	d0dc      	beq.n	80057c6 <FileManagerShow+0x356>
 800580c:	4662      	mov	r2, ip
 800580e:	468c      	mov	ip, r1
 8005810:	0011      	movs	r1, r2
 8005812:	4662      	mov	r2, ip
 8005814:	2a00      	cmp	r2, #0
 8005816:	d000      	beq.n	800581a <FileManagerShow+0x3aa>
 8005818:	e1a0      	b.n	8005b5c <FileManagerShow+0x6ec>
 800581a:	2900      	cmp	r1, #0
 800581c:	d000      	beq.n	8005820 <FileManagerShow+0x3b0>
 800581e:	e19f      	b.n	8005b60 <FileManagerShow+0x6f0>
 8005820:	46c2      	mov	sl, r8
 8005822:	9e0f      	ldr	r6, [sp, #60]	@ 0x3c
 8005824:	6afa      	ldr	r2, [r7, #44]	@ 0x2c
 8005826:	2a00      	cmp	r2, #0
 8005828:	d100      	bne.n	800582c <FileManagerShow+0x3bc>
 800582a:	e1a7      	b.n	8005b7c <FileManagerShow+0x70c>
 800582c:	ab38      	add	r3, sp, #224	@ 0xe0
 800582e:	7a1b      	ldrb	r3, [r3, #8]
 8005830:	06db      	lsls	r3, r3, #27
 8005832:	d400      	bmi.n	8005836 <FileManagerShow+0x3c6>
 8005834:	e1d6      	b.n	8005be4 <FileManagerShow+0x774>
 8005836:	697d      	ldr	r5, [r7, #20]
 8005838:	0028      	movs	r0, r5
 800583a:	f000 fac3 	bl	8005dc4 <my_strlen>
 800583e:	aa0c      	add	r2, sp, #48	@ 0x30
 8005840:	4694      	mov	ip, r2
 8005842:	23c6      	movs	r3, #198	@ 0xc6
 8005844:	4463      	add	r3, ip
 8005846:	0004      	movs	r4, r0
 8005848:	0018      	movs	r0, r3
 800584a:	f000 fabb 	bl	8005dc4 <my_strlen>
 800584e:	1821      	adds	r1, r4, r0
 8005850:	3102      	adds	r1, #2
 8005852:	0028      	movs	r0, r5
 8005854:	f000 feaa 	bl	80065ac <realloc>
 8005858:	491e      	ldr	r1, [pc, #120]	@ (80058d4 <FileManagerShow+0x464>)
 800585a:	6178      	str	r0, [r7, #20]
 800585c:	f000 fa72 	bl	8005d44 <my_strcat>
 8005860:	aa0c      	add	r2, sp, #48	@ 0x30
 8005862:	4694      	mov	ip, r2
 8005864:	23c6      	movs	r3, #198	@ 0xc6
 8005866:	4463      	add	r3, ip
 8005868:	0019      	movs	r1, r3
 800586a:	6978      	ldr	r0, [r7, #20]
 800586c:	f000 fa6a 	bl	8005d44 <my_strcat>
 8005870:	6a7b      	ldr	r3, [r7, #36]	@ 0x24
 8005872:	6afa      	ldr	r2, [r7, #44]	@ 0x2c
 8005874:	69f8      	ldr	r0, [r7, #28]
 8005876:	009b      	lsls	r3, r3, #2
 8005878:	501a      	str	r2, [r3, r0]
 800587a:	6a7b      	ldr	r3, [r7, #36]	@ 0x24
 800587c:	6b39      	ldr	r1, [r7, #48]	@ 0x30
 800587e:	6a3a      	ldr	r2, [r7, #32]
 8005880:	009b      	lsls	r3, r3, #2
 8005882:	5099      	str	r1, [r3, r2]
 8005884:	6a7b      	ldr	r3, [r7, #36]	@ 0x24
 8005886:	1c5a      	adds	r2, r3, #1
 8005888:	3302      	adds	r3, #2
 800588a:	627a      	str	r2, [r7, #36]	@ 0x24
 800588c:	0099      	lsls	r1, r3, #2
 800588e:	f000 fe8d 	bl	80065ac <realloc>
 8005892:	6a79      	ldr	r1, [r7, #36]	@ 0x24
 8005894:	61f8      	str	r0, [r7, #28]
 8005896:	3101      	adds	r1, #1
 8005898:	6a38      	ldr	r0, [r7, #32]
 800589a:	0089      	lsls	r1, r1, #2
 800589c:	f000 fe86 	bl	80065ac <realloc>
 80058a0:	2300      	movs	r3, #0
 80058a2:	6a7a      	ldr	r2, [r7, #36]	@ 0x24
 80058a4:	69f9      	ldr	r1, [r7, #28]
 80058a6:	0092      	lsls	r2, r2, #2
 80058a8:	6238      	str	r0, [r7, #32]
 80058aa:	5053      	str	r3, [r2, r1]
 80058ac:	6a7a      	ldr	r2, [r7, #36]	@ 0x24
 80058ae:	0092      	lsls	r2, r2, #2
 80058b0:	5013      	str	r3, [r2, r0]
 80058b2:	2229      	movs	r2, #41	@ 0x29
 80058b4:	54bb      	strb	r3, [r7, r2]
 80058b6:	46c0      	nop			@ (mov r8, r8)
 80058b8:	a81c      	add	r0, sp, #112	@ 0x70
 80058ba:	f7fe ff4d 	bl	8004758 <f_closedir>
 80058be:	46c0      	nop			@ (mov r8, r8)
 80058c0:	e60d      	b.n	80054de <FileManagerShow+0x6e>
 80058c2:	3b48      	subs	r3, #72	@ 0x48
 80058c4:	702b      	strb	r3, [r5, #0]
 80058c6:	a811      	add	r0, sp, #68	@ 0x44
 80058c8:	f7fa fc1c 	bl	8000104 <strlen>
 80058cc:	e6ca      	b.n	8005664 <FileManagerShow+0x1f4>
 80058ce:	46c0      	nop			@ (mov r8, r8)
 80058d0:	08006870 	.word	0x08006870
 80058d4:	08007bb4 	.word	0x08007bb4
 80058d8:	aa0c      	add	r2, sp, #48	@ 0x30
 80058da:	4694      	mov	ip, r2
 80058dc:	2386      	movs	r3, #134	@ 0x86
 80058de:	4463      	add	r3, ip
 80058e0:	0018      	movs	r0, r3
 80058e2:	f000 fa6f 	bl	8005dc4 <my_strlen>
 80058e6:	9b09      	ldr	r3, [sp, #36]	@ 0x24
 80058e8:	4298      	cmp	r0, r3
 80058ea:	d800      	bhi.n	80058ee <FileManagerShow+0x47e>
 80058ec:	e089      	b.n	8005a02 <FileManagerShow+0x592>
 80058ee:	2278      	movs	r2, #120	@ 0x78
 80058f0:	9b0e      	ldr	r3, [sp, #56]	@ 0x38
 80058f2:	1edd      	subs	r5, r3, #3
 80058f4:	9b0a      	ldr	r3, [sp, #40]	@ 0x28
 80058f6:	1aed      	subs	r5, r5, r3
 80058f8:	ab0c      	add	r3, sp, #48	@ 0x30
 80058fa:	189b      	adds	r3, r3, r2
 80058fc:	781b      	ldrb	r3, [r3, #0]
 80058fe:	06db      	lsls	r3, r3, #27
 8005900:	d400      	bmi.n	8005904 <FileManagerShow+0x494>
 8005902:	e0b9      	b.n	8005a78 <FileManagerShow+0x608>
 8005904:	a90c      	add	r1, sp, #48	@ 0x30
 8005906:	468c      	mov	ip, r1
 8005908:	2386      	movs	r3, #134	@ 0x86
 800590a:	4463      	add	r3, ip
 800590c:	0019      	movs	r1, r3
 800590e:	a811      	add	r0, sp, #68	@ 0x44
 8005910:	002a      	movs	r2, r5
 8005912:	f000 f9eb 	bl	8005cec <my_strcpy_fixed_sym>
 8005916:	49be      	ldr	r1, [pc, #760]	@ (8005c10 <FileManagerShow+0x7a0>)
 8005918:	a811      	add	r0, sp, #68	@ 0x44
 800591a:	f000 fa13 	bl	8005d44 <my_strcat>
 800591e:	2278      	movs	r2, #120	@ 0x78
 8005920:	ab0c      	add	r3, sp, #48	@ 0x30
 8005922:	189b      	adds	r3, r3, r2
 8005924:	781b      	ldrb	r3, [r3, #0]
 8005926:	2666      	movs	r6, #102	@ 0x66
 8005928:	06db      	lsls	r3, r3, #27
 800592a:	d503      	bpl.n	8005934 <FileManagerShow+0x4c4>
 800592c:	4643      	mov	r3, r8
 800592e:	681b      	ldr	r3, [r3, #0]
 8005930:	3e22      	subs	r6, #34	@ 0x22
 8005932:	9307      	str	r3, [sp, #28]
 8005934:	2301      	movs	r3, #1
 8005936:	6afd      	ldr	r5, [r7, #44]	@ 0x2c
 8005938:	4023      	ands	r3, r4
 800593a:	9308      	str	r3, [sp, #32]
 800593c:	42a5      	cmp	r5, r4
 800593e:	d032      	beq.n	80059a6 <FileManagerShow+0x536>
 8005940:	4643      	mov	r3, r8
 8005942:	691b      	ldr	r3, [r3, #16]
 8005944:	9306      	str	r3, [sp, #24]
 8005946:	9b08      	ldr	r3, [sp, #32]
 8005948:	2b00      	cmp	r3, #0
 800594a:	d100      	bne.n	800594e <FileManagerShow+0x4de>
 800594c:	e669      	b.n	8005622 <FileManagerShow+0x1b2>
 800594e:	4643      	mov	r3, r8
 8005950:	695b      	ldr	r3, [r3, #20]
 8005952:	9306      	str	r3, [sp, #24]
 8005954:	42a5      	cmp	r5, r4
 8005956:	d000      	beq.n	800595a <FileManagerShow+0x4ea>
 8005958:	e663      	b.n	8005622 <FileManagerShow+0x1b2>
 800595a:	4643      	mov	r3, r8
 800595c:	689b      	ldr	r3, [r3, #8]
 800595e:	4642      	mov	r2, r8
 8005960:	9307      	str	r3, [sp, #28]
 8005962:	2324      	movs	r3, #36	@ 0x24
 8005964:	5cd3      	ldrb	r3, [r2, r3]
 8005966:	2b00      	cmp	r3, #0
 8005968:	d100      	bne.n	800596c <FileManagerShow+0x4fc>
 800596a:	e65a      	b.n	8005622 <FileManagerShow+0x1b2>
 800596c:	6993      	ldr	r3, [r2, #24]
 800596e:	9306      	str	r3, [sp, #24]
 8005970:	e657      	b.n	8005622 <FileManagerShow+0x1b2>
 8005972:	9a0b      	ldr	r2, [sp, #44]	@ 0x2c
 8005974:	4645      	mov	r5, r8
 8005976:	4694      	mov	ip, r2
 8005978:	693a      	ldr	r2, [r7, #16]
 800597a:	980a      	ldr	r0, [sp, #40]	@ 0x28
 800597c:	7812      	ldrb	r2, [r2, #0]
 800597e:	88b9      	ldrh	r1, [r7, #4]
 8005980:	4342      	muls	r2, r0
 8005982:	1e4b      	subs	r3, r1, #1
 8005984:	4463      	add	r3, ip
 8005986:	88fc      	ldrh	r4, [r7, #6]
 8005988:	1a9b      	subs	r3, r3, r2
 800598a:	9a05      	ldr	r2, [sp, #20]
 800598c:	68ed      	ldr	r5, [r5, #12]
 800598e:	18a2      	adds	r2, r4, r2
 8005990:	3c01      	subs	r4, #1
 8005992:	445c      	add	r4, fp
 8005994:	b2a4      	uxth	r4, r4
 8005996:	6838      	ldr	r0, [r7, #0]
 8005998:	b29b      	uxth	r3, r3
 800599a:	b292      	uxth	r2, r2
 800599c:	9501      	str	r5, [sp, #4]
 800599e:	9400      	str	r4, [sp, #0]
 80059a0:	f7fc fb32 	bl	8002008 <LCD_FillWindow>
 80059a4:	e6c4      	b.n	8005730 <FileManagerShow+0x2c0>
 80059a6:	2240      	movs	r2, #64	@ 0x40
 80059a8:	a928      	add	r1, sp, #160	@ 0xa0
 80059aa:	a838      	add	r0, sp, #224	@ 0xe0
 80059ac:	f000 feac 	bl	8006708 <memcpy>
 80059b0:	4643      	mov	r3, r8
 80059b2:	691b      	ldr	r3, [r3, #16]
 80059b4:	9306      	str	r3, [sp, #24]
 80059b6:	9b08      	ldr	r3, [sp, #32]
 80059b8:	2b00      	cmp	r3, #0
 80059ba:	d1c8      	bne.n	800594e <FileManagerShow+0x4de>
 80059bc:	e7cd      	b.n	800595a <FileManagerShow+0x4ea>
 80059be:	980b      	ldr	r0, [sp, #44]	@ 0x2c
 80059c0:	693a      	ldr	r2, [r7, #16]
 80059c2:	4684      	mov	ip, r0
 80059c4:	7856      	ldrb	r6, [r2, #1]
 80059c6:	980a      	ldr	r0, [sp, #40]	@ 0x28
 80059c8:	7812      	ldrb	r2, [r2, #0]
 80059ca:	88b9      	ldrh	r1, [r7, #4]
 80059cc:	4342      	muls	r2, r0
 80059ce:	6b3c      	ldr	r4, [r7, #48]	@ 0x30
 80059d0:	1e4b      	subs	r3, r1, #1
 80059d2:	4463      	add	r3, ip
 80059d4:	1a9b      	subs	r3, r3, r2
 80059d6:	0022      	movs	r2, r4
 80059d8:	b21b      	sxth	r3, r3
 80059da:	4699      	mov	r9, r3
 80059dc:	4643      	mov	r3, r8
 80059de:	4372      	muls	r2, r6
 80059e0:	3401      	adds	r4, #1
 80059e2:	4374      	muls	r4, r6
 80059e4:	88fd      	ldrh	r5, [r7, #6]
 80059e6:	699b      	ldr	r3, [r3, #24]
 80059e8:	18aa      	adds	r2, r5, r2
 80059ea:	3d01      	subs	r5, #1
 80059ec:	1964      	adds	r4, r4, r5
 80059ee:	b224      	sxth	r4, r4
 80059f0:	6838      	ldr	r0, [r7, #0]
 80059f2:	b212      	sxth	r2, r2
 80059f4:	9301      	str	r3, [sp, #4]
 80059f6:	b209      	sxth	r1, r1
 80059f8:	464b      	mov	r3, r9
 80059fa:	9400      	str	r4, [sp, #0]
 80059fc:	f7fc fcfe 	bl	80023fc <LCD_DrawRectangle>
 8005a00:	e6a0      	b.n	8005744 <FileManagerShow+0x2d4>
 8005a02:	aa0c      	add	r2, sp, #48	@ 0x30
 8005a04:	4694      	mov	ip, r2
 8005a06:	2386      	movs	r3, #134	@ 0x86
 8005a08:	4463      	add	r3, ip
 8005a0a:	0019      	movs	r1, r3
 8005a0c:	a811      	add	r0, sp, #68	@ 0x44
 8005a0e:	f000 f9af 	bl	8005d70 <my_strcpy>
 8005a12:	e784      	b.n	800591e <FileManagerShow+0x4ae>
 8005a14:	2335      	movs	r3, #53	@ 0x35
 8005a16:	0021      	movs	r1, r4
 8005a18:	5cfb      	ldrb	r3, [r7, r3]
 8005a1a:	4099      	lsls	r1, r3
 8005a1c:	2337      	movs	r3, #55	@ 0x37
 8005a1e:	5cfb      	ldrb	r3, [r7, r3]
 8005a20:	4001      	ands	r1, r0
 8005a22:	409c      	lsls	r4, r3
 8005a24:	0003      	movs	r3, r0
 8005a26:	4023      	ands	r3, r4
 8005a28:	6b38      	ldr	r0, [r7, #48]	@ 0x30
 8005a2a:	9c04      	ldr	r4, [sp, #16]
 8005a2c:	3001      	adds	r0, #1
 8005a2e:	42a0      	cmp	r0, r4
 8005a30:	da02      	bge.n	8005a38 <FileManagerShow+0x5c8>
 8005a32:	4550      	cmp	r0, sl
 8005a34:	da00      	bge.n	8005a38 <FileManagerShow+0x5c8>
 8005a36:	6338      	str	r0, [r7, #48]	@ 0x30
 8005a38:	3201      	adds	r2, #1
 8005a3a:	62fa      	str	r2, [r7, #44]	@ 0x2c
 8005a3c:	2900      	cmp	r1, #0
 8005a3e:	d110      	bne.n	8005a62 <FileManagerShow+0x5f2>
 8005a40:	2b00      	cmp	r3, #0
 8005a42:	d100      	bne.n	8005a46 <FileManagerShow+0x5d6>
 8005a44:	e596      	b.n	8005574 <FileManagerShow+0x104>
 8005a46:	46c2      	mov	sl, r8
 8005a48:	9e0f      	ldr	r6, [sp, #60]	@ 0x3c
 8005a4a:	e6ec      	b.n	8005826 <FileManagerShow+0x3b6>
 8005a4c:	4663      	mov	r3, ip
 8005a4e:	468c      	mov	ip, r1
 8005a50:	0019      	movs	r1, r3
 8005a52:	2337      	movs	r3, #55	@ 0x37
 8005a54:	5cfb      	ldrb	r3, [r7, r3]
 8005a56:	409c      	lsls	r4, r3
 8005a58:	0003      	movs	r3, r0
 8005a5a:	4660      	mov	r0, ip
 8005a5c:	4023      	ands	r3, r4
 8005a5e:	2800      	cmp	r0, #0
 8005a60:	d1e2      	bne.n	8005a28 <FileManagerShow+0x5b8>
 8005a62:	6b39      	ldr	r1, [r7, #48]	@ 0x30
 8005a64:	3a01      	subs	r2, #1
 8005a66:	1e48      	subs	r0, r1, #1
 8005a68:	4249      	negs	r1, r1
 8005a6a:	17c9      	asrs	r1, r1, #31
 8005a6c:	4008      	ands	r0, r1
 8005a6e:	6338      	str	r0, [r7, #48]	@ 0x30
 8005a70:	62fa      	str	r2, [r7, #44]	@ 0x2c
 8005a72:	e7e5      	b.n	8005a40 <FileManagerShow+0x5d0>
 8005a74:	0005      	movs	r5, r0
 8005a76:	e61c      	b.n	80056b2 <FileManagerShow+0x242>
 8005a78:	aa0c      	add	r2, sp, #48	@ 0x30
 8005a7a:	4694      	mov	ip, r2
 8005a7c:	2386      	movs	r3, #134	@ 0x86
 8005a7e:	4463      	add	r3, ip
 8005a80:	0018      	movs	r0, r3
 8005a82:	f000 f99f 	bl	8005dc4 <my_strlen>
 8005a86:	e000      	b.n	8005a8a <FileManagerShow+0x61a>
 8005a88:	0018      	movs	r0, r3
 8005a8a:	2800      	cmp	r0, #0
 8005a8c:	d100      	bne.n	8005a90 <FileManagerShow+0x620>
 8005a8e:	e739      	b.n	8005904 <FileManagerShow+0x494>
 8005a90:	1e43      	subs	r3, r0, #1
 8005a92:	aa28      	add	r2, sp, #160	@ 0xa0
 8005a94:	18d2      	adds	r2, r2, r3
 8005a96:	7d92      	ldrb	r2, [r2, #22]
 8005a98:	2a2e      	cmp	r2, #46	@ 0x2e
 8005a9a:	d1f5      	bne.n	8005a88 <FileManagerShow+0x618>
 8005a9c:	2801      	cmp	r0, #1
 8005a9e:	d100      	bne.n	8005aa2 <FileManagerShow+0x632>
 8005aa0:	e730      	b.n	8005904 <FileManagerShow+0x494>
 8005aa2:	aa0c      	add	r2, sp, #48	@ 0x30
 8005aa4:	4694      	mov	ip, r2
 8005aa6:	2386      	movs	r3, #134	@ 0x86
 8005aa8:	4463      	add	r3, ip
 8005aaa:	181e      	adds	r6, r3, r0
 8005aac:	0030      	movs	r0, r6
 8005aae:	f000 f989 	bl	8005dc4 <my_strlen>
 8005ab2:	a90c      	add	r1, sp, #48	@ 0x30
 8005ab4:	468c      	mov	ip, r1
 8005ab6:	2386      	movs	r3, #134	@ 0x86
 8005ab8:	4463      	add	r3, ip
 8005aba:	0019      	movs	r1, r3
 8005abc:	1a2a      	subs	r2, r5, r0
 8005abe:	a811      	add	r0, sp, #68	@ 0x44
 8005ac0:	f000 f914 	bl	8005cec <my_strcpy_fixed_sym>
 8005ac4:	a811      	add	r0, sp, #68	@ 0x44
 8005ac6:	f000 f97d 	bl	8005dc4 <my_strlen>
 8005aca:	0005      	movs	r5, r0
 8005acc:	0030      	movs	r0, r6
 8005ace:	f000 f979 	bl	8005dc4 <my_strlen>
 8005ad2:	182a      	adds	r2, r5, r0
 8005ad4:	9d09      	ldr	r5, [sp, #36]	@ 0x24
 8005ad6:	494e      	ldr	r1, [pc, #312]	@ (8005c10 <FileManagerShow+0x7a0>)
 8005ad8:	1aaa      	subs	r2, r5, r2
 8005ada:	a811      	add	r0, sp, #68	@ 0x44
 8005adc:	f000 f916 	bl	8005d0c <my_strcat_fixed_sym>
 8005ae0:	a811      	add	r0, sp, #68	@ 0x44
 8005ae2:	f000 f96f 	bl	8005dc4 <my_strlen>
 8005ae6:	0031      	movs	r1, r6
 8005ae8:	1a2a      	subs	r2, r5, r0
 8005aea:	a811      	add	r0, sp, #68	@ 0x44
 8005aec:	f000 f90e 	bl	8005d0c <my_strcat_fixed_sym>
 8005af0:	e715      	b.n	800591e <FileManagerShow+0x4ae>
 8005af2:	9b05      	ldr	r3, [sp, #20]
 8005af4:	4645      	mov	r5, r8
 8005af6:	469c      	mov	ip, r3
 8005af8:	88fc      	ldrh	r4, [r7, #6]
 8005afa:	88b9      	ldrh	r1, [r7, #4]
 8005afc:	6938      	ldr	r0, [r7, #16]
 8005afe:	9a07      	ldr	r2, [sp, #28]
 8005b00:	7800      	ldrb	r0, [r0, #0]
 8005b02:	4461      	add	r1, ip
 8005b04:	1912      	adds	r2, r2, r4
 8005b06:	3c01      	subs	r4, #1
 8005b08:	6a2d      	ldr	r5, [r5, #32]
 8005b0a:	b289      	uxth	r1, r1
 8005b0c:	445c      	add	r4, fp
 8005b0e:	1e4b      	subs	r3, r1, #1
 8005b10:	18b2      	adds	r2, r6, r2
 8005b12:	1a09      	subs	r1, r1, r0
 8005b14:	b224      	sxth	r4, r4
 8005b16:	6838      	ldr	r0, [r7, #0]
 8005b18:	b21b      	sxth	r3, r3
 8005b1a:	b212      	sxth	r2, r2
 8005b1c:	b209      	sxth	r1, r1
 8005b1e:	9501      	str	r5, [sp, #4]
 8005b20:	9400      	str	r4, [sp, #0]
 8005b22:	f7fc fc9b 	bl	800245c <LCD_DrawFilledRectangle>
 8005b26:	e64a      	b.n	80057be <FileManagerShow+0x34e>
 8005b28:	469c      	mov	ip, r3
 8005b2a:	2506      	movs	r5, #6
 8005b2c:	5f78      	ldrsh	r0, [r7, r5]
 8005b2e:	88b9      	ldrh	r1, [r7, #4]
 8005b30:	4645      	mov	r5, r8
 8005b32:	4461      	add	r1, ip
 8005b34:	4684      	mov	ip, r0
 8005b36:	88fa      	ldrh	r2, [r7, #6]
 8005b38:	6938      	ldr	r0, [r7, #16]
 8005b3a:	3a01      	subs	r2, #1
 8005b3c:	7800      	ldrb	r0, [r0, #0]
 8005b3e:	6a2d      	ldr	r5, [r5, #32]
 8005b40:	b289      	uxth	r1, r1
 8005b42:	18b2      	adds	r2, r6, r2
 8005b44:	1e4b      	subs	r3, r1, #1
 8005b46:	b212      	sxth	r2, r2
 8005b48:	1a09      	subs	r1, r1, r0
 8005b4a:	b21b      	sxth	r3, r3
 8005b4c:	6838      	ldr	r0, [r7, #0]
 8005b4e:	b209      	sxth	r1, r1
 8005b50:	9200      	str	r2, [sp, #0]
 8005b52:	9501      	str	r5, [sp, #4]
 8005b54:	4662      	mov	r2, ip
 8005b56:	f7fc fc81 	bl	800245c <LCD_DrawFilledRectangle>
 8005b5a:	e60a      	b.n	8005772 <FileManagerShow+0x302>
 8005b5c:	6afa      	ldr	r2, [r7, #44]	@ 0x2c
 8005b5e:	e763      	b.n	8005a28 <FileManagerShow+0x5b8>
 8005b60:	6b39      	ldr	r1, [r7, #48]	@ 0x30
 8005b62:	6afa      	ldr	r2, [r7, #44]	@ 0x2c
 8005b64:	1e48      	subs	r0, r1, #1
 8005b66:	4249      	negs	r1, r1
 8005b68:	17c9      	asrs	r1, r1, #31
 8005b6a:	4008      	ands	r0, r1
 8005b6c:	3a01      	subs	r2, #1
 8005b6e:	6338      	str	r0, [r7, #48]	@ 0x30
 8005b70:	62fa      	str	r2, [r7, #44]	@ 0x2c
 8005b72:	e765      	b.n	8005a40 <FileManagerShow+0x5d0>
 8005b74:	2328      	movs	r3, #40	@ 0x28
 8005b76:	2202      	movs	r2, #2
 8005b78:	54fa      	strb	r2, [r7, r3]
 8005b7a:	e5bf      	b.n	80056fc <FileManagerShow+0x28c>
 8005b7c:	6a7b      	ldr	r3, [r7, #36]	@ 0x24
 8005b7e:	2b00      	cmp	r3, #0
 8005b80:	d10c      	bne.n	8005b9c <FileManagerShow+0x72c>
 8005b82:	69fb      	ldr	r3, [r7, #28]
 8005b84:	601a      	str	r2, [r3, #0]
 8005b86:	6a3b      	ldr	r3, [r7, #32]
 8005b88:	601a      	str	r2, [r3, #0]
 8005b8a:	2329      	movs	r3, #41	@ 0x29
 8005b8c:	2200      	movs	r2, #0
 8005b8e:	54fa      	strb	r2, [r7, r3]
 8005b90:	46c0      	nop			@ (mov r8, r8)
 8005b92:	a81c      	add	r0, sp, #112	@ 0x70
 8005b94:	f7fe fde0 	bl	8004758 <f_closedir>
 8005b98:	46c0      	nop			@ (mov r8, r8)
 8005b9a:	e4a0      	b.n	80054de <FileManagerShow+0x6e>
 8005b9c:	6978      	ldr	r0, [r7, #20]
 8005b9e:	f000 f911 	bl	8005dc4 <my_strlen>
 8005ba2:	1e41      	subs	r1, r0, #1
 8005ba4:	d409      	bmi.n	8005bba <FileManagerShow+0x74a>
 8005ba6:	2200      	movs	r2, #0
 8005ba8:	e001      	b.n	8005bae <FileManagerShow+0x73e>
 8005baa:	2b2f      	cmp	r3, #47	@ 0x2f
 8005bac:	d005      	beq.n	8005bba <FileManagerShow+0x74a>
 8005bae:	697b      	ldr	r3, [r7, #20]
 8005bb0:	1858      	adds	r0, r3, r1
 8005bb2:	5c5b      	ldrb	r3, [r3, r1]
 8005bb4:	7002      	strb	r2, [r0, #0]
 8005bb6:	3901      	subs	r1, #1
 8005bb8:	d2f7      	bcs.n	8005baa <FileManagerShow+0x73a>
 8005bba:	3102      	adds	r1, #2
 8005bbc:	6978      	ldr	r0, [r7, #20]
 8005bbe:	f000 fcf5 	bl	80065ac <realloc>
 8005bc2:	6a79      	ldr	r1, [r7, #36]	@ 0x24
 8005bc4:	6178      	str	r0, [r7, #20]
 8005bc6:	0089      	lsls	r1, r1, #2
 8005bc8:	69f8      	ldr	r0, [r7, #28]
 8005bca:	f000 fcef 	bl	80065ac <realloc>
 8005bce:	6a79      	ldr	r1, [r7, #36]	@ 0x24
 8005bd0:	61f8      	str	r0, [r7, #28]
 8005bd2:	0089      	lsls	r1, r1, #2
 8005bd4:	6a38      	ldr	r0, [r7, #32]
 8005bd6:	f000 fce9 	bl	80065ac <realloc>
 8005bda:	6a7b      	ldr	r3, [r7, #36]	@ 0x24
 8005bdc:	6238      	str	r0, [r7, #32]
 8005bde:	3b01      	subs	r3, #1
 8005be0:	627b      	str	r3, [r7, #36]	@ 0x24
 8005be2:	e7d2      	b.n	8005b8a <FileManagerShow+0x71a>
 8005be4:	69b8      	ldr	r0, [r7, #24]
 8005be6:	2800      	cmp	r0, #0
 8005be8:	d001      	beq.n	8005bee <FileManagerShow+0x77e>
 8005bea:	f000 fc23 	bl	8006434 <free>
 8005bee:	ab0c      	add	r3, sp, #48	@ 0x30
 8005bf0:	469c      	mov	ip, r3
 8005bf2:	20c6      	movs	r0, #198	@ 0xc6
 8005bf4:	4460      	add	r0, ip
 8005bf6:	f000 f8c5 	bl	8005d84 <my_strcpy_mem>
 8005bfa:	2380      	movs	r3, #128	@ 0x80
 8005bfc:	005b      	lsls	r3, r3, #1
 8005bfe:	61b8      	str	r0, [r7, #24]
 8005c00:	853b      	strh	r3, [r7, #40]	@ 0x28
 8005c02:	46c0      	nop			@ (mov r8, r8)
 8005c04:	a81c      	add	r0, sp, #112	@ 0x70
 8005c06:	f7fe fda7 	bl	8004758 <f_closedir>
 8005c0a:	46c0      	nop			@ (mov r8, r8)
 8005c0c:	e576      	b.n	80056fc <FileManagerShow+0x28c>
 8005c0e:	46c0      	nop			@ (mov r8, r8)
 8005c10:	08006870 	.word	0x08006870

08005c14 <FileManagerNew>:
 8005c14:	b510      	push	{r4, lr}
 8005c16:	2160      	movs	r1, #96	@ 0x60
 8005c18:	2001      	movs	r0, #1
 8005c1a:	f000 fbc9 	bl	80063b0 <calloc>
 8005c1e:	2104      	movs	r1, #4
 8005c20:	0004      	movs	r4, r0
 8005c22:	2001      	movs	r0, #1
 8005c24:	f000 fbc4 	bl	80063b0 <calloc>
 8005c28:	2104      	movs	r1, #4
 8005c2a:	61e0      	str	r0, [r4, #28]
 8005c2c:	2001      	movs	r0, #1
 8005c2e:	f000 fbbf 	bl	80063b0 <calloc>
 8005c32:	6220      	str	r0, [r4, #32]
 8005c34:	480c      	ldr	r0, [pc, #48]	@ (8005c68 <FileManagerNew+0x54>)
 8005c36:	f000 f8a5 	bl	8005d84 <my_strcpy_mem>
 8005c3a:	4b0c      	ldr	r3, [pc, #48]	@ (8005c6c <FileManagerNew+0x58>)
 8005c3c:	6160      	str	r0, [r4, #20]
 8005c3e:	63a3      	str	r3, [r4, #56]	@ 0x38
 8005c40:	4b0b      	ldr	r3, [pc, #44]	@ (8005c70 <FileManagerNew+0x5c>)
 8005c42:	0020      	movs	r0, r4
 8005c44:	63e3      	str	r3, [r4, #60]	@ 0x3c
 8005c46:	4b0b      	ldr	r3, [pc, #44]	@ (8005c74 <FileManagerNew+0x60>)
 8005c48:	6423      	str	r3, [r4, #64]	@ 0x40
 8005c4a:	4b0b      	ldr	r3, [pc, #44]	@ (8005c78 <FileManagerNew+0x64>)
 8005c4c:	6463      	str	r3, [r4, #68]	@ 0x44
 8005c4e:	4b0b      	ldr	r3, [pc, #44]	@ (8005c7c <FileManagerNew+0x68>)
 8005c50:	64a3      	str	r3, [r4, #72]	@ 0x48
 8005c52:	4b0b      	ldr	r3, [pc, #44]	@ (8005c80 <FileManagerNew+0x6c>)
 8005c54:	64e3      	str	r3, [r4, #76]	@ 0x4c
 8005c56:	4b0b      	ldr	r3, [pc, #44]	@ (8005c84 <FileManagerNew+0x70>)
 8005c58:	6523      	str	r3, [r4, #80]	@ 0x50
 8005c5a:	4b0b      	ldr	r3, [pc, #44]	@ (8005c88 <FileManagerNew+0x74>)
 8005c5c:	6563      	str	r3, [r4, #84]	@ 0x54
 8005c5e:	4b0b      	ldr	r3, [pc, #44]	@ (8005c8c <FileManagerNew+0x78>)
 8005c60:	65a3      	str	r3, [r4, #88]	@ 0x58
 8005c62:	4b0b      	ldr	r3, [pc, #44]	@ (8005c90 <FileManagerNew+0x7c>)
 8005c64:	65e3      	str	r3, [r4, #92]	@ 0x5c
 8005c66:	bd10      	pop	{r4, pc}
 8005c68:	08007738 	.word	0x08007738
 8005c6c:	08005431 	.word	0x08005431
 8005c70:	08005435 	.word	0x08005435
 8005c74:	08005441 	.word	0x08005441
 8005c78:	08005445 	.word	0x08005445
 8005c7c:	08005449 	.word	0x08005449
 8005c80:	08005459 	.word	0x08005459
 8005c84:	08005471 	.word	0x08005471
 8005c88:	08005461 	.word	0x08005461
 8005c8c:	08005469 	.word	0x08005469
 8005c90:	0800546d 	.word	0x0800546d

08005c94 <KEYB_Inkeys>:
 8005c94:	b5f8      	push	{r3, r4, r5, r6, r7, lr}
 8005c96:	4e0b      	ldr	r6, [pc, #44]	@ (8005cc4 <KEYB_Inkeys+0x30>)
 8005c98:	2500      	movs	r5, #0
 8005c9a:	7834      	ldrb	r4, [r6, #0]
 8005c9c:	2c00      	cmp	r4, #0
 8005c9e:	d00e      	beq.n	8005cbe <KEYB_Inkeys+0x2a>
 8005ca0:	4b09      	ldr	r3, [pc, #36]	@ (8005cc8 <KEYB_Inkeys+0x34>)
 8005ca2:	781b      	ldrb	r3, [r3, #0]
 8005ca4:	2b00      	cmp	r3, #0
 8005ca6:	d00a      	beq.n	8005cbe <KEYB_Inkeys+0x2a>
 8005ca8:	4f08      	ldr	r7, [pc, #32]	@ (8005ccc <KEYB_Inkeys+0x38>)
 8005caa:	2226      	movs	r2, #38	@ 0x26
 8005cac:	0038      	movs	r0, r7
 8005cae:	1cb9      	adds	r1, r7, #2
 8005cb0:	883d      	ldrh	r5, [r7, #0]
 8005cb2:	f000 fcc2 	bl	800663a <memmove>
 8005cb6:	2300      	movs	r3, #0
 8005cb8:	3c01      	subs	r4, #1
 8005cba:	7034      	strb	r4, [r6, #0]
 8005cbc:	84fb      	strh	r3, [r7, #38]	@ 0x26
 8005cbe:	0028      	movs	r0, r5
 8005cc0:	bdf8      	pop	{r3, r4, r5, r6, r7, pc}
 8005cc2:	46c0      	nop			@ (mov r8, r8)
 8005cc4:	200003d6 	.word	0x200003d6
 8005cc8:	200003d5 	.word	0x200003d5
 8005ccc:	200003d8 	.word	0x200003d8

08005cd0 <KEYB_kbhit>:
 8005cd0:	4b04      	ldr	r3, [pc, #16]	@ (8005ce4 <KEYB_kbhit+0x14>)
 8005cd2:	7818      	ldrb	r0, [r3, #0]
 8005cd4:	2800      	cmp	r0, #0
 8005cd6:	d004      	beq.n	8005ce2 <KEYB_kbhit+0x12>
 8005cd8:	4b03      	ldr	r3, [pc, #12]	@ (8005ce8 <KEYB_kbhit+0x18>)
 8005cda:	7818      	ldrb	r0, [r3, #0]
 8005cdc:	1e43      	subs	r3, r0, #1
 8005cde:	4198      	sbcs	r0, r3
 8005ce0:	b2c0      	uxtb	r0, r0
 8005ce2:	4770      	bx	lr
 8005ce4:	200003d6 	.word	0x200003d6
 8005ce8:	200003d5 	.word	0x200003d5

08005cec <my_strcpy_fixed_sym>:
 8005cec:	2a00      	cmp	r2, #0
 8005cee:	dd09      	ble.n	8005d04 <my_strcpy_fixed_sym+0x18>
 8005cf0:	1882      	adds	r2, r0, r2
 8005cf2:	e004      	b.n	8005cfe <my_strcpy_fixed_sym+0x12>
 8005cf4:	7003      	strb	r3, [r0, #0]
 8005cf6:	3001      	adds	r0, #1
 8005cf8:	3101      	adds	r1, #1
 8005cfa:	4282      	cmp	r2, r0
 8005cfc:	d002      	beq.n	8005d04 <my_strcpy_fixed_sym+0x18>
 8005cfe:	780b      	ldrb	r3, [r1, #0]
 8005d00:	2b00      	cmp	r3, #0
 8005d02:	d1f7      	bne.n	8005cf4 <my_strcpy_fixed_sym+0x8>
 8005d04:	2300      	movs	r3, #0
 8005d06:	7003      	strb	r3, [r0, #0]
 8005d08:	4770      	bx	lr
 8005d0a:	46c0      	nop			@ (mov r8, r8)

08005d0c <my_strcat_fixed_sym>:
 8005d0c:	b570      	push	{r4, r5, r6, lr}
 8005d0e:	7803      	ldrb	r3, [r0, #0]
 8005d10:	0004      	movs	r4, r0
 8005d12:	000d      	movs	r5, r1
 8005d14:	0016      	movs	r6, r2
 8005d16:	2b00      	cmp	r3, #0
 8005d18:	d004      	beq.n	8005d24 <my_strcat_fixed_sym+0x18>
 8005d1a:	3001      	adds	r0, #1
 8005d1c:	f7fa f9f2 	bl	8000104 <strlen>
 8005d20:	3001      	adds	r0, #1
 8005d22:	1824      	adds	r4, r4, r0
 8005d24:	2e00      	cmp	r6, #0
 8005d26:	dd09      	ble.n	8005d3c <my_strcat_fixed_sym+0x30>
 8005d28:	19a6      	adds	r6, r4, r6
 8005d2a:	e004      	b.n	8005d36 <my_strcat_fixed_sym+0x2a>
 8005d2c:	7023      	strb	r3, [r4, #0]
 8005d2e:	3401      	adds	r4, #1
 8005d30:	3501      	adds	r5, #1
 8005d32:	42b4      	cmp	r4, r6
 8005d34:	d002      	beq.n	8005d3c <my_strcat_fixed_sym+0x30>
 8005d36:	782b      	ldrb	r3, [r5, #0]
 8005d38:	2b00      	cmp	r3, #0
 8005d3a:	d1f7      	bne.n	8005d2c <my_strcat_fixed_sym+0x20>
 8005d3c:	2300      	movs	r3, #0
 8005d3e:	7023      	strb	r3, [r4, #0]
 8005d40:	bd70      	pop	{r4, r5, r6, pc}
 8005d42:	46c0      	nop			@ (mov r8, r8)

08005d44 <my_strcat>:
 8005d44:	b570      	push	{r4, r5, r6, lr}
 8005d46:	7803      	ldrb	r3, [r0, #0]
 8005d48:	0004      	movs	r4, r0
 8005d4a:	000d      	movs	r5, r1
 8005d4c:	2b00      	cmp	r3, #0
 8005d4e:	d008      	beq.n	8005d62 <my_strcat+0x1e>
 8005d50:	3001      	adds	r0, #1
 8005d52:	f7fa f9d7 	bl	8000104 <strlen>
 8005d56:	3001      	adds	r0, #1
 8005d58:	1824      	adds	r4, r4, r0
 8005d5a:	e002      	b.n	8005d62 <my_strcat+0x1e>
 8005d5c:	7023      	strb	r3, [r4, #0]
 8005d5e:	3501      	adds	r5, #1
 8005d60:	3401      	adds	r4, #1
 8005d62:	782b      	ldrb	r3, [r5, #0]
 8005d64:	2b00      	cmp	r3, #0
 8005d66:	d1f9      	bne.n	8005d5c <my_strcat+0x18>
 8005d68:	2300      	movs	r3, #0
 8005d6a:	7023      	strb	r3, [r4, #0]
 8005d6c:	bd70      	pop	{r4, r5, r6, pc}
 8005d6e:	46c0      	nop			@ (mov r8, r8)

08005d70 <my_strcpy>:
 8005d70:	e002      	b.n	8005d78 <my_strcpy+0x8>
 8005d72:	7003      	strb	r3, [r0, #0]
 8005d74:	3101      	adds	r1, #1
 8005d76:	3001      	adds	r0, #1
 8005d78:	780b      	ldrb	r3, [r1, #0]
 8005d7a:	2b00      	cmp	r3, #0
 8005d7c:	d1f9      	bne.n	8005d72 <my_strcpy+0x2>
 8005d7e:	2300      	movs	r3, #0
 8005d80:	7003      	strb	r3, [r0, #0]
 8005d82:	4770      	bx	lr

08005d84 <my_strcpy_mem>:
 8005d84:	b570      	push	{r4, r5, r6, lr}
 8005d86:	7805      	ldrb	r5, [r0, #0]
 8005d88:	2d00      	cmp	r5, #0
 8005d8a:	d013      	beq.n	8005db4 <my_strcpy_mem+0x30>
 8005d8c:	1c44      	adds	r4, r0, #1
 8005d8e:	0020      	movs	r0, r4
 8005d90:	f7fa f9b8 	bl	8000104 <strlen>
 8005d94:	2101      	movs	r1, #1
 8005d96:	3002      	adds	r0, #2
 8005d98:	f000 fb0a 	bl	80063b0 <calloc>
 8005d9c:	1e03      	subs	r3, r0, #0
 8005d9e:	d101      	bne.n	8005da4 <my_strcpy_mem+0x20>
 8005da0:	e00e      	b.n	8005dc0 <my_strcpy_mem+0x3c>
 8005da2:	3401      	adds	r4, #1
 8005da4:	701d      	strb	r5, [r3, #0]
 8005da6:	7825      	ldrb	r5, [r4, #0]
 8005da8:	3301      	adds	r3, #1
 8005daa:	2d00      	cmp	r5, #0
 8005dac:	d1f9      	bne.n	8005da2 <my_strcpy_mem+0x1e>
 8005dae:	2200      	movs	r2, #0
 8005db0:	701a      	strb	r2, [r3, #0]
 8005db2:	bd70      	pop	{r4, r5, r6, pc}
 8005db4:	2101      	movs	r1, #1
 8005db6:	2001      	movs	r0, #1
 8005db8:	f000 fafa 	bl	80063b0 <calloc>
 8005dbc:	1e03      	subs	r3, r0, #0
 8005dbe:	d1f6      	bne.n	8005dae <my_strcpy_mem+0x2a>
 8005dc0:	2000      	movs	r0, #0
 8005dc2:	e7f6      	b.n	8005db2 <my_strcpy_mem+0x2e>

08005dc4 <my_strlen>:
 8005dc4:	b510      	push	{r4, lr}
 8005dc6:	7803      	ldrb	r3, [r0, #0]
 8005dc8:	2b00      	cmp	r3, #0
 8005dca:	d004      	beq.n	8005dd6 <my_strlen+0x12>
 8005dcc:	3001      	adds	r0, #1
 8005dce:	f7fa f999 	bl	8000104 <strlen>
 8005dd2:	3001      	adds	r0, #1
 8005dd4:	bd10      	pop	{r4, pc}
 8005dd6:	2000      	movs	r0, #0
 8005dd8:	e7fc      	b.n	8005dd4 <my_strlen+0x10>
 8005dda:	46c0      	nop			@ (mov r8, r8)

08005ddc <LED_AddNewPort>:
 8005ddc:	b5f8      	push	{r3, r4, r5, r6, r7, lr}
 8005dde:	0004      	movs	r4, r0
 8005de0:	000d      	movs	r5, r1
 8005de2:	0016      	movs	r6, r2
 8005de4:	001f      	movs	r7, r3
 8005de6:	2900      	cmp	r1, #0
 8005de8:	d023      	beq.n	8005e32 <LED_AddNewPort+0x56>
 8005dea:	2a00      	cmp	r2, #0
 8005dec:	d021      	beq.n	8005e32 <LED_AddNewPort+0x56>
 8005dee:	9b06      	ldr	r3, [sp, #24]
 8005df0:	2b00      	cmp	r3, #0
 8005df2:	d01e      	beq.n	8005e32 <LED_AddNewPort+0x56>
 8005df4:	2190      	movs	r1, #144	@ 0x90
 8005df6:	2001      	movs	r0, #1
 8005df8:	f000 fada 	bl	80063b0 <calloc>
 8005dfc:	2370      	movs	r3, #112	@ 0x70
 8005dfe:	52c5      	strh	r5, [r0, r3]
 8005e00:	9b06      	ldr	r3, [sp, #24]
 8005e02:	6006      	str	r6, [r0, #0]
 8005e04:	6083      	str	r3, [r0, #8]
 8005e06:	9b07      	ldr	r3, [sp, #28]
 8005e08:	6047      	str	r7, [r0, #4]
 8005e0a:	60c3      	str	r3, [r0, #12]
 8005e0c:	0003      	movs	r3, r0
 8005e0e:	2600      	movs	r6, #0
 8005e10:	2700      	movs	r7, #0
 8005e12:	3388      	adds	r3, #136	@ 0x88
 8005e14:	601e      	str	r6, [r3, #0]
 8005e16:	605f      	str	r7, [r3, #4]
 8005e18:	2303      	movs	r3, #3
 8005e1a:	67c3      	str	r3, [r0, #124]	@ 0x7c
 8005e1c:	3389      	adds	r3, #137	@ 0x89
 8005e1e:	2c00      	cmp	r4, #0
 8005e20:	d006      	beq.n	8005e30 <LED_AddNewPort+0x54>
 8005e22:	0022      	movs	r2, r4
 8005e24:	58e4      	ldr	r4, [r4, r3]
 8005e26:	2c00      	cmp	r4, #0
 8005e28:	d1fb      	bne.n	8005e22 <LED_AddNewPort+0x46>
 8005e2a:	2188      	movs	r1, #136	@ 0x88
 8005e2c:	5042      	str	r2, [r0, r1]
 8005e2e:	50d0      	str	r0, [r2, r3]
 8005e30:	bdf8      	pop	{r3, r4, r5, r6, r7, pc}
 8005e32:	2000      	movs	r0, #0
 8005e34:	e7fc      	b.n	8005e30 <LED_AddNewPort+0x54>
 8005e36:	46c0      	nop			@ (mov r8, r8)

08005e38 <LED_DeviceUpdate>:
 8005e38:	b5f0      	push	{r4, r5, r6, r7, lr}
 8005e3a:	46c6      	mov	lr, r8
 8005e3c:	6842      	ldr	r2, [r0, #4]
 8005e3e:	b500      	push	{lr}
 8005e40:	2a00      	cmp	r2, #0
 8005e42:	d027      	beq.n	8005e94 <LED_DeviceUpdate+0x5c>
 8005e44:	2380      	movs	r3, #128	@ 0x80
 8005e46:	2180      	movs	r1, #128	@ 0x80
 8005e48:	2780      	movs	r7, #128	@ 0x80
 8005e4a:	2080      	movs	r0, #128	@ 0x80
 8005e4c:	2680      	movs	r6, #128	@ 0x80
 8005e4e:	00db      	lsls	r3, r3, #3
 8005e50:	4698      	mov	r8, r3
 8005e52:	248c      	movs	r4, #140	@ 0x8c
 8005e54:	0049      	lsls	r1, r1, #1
 8005e56:	013f      	lsls	r7, r7, #4
 8005e58:	0140      	lsls	r0, r0, #5
 8005e5a:	00b6      	lsls	r6, r6, #2
 8005e5c:	e00b      	b.n	8005e76 <LED_DeviceUpdate+0x3e>
 8005e5e:	2b10      	cmp	r3, #16
 8005e60:	d106      	bne.n	8005e70 <LED_DeviceUpdate+0x38>
 8005e62:	6813      	ldr	r3, [r2, #0]
 8005e64:	4645      	mov	r5, r8
 8005e66:	469c      	mov	ip, r3
 8005e68:	68db      	ldr	r3, [r3, #12]
 8005e6a:	432b      	orrs	r3, r5
 8005e6c:	4665      	mov	r5, ip
 8005e6e:	60eb      	str	r3, [r5, #12]
 8005e70:	5912      	ldr	r2, [r2, r4]
 8005e72:	2a00      	cmp	r2, #0
 8005e74:	d00e      	beq.n	8005e94 <LED_DeviceUpdate+0x5c>
 8005e76:	6853      	ldr	r3, [r2, #4]
 8005e78:	428b      	cmp	r3, r1
 8005e7a:	d017      	beq.n	8005eac <LED_DeviceUpdate+0x74>
 8005e7c:	d80d      	bhi.n	8005e9a <LED_DeviceUpdate+0x62>
 8005e7e:	2b01      	cmp	r3, #1
 8005e80:	d1ed      	bne.n	8005e5e <LED_DeviceUpdate+0x26>
 8005e82:	6813      	ldr	r3, [r2, #0]
 8005e84:	5912      	ldr	r2, [r2, r4]
 8005e86:	469c      	mov	ip, r3
 8005e88:	4665      	mov	r5, ip
 8005e8a:	68db      	ldr	r3, [r3, #12]
 8005e8c:	4333      	orrs	r3, r6
 8005e8e:	60eb      	str	r3, [r5, #12]
 8005e90:	2a00      	cmp	r2, #0
 8005e92:	d1f0      	bne.n	8005e76 <LED_DeviceUpdate+0x3e>
 8005e94:	bc80      	pop	{r7}
 8005e96:	46b8      	mov	r8, r7
 8005e98:	bdf0      	pop	{r4, r5, r6, r7, pc}
 8005e9a:	4283      	cmp	r3, r0
 8005e9c:	d1e8      	bne.n	8005e70 <LED_DeviceUpdate+0x38>
 8005e9e:	6813      	ldr	r3, [r2, #0]
 8005ea0:	469c      	mov	ip, r3
 8005ea2:	4665      	mov	r5, ip
 8005ea4:	68db      	ldr	r3, [r3, #12]
 8005ea6:	4303      	orrs	r3, r0
 8005ea8:	60eb      	str	r3, [r5, #12]
 8005eaa:	e7e1      	b.n	8005e70 <LED_DeviceUpdate+0x38>
 8005eac:	6813      	ldr	r3, [r2, #0]
 8005eae:	469c      	mov	ip, r3
 8005eb0:	4665      	mov	r5, ip
 8005eb2:	68db      	ldr	r3, [r3, #12]
 8005eb4:	433b      	orrs	r3, r7
 8005eb6:	60eb      	str	r3, [r5, #12]
 8005eb8:	e7da      	b.n	8005e70 <LED_DeviceUpdate+0x38>
 8005eba:	46c0      	nop			@ (mov r8, r8)

08005ebc <LED_DeviceWaitUpdate>:
 8005ebc:	b5f0      	push	{r4, r5, r6, r7, lr}
 8005ebe:	4647      	mov	r7, r8
 8005ec0:	46ce      	mov	lr, r9
 8005ec2:	6843      	ldr	r3, [r0, #4]
 8005ec4:	b580      	push	{r7, lr}
 8005ec6:	4698      	mov	r8, r3
 8005ec8:	2b00      	cmp	r3, #0
 8005eca:	d02a      	beq.n	8005f22 <LED_DeviceWaitUpdate+0x66>
 8005ecc:	2380      	movs	r3, #128	@ 0x80
 8005ece:	011b      	lsls	r3, r3, #4
 8005ed0:	469c      	mov	ip, r3
 8005ed2:	2380      	movs	r3, #128	@ 0x80
 8005ed4:	2480      	movs	r4, #128	@ 0x80
 8005ed6:	2780      	movs	r7, #128	@ 0x80
 8005ed8:	00db      	lsls	r3, r3, #3
 8005eda:	4699      	mov	r9, r3
 8005edc:	0164      	lsls	r4, r4, #5
 8005ede:	00bf      	lsls	r7, r7, #2
 8005ee0:	2180      	movs	r1, #128	@ 0x80
 8005ee2:	4642      	mov	r2, r8
 8005ee4:	2000      	movs	r0, #0
 8005ee6:	258c      	movs	r5, #140	@ 0x8c
 8005ee8:	0049      	lsls	r1, r1, #1
 8005eea:	e00b      	b.n	8005f04 <LED_DeviceWaitUpdate+0x48>
 8005eec:	2b10      	cmp	r3, #16
 8005eee:	d106      	bne.n	8005efe <LED_DeviceWaitUpdate+0x42>
 8005ef0:	464e      	mov	r6, r9
 8005ef2:	6813      	ldr	r3, [r2, #0]
 8005ef4:	68db      	ldr	r3, [r3, #12]
 8005ef6:	4233      	tst	r3, r6
 8005ef8:	d001      	beq.n	8005efe <LED_DeviceWaitUpdate+0x42>
 8005efa:	3001      	adds	r0, #1
 8005efc:	b2c0      	uxtb	r0, r0
 8005efe:	5952      	ldr	r2, [r2, r5]
 8005f00:	2a00      	cmp	r2, #0
 8005f02:	d00c      	beq.n	8005f1e <LED_DeviceWaitUpdate+0x62>
 8005f04:	6853      	ldr	r3, [r2, #4]
 8005f06:	428b      	cmp	r3, r1
 8005f08:	d016      	beq.n	8005f38 <LED_DeviceWaitUpdate+0x7c>
 8005f0a:	d80e      	bhi.n	8005f2a <LED_DeviceWaitUpdate+0x6e>
 8005f0c:	2b01      	cmp	r3, #1
 8005f0e:	d1ed      	bne.n	8005eec <LED_DeviceWaitUpdate+0x30>
 8005f10:	6813      	ldr	r3, [r2, #0]
 8005f12:	68db      	ldr	r3, [r3, #12]
 8005f14:	423b      	tst	r3, r7
 8005f16:	d1f0      	bne.n	8005efa <LED_DeviceWaitUpdate+0x3e>
 8005f18:	5952      	ldr	r2, [r2, r5]
 8005f1a:	2a00      	cmp	r2, #0
 8005f1c:	d1f2      	bne.n	8005f04 <LED_DeviceWaitUpdate+0x48>
 8005f1e:	2800      	cmp	r0, #0
 8005f20:	d1de      	bne.n	8005ee0 <LED_DeviceWaitUpdate+0x24>
 8005f22:	bcc0      	pop	{r6, r7}
 8005f24:	46b9      	mov	r9, r7
 8005f26:	46b0      	mov	r8, r6
 8005f28:	bdf0      	pop	{r4, r5, r6, r7, pc}
 8005f2a:	42a3      	cmp	r3, r4
 8005f2c:	d1e7      	bne.n	8005efe <LED_DeviceWaitUpdate+0x42>
 8005f2e:	6813      	ldr	r3, [r2, #0]
 8005f30:	68db      	ldr	r3, [r3, #12]
 8005f32:	4223      	tst	r3, r4
 8005f34:	d0e3      	beq.n	8005efe <LED_DeviceWaitUpdate+0x42>
 8005f36:	e7e0      	b.n	8005efa <LED_DeviceWaitUpdate+0x3e>
 8005f38:	4666      	mov	r6, ip
 8005f3a:	6813      	ldr	r3, [r2, #0]
 8005f3c:	68db      	ldr	r3, [r3, #12]
 8005f3e:	4233      	tst	r3, r6
 8005f40:	d0dd      	beq.n	8005efe <LED_DeviceWaitUpdate+0x42>
 8005f42:	e7da      	b.n	8005efa <LED_DeviceWaitUpdate+0x3e>

08005f44 <LED_CreateDevice>:
 8005f44:	b5f0      	push	{r4, r5, r6, r7, lr}
 8005f46:	4645      	mov	r5, r8
 8005f48:	4657      	mov	r7, sl
 8005f4a:	46de      	mov	lr, fp
 8005f4c:	464e      	mov	r6, r9
 8005f4e:	b5e0      	push	{r5, r6, r7, lr}
 8005f50:	b083      	sub	sp, #12
 8005f52:	0007      	movs	r7, r0
 8005f54:	4688      	mov	r8, r1
 8005f56:	0015      	movs	r5, r2
 8005f58:	1e1c      	subs	r4, r3, #0
 8005f5a:	9001      	str	r0, [sp, #4]
 8005f5c:	d056      	beq.n	800600c <LED_CreateDevice+0xc8>
 8005f5e:	211c      	movs	r1, #28
 8005f60:	2001      	movs	r0, #1
 8005f62:	f000 fa25 	bl	80063b0 <calloc>
 8005f66:	2270      	movs	r2, #112	@ 0x70
 8005f68:	4693      	mov	fp, r2
 8005f6a:	3214      	adds	r2, #20
 8005f6c:	4692      	mov	sl, r2
 8005f6e:	3a0c      	subs	r2, #12
 8005f70:	4691      	mov	r9, r2
 8005f72:	3208      	adds	r2, #8
 8005f74:	7485      	strb	r5, [r0, #18]
 8005f76:	0006      	movs	r6, r0
 8005f78:	7307      	strb	r7, [r0, #12]
 8005f7a:	6044      	str	r4, [r0, #4]
 8005f7c:	2500      	movs	r5, #0
 8005f7e:	2300      	movs	r3, #0
 8005f80:	2000      	movs	r0, #0
 8005f82:	4694      	mov	ip, r2
 8005f84:	465a      	mov	r2, fp
 8005f86:	4651      	mov	r1, sl
 8005f88:	5aa2      	ldrh	r2, [r4, r2]
 8005f8a:	2701      	movs	r7, #1
 8005f8c:	18ad      	adds	r5, r5, r2
 8005f8e:	6035      	str	r5, [r6, #0]
 8005f90:	6763      	str	r3, [r4, #116]	@ 0x74
 8005f92:	5060      	str	r0, [r4, r1]
 8005f94:	4649      	mov	r1, r9
 8005f96:	5260      	strh	r0, [r4, r1]
 8005f98:	4661      	mov	r1, ip
 8005f9a:	189b      	adds	r3, r3, r2
 8005f9c:	228c      	movs	r2, #140	@ 0x8c
 8005f9e:	5467      	strb	r7, [r4, r1]
 8005fa0:	58a4      	ldr	r4, [r4, r2]
 8005fa2:	2c00      	cmp	r4, #0
 8005fa4:	d1ee      	bne.n	8005f84 <LED_CreateDevice+0x40>
 8005fa6:	4643      	mov	r3, r8
 8005fa8:	2001      	movs	r0, #1
 8005faa:	2b00      	cmp	r3, #0
 8005fac:	d004      	beq.n	8005fb8 <LED_CreateDevice+0x74>
 8005fae:	4641      	mov	r1, r8
 8005fb0:	0028      	movs	r0, r5
 8005fb2:	f7fa f939 	bl	8000228 <__divsi3>
 8005fb6:	b280      	uxth	r0, r0
 8005fb8:	9b01      	ldr	r3, [sp, #4]
 8005fba:	2b03      	cmp	r3, #3
 8005fbc:	d91f      	bls.n	8005ffe <LED_CreateDevice+0xba>
 8005fbe:	3b04      	subs	r3, #4
 8005fc0:	2b03      	cmp	r3, #3
 8005fc2:	d820      	bhi.n	8006006 <LED_CreateDevice+0xc2>
 8005fc4:	4643      	mov	r3, r8
 8005fc6:	81f0      	strh	r0, [r6, #14]
 8005fc8:	0068      	lsls	r0, r5, #1
 8005fca:	2101      	movs	r1, #1
 8005fcc:	8233      	strh	r3, [r6, #16]
 8005fce:	1940      	adds	r0, r0, r5
 8005fd0:	f000 f9ee 	bl	80063b0 <calloc>
 8005fd4:	60b0      	str	r0, [r6, #8]
 8005fd6:	2800      	cmp	r0, #0
 8005fd8:	d015      	beq.n	8006006 <LED_CreateDevice+0xc2>
 8005fda:	4a0e      	ldr	r2, [pc, #56]	@ (8006014 <LED_CreateDevice+0xd0>)
 8005fdc:	6813      	ldr	r3, [r2, #0]
 8005fde:	2b00      	cmp	r3, #0
 8005fe0:	d016      	beq.n	8006010 <LED_CreateDevice+0xcc>
 8005fe2:	001a      	movs	r2, r3
 8005fe4:	699b      	ldr	r3, [r3, #24]
 8005fe6:	2b00      	cmp	r3, #0
 8005fe8:	d1fb      	bne.n	8005fe2 <LED_CreateDevice+0x9e>
 8005fea:	6172      	str	r2, [r6, #20]
 8005fec:	6196      	str	r6, [r2, #24]
 8005fee:	0030      	movs	r0, r6
 8005ff0:	b003      	add	sp, #12
 8005ff2:	bcf0      	pop	{r4, r5, r6, r7}
 8005ff4:	46bb      	mov	fp, r7
 8005ff6:	46b2      	mov	sl, r6
 8005ff8:	46a9      	mov	r9, r5
 8005ffa:	46a0      	mov	r8, r4
 8005ffc:	bdf0      	pop	{r4, r5, r6, r7, pc}
 8005ffe:	0003      	movs	r3, r0
 8006000:	4640      	mov	r0, r8
 8006002:	4698      	mov	r8, r3
 8006004:	e7de      	b.n	8005fc4 <LED_CreateDevice+0x80>
 8006006:	0030      	movs	r0, r6
 8006008:	f000 fa14 	bl	8006434 <free>
 800600c:	2600      	movs	r6, #0
 800600e:	e7ee      	b.n	8005fee <LED_CreateDevice+0xaa>
 8006010:	6016      	str	r6, [r2, #0]
 8006012:	e7ec      	b.n	8005fee <LED_CreateDevice+0xaa>
 8006014:	20000400 	.word	0x20000400

08006018 <LED_StartDevice>:
 8006018:	b5f0      	push	{r4, r5, r6, r7, lr}
 800601a:	46de      	mov	lr, fp
 800601c:	4657      	mov	r7, sl
 800601e:	464e      	mov	r6, r9
 8006020:	4645      	mov	r5, r8
 8006022:	b5e0      	push	{r5, r6, r7, lr}
 8006024:	6840      	ldr	r0, [r0, #4]
 8006026:	b083      	sub	sp, #12
 8006028:	2800      	cmp	r0, #0
 800602a:	d04a      	beq.n	80060c2 <LED_StartDevice+0xaa>
 800602c:	230e      	movs	r3, #14
 800602e:	4699      	mov	r9, r3
 8006030:	2380      	movs	r3, #128	@ 0x80
 8006032:	021b      	lsls	r3, r3, #8
 8006034:	4698      	mov	r8, r3
 8006036:	2330      	movs	r3, #48	@ 0x30
 8006038:	2580      	movs	r5, #128	@ 0x80
 800603a:	2401      	movs	r4, #1
 800603c:	469c      	mov	ip, r3
 800603e:	4f3c      	ldr	r7, [pc, #240]	@ (8006130 <LED_StartDevice+0x118>)
 8006040:	006d      	lsls	r5, r5, #1
 8006042:	9701      	str	r7, [sp, #4]
 8006044:	6881      	ldr	r1, [r0, #8]
 8006046:	68c2      	ldr	r2, [r0, #12]
 8006048:	684e      	ldr	r6, [r1, #4]
 800604a:	9b01      	ldr	r3, [sp, #4]
 800604c:	46b2      	mov	sl, r6
 800604e:	0026      	movs	r6, r4
 8006050:	5c9b      	ldrb	r3, [r3, r2]
 8006052:	0092      	lsls	r2, r2, #2
 8006054:	4096      	lsls	r6, r2
 8006056:	0032      	movs	r2, r6
 8006058:	4656      	mov	r6, sl
 800605a:	4332      	orrs	r2, r6
 800605c:	604a      	str	r2, [r1, #4]
 800605e:	6842      	ldr	r2, [r0, #4]
 8006060:	18cb      	adds	r3, r1, r3
 8006062:	42aa      	cmp	r2, r5
 8006064:	d054      	beq.n	8006110 <LED_StartDevice+0xf8>
 8006066:	d833      	bhi.n	80060d0 <LED_StartDevice+0xb8>
 8006068:	2a01      	cmp	r2, #1
 800606a:	d041      	beq.n	80060f0 <LED_StartDevice+0xd8>
 800606c:	2a10      	cmp	r2, #16
 800606e:	d128      	bne.n	80060c2 <LED_StartDevice+0xaa>
 8006070:	6801      	ldr	r1, [r0, #0]
 8006072:	68ce      	ldr	r6, [r1, #12]
 8006074:	46b3      	mov	fp, r6
 8006076:	2680      	movs	r6, #128	@ 0x80
 8006078:	00f6      	lsls	r6, r6, #3
 800607a:	46b2      	mov	sl, r6
 800607c:	465e      	mov	r6, fp
 800607e:	4657      	mov	r7, sl
 8006080:	433e      	orrs	r6, r7
 8006082:	60ce      	str	r6, [r1, #12]
 8006084:	2638      	movs	r6, #56	@ 0x38
 8006086:	46b2      	mov	sl, r6
 8006088:	448a      	add	sl, r1
 800608a:	4656      	mov	r6, sl
 800608c:	609e      	str	r6, [r3, #8]
 800608e:	464f      	mov	r7, r9
 8006090:	681e      	ldr	r6, [r3, #0]
 8006092:	433e      	orrs	r6, r7
 8006094:	601e      	str	r6, [r3, #0]
 8006096:	6a0e      	ldr	r6, [r1, #32]
 8006098:	4332      	orrs	r2, r6
 800609a:	4646      	mov	r6, r8
 800609c:	620a      	str	r2, [r1, #32]
 800609e:	6c4a      	ldr	r2, [r1, #68]	@ 0x44
 80060a0:	4332      	orrs	r2, r6
 80060a2:	644a      	str	r2, [r1, #68]	@ 0x44
 80060a4:	680a      	ldr	r2, [r1, #0]
 80060a6:	4322      	orrs	r2, r4
 80060a8:	600a      	str	r2, [r1, #0]
 80060aa:	0002      	movs	r2, r0
 80060ac:	3210      	adds	r2, #16
 80060ae:	60da      	str	r2, [r3, #12]
 80060b0:	4662      	mov	r2, ip
 80060b2:	605a      	str	r2, [r3, #4]
 80060b4:	681a      	ldr	r2, [r3, #0]
 80060b6:	4322      	orrs	r2, r4
 80060b8:	601a      	str	r2, [r3, #0]
 80060ba:	238c      	movs	r3, #140	@ 0x8c
 80060bc:	58c0      	ldr	r0, [r0, r3]
 80060be:	2800      	cmp	r0, #0
 80060c0:	d1c0      	bne.n	8006044 <LED_StartDevice+0x2c>
 80060c2:	b003      	add	sp, #12
 80060c4:	bcf0      	pop	{r4, r5, r6, r7}
 80060c6:	46bb      	mov	fp, r7
 80060c8:	46b2      	mov	sl, r6
 80060ca:	46a9      	mov	r9, r5
 80060cc:	46a0      	mov	r8, r4
 80060ce:	bdf0      	pop	{r4, r5, r6, r7, pc}
 80060d0:	2180      	movs	r1, #128	@ 0x80
 80060d2:	0149      	lsls	r1, r1, #5
 80060d4:	428a      	cmp	r2, r1
 80060d6:	d1f4      	bne.n	80060c2 <LED_StartDevice+0xaa>
 80060d8:	2780      	movs	r7, #128	@ 0x80
 80060da:	6801      	ldr	r1, [r0, #0]
 80060dc:	017f      	lsls	r7, r7, #5
 80060de:	68ce      	ldr	r6, [r1, #12]
 80060e0:	433e      	orrs	r6, r7
 80060e2:	60ce      	str	r6, [r1, #12]
 80060e4:	2640      	movs	r6, #64	@ 0x40
 80060e6:	46b2      	mov	sl, r6
 80060e8:	448a      	add	sl, r1
 80060ea:	4656      	mov	r6, sl
 80060ec:	609e      	str	r6, [r3, #8]
 80060ee:	e7ce      	b.n	800608e <LED_StartDevice+0x76>
 80060f0:	6801      	ldr	r1, [r0, #0]
 80060f2:	68ce      	ldr	r6, [r1, #12]
 80060f4:	46b3      	mov	fp, r6
 80060f6:	2680      	movs	r6, #128	@ 0x80
 80060f8:	00b6      	lsls	r6, r6, #2
 80060fa:	46b2      	mov	sl, r6
 80060fc:	465e      	mov	r6, fp
 80060fe:	4657      	mov	r7, sl
 8006100:	433e      	orrs	r6, r7
 8006102:	60ce      	str	r6, [r1, #12]
 8006104:	2634      	movs	r6, #52	@ 0x34
 8006106:	46b2      	mov	sl, r6
 8006108:	448a      	add	sl, r1
 800610a:	4656      	mov	r6, sl
 800610c:	609e      	str	r6, [r3, #8]
 800610e:	e7be      	b.n	800608e <LED_StartDevice+0x76>
 8006110:	6801      	ldr	r1, [r0, #0]
 8006112:	68ce      	ldr	r6, [r1, #12]
 8006114:	46b3      	mov	fp, r6
 8006116:	2680      	movs	r6, #128	@ 0x80
 8006118:	0136      	lsls	r6, r6, #4
 800611a:	46b2      	mov	sl, r6
 800611c:	465e      	mov	r6, fp
 800611e:	4657      	mov	r7, sl
 8006120:	433e      	orrs	r6, r7
 8006122:	60ce      	str	r6, [r1, #12]
 8006124:	263c      	movs	r6, #60	@ 0x3c
 8006126:	46b2      	mov	sl, r6
 8006128:	448a      	add	sl, r1
 800612a:	4656      	mov	r6, sl
 800612c:	609e      	str	r6, [r3, #8]
 800612e:	e7ae      	b.n	800608e <LED_StartDevice+0x76>
 8006130:	08007bd8 	.word	0x08007bd8

08006134 <LED_SetPixelByIdRGB>:
 8006134:	b530      	push	{r4, r5, lr}
 8006136:	ac03      	add	r4, sp, #12
 8006138:	7825      	ldrb	r5, [r4, #0]
 800613a:	2900      	cmp	r1, #0
 800613c:	db09      	blt.n	8006152 <LED_SetPixelByIdRGB+0x1e>
 800613e:	6804      	ldr	r4, [r0, #0]
 8006140:	428c      	cmp	r4, r1
 8006142:	dd06      	ble.n	8006152 <LED_SetPixelByIdRGB+0x1e>
 8006144:	004c      	lsls	r4, r1, #1
 8006146:	1864      	adds	r4, r4, r1
 8006148:	6881      	ldr	r1, [r0, #8]
 800614a:	1909      	adds	r1, r1, r4
 800614c:	700a      	strb	r2, [r1, #0]
 800614e:	704b      	strb	r3, [r1, #1]
 8006150:	708d      	strb	r5, [r1, #2]
 8006152:	bd30      	pop	{r4, r5, pc}

08006154 <LED_FillColor>:
 8006154:	6803      	ldr	r3, [r0, #0]
 8006156:	b570      	push	{r4, r5, r6, lr}
 8006158:	020d      	lsls	r5, r1, #8
 800615a:	0e0e      	lsrs	r6, r1, #24
 800615c:	0409      	lsls	r1, r1, #16
 800615e:	0e2d      	lsrs	r5, r5, #24
 8006160:	0e0c      	lsrs	r4, r1, #24
 8006162:	2b00      	cmp	r3, #0
 8006164:	dd0b      	ble.n	800617e <LED_FillColor+0x2a>
 8006166:	2200      	movs	r2, #0
 8006168:	6883      	ldr	r3, [r0, #8]
 800616a:	0051      	lsls	r1, r2, #1
 800616c:	1889      	adds	r1, r1, r2
 800616e:	185b      	adds	r3, r3, r1
 8006170:	701e      	strb	r6, [r3, #0]
 8006172:	705d      	strb	r5, [r3, #1]
 8006174:	709c      	strb	r4, [r3, #2]
 8006176:	6803      	ldr	r3, [r0, #0]
 8006178:	3201      	adds	r2, #1
 800617a:	4293      	cmp	r3, r2
 800617c:	dcf4      	bgt.n	8006168 <LED_FillColor+0x14>
 800617e:	bd70      	pop	{r4, r5, r6, pc}

08006180 <LED_GetIdByXY>:
 8006180:	b530      	push	{r4, r5, lr}
 8006182:	89c3      	ldrh	r3, [r0, #14]
 8006184:	428b      	cmp	r3, r1
 8006186:	d95f      	bls.n	8006248 <LED_GetIdByXY+0xc8>
 8006188:	8a04      	ldrh	r4, [r0, #16]
 800618a:	4294      	cmp	r4, r2
 800618c:	d95c      	bls.n	8006248 <LED_GetIdByXY+0xc8>
 800618e:	7b00      	ldrb	r0, [r0, #12]
 8006190:	2807      	cmp	r0, #7
 8006192:	d859      	bhi.n	8006248 <LED_GetIdByXY+0xc8>
 8006194:	4d2e      	ldr	r5, [pc, #184]	@ (8006250 <LED_GetIdByXY+0xd0>)
 8006196:	0080      	lsls	r0, r0, #2
 8006198:	5828      	ldr	r0, [r5, r0]
 800619a:	4687      	mov	pc, r0
 800619c:	0023      	movs	r3, r4
 800619e:	434b      	muls	r3, r1
 80061a0:	07c9      	lsls	r1, r1, #31
 80061a2:	d401      	bmi.n	80061a8 <LED_GetIdByXY+0x28>
 80061a4:	1aa2      	subs	r2, r4, r2
 80061a6:	3a01      	subs	r2, #1
 80061a8:	18d0      	adds	r0, r2, r3
 80061aa:	e023      	b.n	80061f4 <LED_GetIdByXY+0x74>
 80061ac:	2501      	movs	r5, #1
 80061ae:	1a58      	subs	r0, r3, r1
 80061b0:	3801      	subs	r0, #1
 80061b2:	4360      	muls	r0, r4
 80061b4:	4029      	ands	r1, r5
 80061b6:	421d      	tst	r5, r3
 80061b8:	d040      	beq.n	800623c <LED_GetIdByXY+0xbc>
 80061ba:	2900      	cmp	r1, #0
 80061bc:	d040      	beq.n	8006240 <LED_GetIdByXY+0xc0>
 80061be:	1810      	adds	r0, r2, r0
 80061c0:	e018      	b.n	80061f4 <LED_GetIdByXY+0x74>
 80061c2:	001c      	movs	r4, r3
 80061c4:	4354      	muls	r4, r2
 80061c6:	07d2      	lsls	r2, r2, #31
 80061c8:	d401      	bmi.n	80061ce <LED_GetIdByXY+0x4e>
 80061ca:	1a59      	subs	r1, r3, r1
 80061cc:	3901      	subs	r1, #1
 80061ce:	1908      	adds	r0, r1, r4
 80061d0:	e010      	b.n	80061f4 <LED_GetIdByXY+0x74>
 80061d2:	0023      	movs	r3, r4
 80061d4:	434b      	muls	r3, r1
 80061d6:	07c9      	lsls	r1, r1, #31
 80061d8:	d4e4      	bmi.n	80061a4 <LED_GetIdByXY+0x24>
 80061da:	18d0      	adds	r0, r2, r3
 80061dc:	e00a      	b.n	80061f4 <LED_GetIdByXY+0x74>
 80061de:	0010      	movs	r0, r2
 80061e0:	2201      	movs	r2, #1
 80061e2:	1a5d      	subs	r5, r3, r1
 80061e4:	3d01      	subs	r5, #1
 80061e6:	4365      	muls	r5, r4
 80061e8:	4011      	ands	r1, r2
 80061ea:	421a      	tst	r2, r3
 80061ec:	d021      	beq.n	8006232 <LED_GetIdByXY+0xb2>
 80061ee:	2900      	cmp	r1, #0
 80061f0:	d121      	bne.n	8006236 <LED_GetIdByXY+0xb6>
 80061f2:	1940      	adds	r0, r0, r5
 80061f4:	bd30      	pop	{r4, r5, pc}
 80061f6:	001c      	movs	r4, r3
 80061f8:	4354      	muls	r4, r2
 80061fa:	07d2      	lsls	r2, r2, #31
 80061fc:	d4e5      	bmi.n	80061ca <LED_GetIdByXY+0x4a>
 80061fe:	1908      	adds	r0, r1, r4
 8006200:	e7f8      	b.n	80061f4 <LED_GetIdByXY+0x74>
 8006202:	0008      	movs	r0, r1
 8006204:	2101      	movs	r1, #1
 8006206:	1aa5      	subs	r5, r4, r2
 8006208:	3d01      	subs	r5, #1
 800620a:	435d      	muls	r5, r3
 800620c:	400a      	ands	r2, r1
 800620e:	4221      	tst	r1, r4
 8006210:	d00c      	beq.n	800622c <LED_GetIdByXY+0xac>
 8006212:	2a00      	cmp	r2, #0
 8006214:	d1ed      	bne.n	80061f2 <LED_GetIdByXY+0x72>
 8006216:	1a18      	subs	r0, r3, r0
 8006218:	3801      	subs	r0, #1
 800621a:	e7ea      	b.n	80061f2 <LED_GetIdByXY+0x72>
 800621c:	0008      	movs	r0, r1
 800621e:	2101      	movs	r1, #1
 8006220:	1aa5      	subs	r5, r4, r2
 8006222:	3d01      	subs	r5, #1
 8006224:	435d      	muls	r5, r3
 8006226:	400a      	ands	r2, r1
 8006228:	4221      	tst	r1, r4
 800622a:	d0f2      	beq.n	8006212 <LED_GetIdByXY+0x92>
 800622c:	2a00      	cmp	r2, #0
 800622e:	d0e0      	beq.n	80061f2 <LED_GetIdByXY+0x72>
 8006230:	e7f1      	b.n	8006216 <LED_GetIdByXY+0x96>
 8006232:	2900      	cmp	r1, #0
 8006234:	d1dd      	bne.n	80061f2 <LED_GetIdByXY+0x72>
 8006236:	1a20      	subs	r0, r4, r0
 8006238:	3801      	subs	r0, #1
 800623a:	e7da      	b.n	80061f2 <LED_GetIdByXY+0x72>
 800623c:	2900      	cmp	r1, #0
 800623e:	d0be      	beq.n	80061be <LED_GetIdByXY+0x3e>
 8006240:	1aa2      	subs	r2, r4, r2
 8006242:	3a01      	subs	r2, #1
 8006244:	1810      	adds	r0, r2, r0
 8006246:	e7d5      	b.n	80061f4 <LED_GetIdByXY+0x74>
 8006248:	2001      	movs	r0, #1
 800624a:	4240      	negs	r0, r0
 800624c:	e7d2      	b.n	80061f4 <LED_GetIdByXY+0x74>
 800624e:	46c0      	nop			@ (mov r8, r8)
 8006250:	08007bb8 	.word	0x08007bb8

08006254 <LED_Callback>:
 8006254:	2204      	movs	r2, #4
 8006256:	b5f8      	push	{r3, r4, r5, r6, r7, lr}
 8006258:	008c      	lsls	r4, r1, #2
 800625a:	2301      	movs	r3, #1
 800625c:	40a2      	lsls	r2, r4
 800625e:	6805      	ldr	r5, [r0, #0]
 8006260:	40a3      	lsls	r3, r4
 8006262:	4215      	tst	r5, r2
 8006264:	d053      	beq.n	800630e <LED_Callback+0xba>
 8006266:	2600      	movs	r6, #0
 8006268:	6842      	ldr	r2, [r0, #4]
 800626a:	4313      	orrs	r3, r2
 800626c:	6043      	str	r3, [r0, #4]
 800626e:	4b4b      	ldr	r3, [pc, #300]	@ (800639c <LED_Callback+0x148>)
 8006270:	228c      	movs	r2, #140	@ 0x8c
 8006272:	681d      	ldr	r5, [r3, #0]
 8006274:	2d00      	cmp	r5, #0
 8006276:	d045      	beq.n	8006304 <LED_Callback+0xb0>
 8006278:	686c      	ldr	r4, [r5, #4]
 800627a:	2c00      	cmp	r4, #0
 800627c:	d103      	bne.n	8006286 <LED_Callback+0x32>
 800627e:	e042      	b.n	8006306 <LED_Callback+0xb2>
 8006280:	58a4      	ldr	r4, [r4, r2]
 8006282:	2c00      	cmp	r4, #0
 8006284:	d03f      	beq.n	8006306 <LED_Callback+0xb2>
 8006286:	68a3      	ldr	r3, [r4, #8]
 8006288:	4283      	cmp	r3, r0
 800628a:	d1f9      	bne.n	8006280 <LED_Callback+0x2c>
 800628c:	68e3      	ldr	r3, [r4, #12]
 800628e:	428b      	cmp	r3, r1
 8006290:	d1f6      	bne.n	8006280 <LED_Callback+0x2c>
 8006292:	0020      	movs	r0, r4
 8006294:	68a9      	ldr	r1, [r5, #8]
 8006296:	7caa      	ldrb	r2, [r5, #18]
 8006298:	2580      	movs	r5, #128	@ 0x80
 800629a:	2378      	movs	r3, #120	@ 0x78
 800629c:	3010      	adds	r0, #16
 800629e:	1980      	adds	r0, r0, r6
 80062a0:	5d66      	ldrb	r6, [r4, r5]
 80062a2:	6f67      	ldr	r7, [r4, #116]	@ 0x74
 80062a4:	5ae3      	ldrh	r3, [r4, r3]
 80062a6:	2e00      	cmp	r6, #0
 80062a8:	d13b      	bne.n	8006322 <LED_Callback+0xce>
 80062aa:	19db      	adds	r3, r3, r7
 80062ac:	005d      	lsls	r5, r3, #1
 80062ae:	18eb      	adds	r3, r5, r3
 80062b0:	18c9      	adds	r1, r1, r3
 80062b2:	788b      	ldrb	r3, [r1, #2]
 80062b4:	780d      	ldrb	r5, [r1, #0]
 80062b6:	7849      	ldrb	r1, [r1, #1]
 80062b8:	3201      	adds	r2, #1
 80062ba:	4353      	muls	r3, r2
 80062bc:	4355      	muls	r5, r2
 80062be:	434a      	muls	r2, r1
 80062c0:	36ff      	adds	r6, #255	@ 0xff
 80062c2:	43b5      	bics	r5, r6
 80062c4:	121b      	asrs	r3, r3, #8
 80062c6:	1212      	asrs	r2, r2, #8
 80062c8:	432b      	orrs	r3, r5
 80062ca:	0412      	lsls	r2, r2, #16
 80062cc:	0001      	movs	r1, r0
 80062ce:	4313      	orrs	r3, r2
 80062d0:	2280      	movs	r2, #128	@ 0x80
 80062d2:	2519      	movs	r5, #25
 80062d4:	3130      	adds	r1, #48	@ 0x30
 80062d6:	0412      	lsls	r2, r2, #16
 80062d8:	3ec9      	subs	r6, #201	@ 0xc9
 80062da:	4213      	tst	r3, r2
 80062dc:	d142      	bne.n	8006364 <LED_Callback+0x110>
 80062de:	8005      	strh	r5, [r0, #0]
 80062e0:	3002      	adds	r0, #2
 80062e2:	005b      	lsls	r3, r3, #1
 80062e4:	4281      	cmp	r1, r0
 80062e6:	d1f8      	bne.n	80062da <LED_Callback+0x86>
 80062e8:	2278      	movs	r2, #120	@ 0x78
 80062ea:	2170      	movs	r1, #112	@ 0x70
 80062ec:	5aa3      	ldrh	r3, [r4, r2]
 80062ee:	3301      	adds	r3, #1
 80062f0:	b29b      	uxth	r3, r3
 80062f2:	52a3      	strh	r3, [r4, r2]
 80062f4:	5a61      	ldrh	r1, [r4, r1]
 80062f6:	4299      	cmp	r1, r3
 80062f8:	d804      	bhi.n	8006304 <LED_Callback+0xb0>
 80062fa:	2300      	movs	r3, #0
 80062fc:	52a3      	strh	r3, [r4, r2]
 80062fe:	3380      	adds	r3, #128	@ 0x80
 8006300:	3a77      	subs	r2, #119	@ 0x77
 8006302:	54e2      	strb	r2, [r4, r3]
 8006304:	bdf8      	pop	{r3, r4, r5, r6, r7, pc}
 8006306:	69ad      	ldr	r5, [r5, #24]
 8006308:	2d00      	cmp	r5, #0
 800630a:	d1b5      	bne.n	8006278 <LED_Callback+0x24>
 800630c:	e7fa      	b.n	8006304 <LED_Callback+0xb0>
 800630e:	2202      	movs	r2, #2
 8006310:	40a2      	lsls	r2, r4
 8006312:	6805      	ldr	r5, [r0, #0]
 8006314:	4215      	tst	r5, r2
 8006316:	d021      	beq.n	800635c <LED_Callback+0x108>
 8006318:	6842      	ldr	r2, [r0, #4]
 800631a:	2630      	movs	r6, #48	@ 0x30
 800631c:	4313      	orrs	r3, r2
 800631e:	6043      	str	r3, [r0, #4]
 8006320:	e7a5      	b.n	800626e <LED_Callback+0x1a>
 8006322:	2230      	movs	r2, #48	@ 0x30
 8006324:	2100      	movs	r1, #0
 8006326:	f000 f99b 	bl	8006660 <memset>
 800632a:	2284      	movs	r2, #132	@ 0x84
 800632c:	58a3      	ldr	r3, [r4, r2]
 800632e:	6fe1      	ldr	r1, [r4, #124]	@ 0x7c
 8006330:	3301      	adds	r3, #1
 8006332:	50a3      	str	r3, [r4, r2]
 8006334:	428b      	cmp	r3, r1
 8006336:	dbe5      	blt.n	8006304 <LED_Callback+0xb0>
 8006338:	2300      	movs	r3, #0
 800633a:	50a3      	str	r3, [r4, r2]
 800633c:	5563      	strb	r3, [r4, r5]
 800633e:	6863      	ldr	r3, [r4, #4]
 8006340:	327c      	adds	r2, #124	@ 0x7c
 8006342:	4293      	cmp	r3, r2
 8006344:	d01e      	beq.n	8006384 <LED_Callback+0x130>
 8006346:	d813      	bhi.n	8006370 <LED_Callback+0x11c>
 8006348:	2b01      	cmp	r3, #1
 800634a:	d021      	beq.n	8006390 <LED_Callback+0x13c>
 800634c:	2b10      	cmp	r3, #16
 800634e:	d1d9      	bne.n	8006304 <LED_Callback+0xb0>
 8006350:	6822      	ldr	r2, [r4, #0]
 8006352:	4913      	ldr	r1, [pc, #76]	@ (80063a0 <LED_Callback+0x14c>)
 8006354:	68d3      	ldr	r3, [r2, #12]
 8006356:	400b      	ands	r3, r1
 8006358:	60d3      	str	r3, [r2, #12]
 800635a:	e7d3      	b.n	8006304 <LED_Callback+0xb0>
 800635c:	6842      	ldr	r2, [r0, #4]
 800635e:	4313      	orrs	r3, r2
 8006360:	6043      	str	r3, [r0, #4]
 8006362:	e7cf      	b.n	8006304 <LED_Callback+0xb0>
 8006364:	8006      	strh	r6, [r0, #0]
 8006366:	3002      	adds	r0, #2
 8006368:	005b      	lsls	r3, r3, #1
 800636a:	4288      	cmp	r0, r1
 800636c:	d1b5      	bne.n	80062da <LED_Callback+0x86>
 800636e:	e7bb      	b.n	80062e8 <LED_Callback+0x94>
 8006370:	2280      	movs	r2, #128	@ 0x80
 8006372:	0152      	lsls	r2, r2, #5
 8006374:	4293      	cmp	r3, r2
 8006376:	d1c5      	bne.n	8006304 <LED_Callback+0xb0>
 8006378:	6822      	ldr	r2, [r4, #0]
 800637a:	490a      	ldr	r1, [pc, #40]	@ (80063a4 <LED_Callback+0x150>)
 800637c:	68d3      	ldr	r3, [r2, #12]
 800637e:	400b      	ands	r3, r1
 8006380:	60d3      	str	r3, [r2, #12]
 8006382:	e7bf      	b.n	8006304 <LED_Callback+0xb0>
 8006384:	6822      	ldr	r2, [r4, #0]
 8006386:	4908      	ldr	r1, [pc, #32]	@ (80063a8 <LED_Callback+0x154>)
 8006388:	68d3      	ldr	r3, [r2, #12]
 800638a:	400b      	ands	r3, r1
 800638c:	60d3      	str	r3, [r2, #12]
 800638e:	e7b9      	b.n	8006304 <LED_Callback+0xb0>
 8006390:	6822      	ldr	r2, [r4, #0]
 8006392:	4906      	ldr	r1, [pc, #24]	@ (80063ac <LED_Callback+0x158>)
 8006394:	68d3      	ldr	r3, [r2, #12]
 8006396:	400b      	ands	r3, r1
 8006398:	60d3      	str	r3, [r2, #12]
 800639a:	e7b3      	b.n	8006304 <LED_Callback+0xb0>
 800639c:	20000400 	.word	0x20000400
 80063a0:	fffffbff 	.word	0xfffffbff
 80063a4:	ffffefff 	.word	0xffffefff
 80063a8:	fffff7ff 	.word	0xfffff7ff
 80063ac:	fffffdff 	.word	0xfffffdff

080063b0 <calloc>:
 80063b0:	b510      	push	{r4, lr}
 80063b2:	4b03      	ldr	r3, [pc, #12]	@ (80063c0 <calloc+0x10>)
 80063b4:	000a      	movs	r2, r1
 80063b6:	0001      	movs	r1, r0
 80063b8:	6818      	ldr	r0, [r3, #0]
 80063ba:	f000 f803 	bl	80063c4 <_calloc_r>
 80063be:	bd10      	pop	{r4, pc}
 80063c0:	200000a4 	.word	0x200000a4

080063c4 <_calloc_r>:
 80063c4:	b570      	push	{r4, r5, r6, lr}
 80063c6:	0c0b      	lsrs	r3, r1, #16
 80063c8:	0c15      	lsrs	r5, r2, #16
 80063ca:	2b00      	cmp	r3, #0
 80063cc:	d11e      	bne.n	800640c <_calloc_r+0x48>
 80063ce:	2d00      	cmp	r5, #0
 80063d0:	d10c      	bne.n	80063ec <_calloc_r+0x28>
 80063d2:	b289      	uxth	r1, r1
 80063d4:	b294      	uxth	r4, r2
 80063d6:	434c      	muls	r4, r1
 80063d8:	0021      	movs	r1, r4
 80063da:	f000 f857 	bl	800648c <_malloc_r>
 80063de:	1e05      	subs	r5, r0, #0
 80063e0:	d01a      	beq.n	8006418 <_calloc_r+0x54>
 80063e2:	0022      	movs	r2, r4
 80063e4:	2100      	movs	r1, #0
 80063e6:	f000 f93b 	bl	8006660 <memset>
 80063ea:	e016      	b.n	800641a <_calloc_r+0x56>
 80063ec:	1c2b      	adds	r3, r5, #0
 80063ee:	1c0c      	adds	r4, r1, #0
 80063f0:	b289      	uxth	r1, r1
 80063f2:	b292      	uxth	r2, r2
 80063f4:	434a      	muls	r2, r1
 80063f6:	b29b      	uxth	r3, r3
 80063f8:	b2a1      	uxth	r1, r4
 80063fa:	4359      	muls	r1, r3
 80063fc:	0c14      	lsrs	r4, r2, #16
 80063fe:	190c      	adds	r4, r1, r4
 8006400:	0c23      	lsrs	r3, r4, #16
 8006402:	d107      	bne.n	8006414 <_calloc_r+0x50>
 8006404:	0424      	lsls	r4, r4, #16
 8006406:	b292      	uxth	r2, r2
 8006408:	4314      	orrs	r4, r2
 800640a:	e7e5      	b.n	80063d8 <_calloc_r+0x14>
 800640c:	2d00      	cmp	r5, #0
 800640e:	d101      	bne.n	8006414 <_calloc_r+0x50>
 8006410:	1c14      	adds	r4, r2, #0
 8006412:	e7ed      	b.n	80063f0 <_calloc_r+0x2c>
 8006414:	230c      	movs	r3, #12
 8006416:	6003      	str	r3, [r0, #0]
 8006418:	2500      	movs	r5, #0
 800641a:	0028      	movs	r0, r5
 800641c:	bd70      	pop	{r4, r5, r6, pc}
	...

08006420 <malloc>:
 8006420:	b510      	push	{r4, lr}
 8006422:	4b03      	ldr	r3, [pc, #12]	@ (8006430 <malloc+0x10>)
 8006424:	0001      	movs	r1, r0
 8006426:	6818      	ldr	r0, [r3, #0]
 8006428:	f000 f830 	bl	800648c <_malloc_r>
 800642c:	bd10      	pop	{r4, pc}
 800642e:	46c0      	nop			@ (mov r8, r8)
 8006430:	200000a4 	.word	0x200000a4

08006434 <free>:
 8006434:	b510      	push	{r4, lr}
 8006436:	4b03      	ldr	r3, [pc, #12]	@ (8006444 <free+0x10>)
 8006438:	0001      	movs	r1, r0
 800643a:	6818      	ldr	r0, [r3, #0]
 800643c:	f000 f96e 	bl	800671c <_free_r>
 8006440:	bd10      	pop	{r4, pc}
 8006442:	46c0      	nop			@ (mov r8, r8)
 8006444:	200000a4 	.word	0x200000a4

08006448 <sbrk_aligned>:
 8006448:	b570      	push	{r4, r5, r6, lr}
 800644a:	4e0f      	ldr	r6, [pc, #60]	@ (8006488 <sbrk_aligned+0x40>)
 800644c:	000d      	movs	r5, r1
 800644e:	6831      	ldr	r1, [r6, #0]
 8006450:	0004      	movs	r4, r0
 8006452:	2900      	cmp	r1, #0
 8006454:	d102      	bne.n	800645c <sbrk_aligned+0x14>
 8006456:	f000 f919 	bl	800668c <_sbrk_r>
 800645a:	6030      	str	r0, [r6, #0]
 800645c:	0029      	movs	r1, r5
 800645e:	0020      	movs	r0, r4
 8006460:	f000 f914 	bl	800668c <_sbrk_r>
 8006464:	1c43      	adds	r3, r0, #1
 8006466:	d103      	bne.n	8006470 <sbrk_aligned+0x28>
 8006468:	2501      	movs	r5, #1
 800646a:	426d      	negs	r5, r5
 800646c:	0028      	movs	r0, r5
 800646e:	bd70      	pop	{r4, r5, r6, pc}
 8006470:	2303      	movs	r3, #3
 8006472:	1cc5      	adds	r5, r0, #3
 8006474:	439d      	bics	r5, r3
 8006476:	42a8      	cmp	r0, r5
 8006478:	d0f8      	beq.n	800646c <sbrk_aligned+0x24>
 800647a:	1a29      	subs	r1, r5, r0
 800647c:	0020      	movs	r0, r4
 800647e:	f000 f905 	bl	800668c <_sbrk_r>
 8006482:	3001      	adds	r0, #1
 8006484:	d1f2      	bne.n	800646c <sbrk_aligned+0x24>
 8006486:	e7ef      	b.n	8006468 <sbrk_aligned+0x20>
 8006488:	20000404 	.word	0x20000404

0800648c <_malloc_r>:
 800648c:	b5f7      	push	{r0, r1, r2, r4, r5, r6, r7, lr}
 800648e:	2203      	movs	r2, #3
 8006490:	1ccb      	adds	r3, r1, #3
 8006492:	4393      	bics	r3, r2
 8006494:	3308      	adds	r3, #8
 8006496:	0005      	movs	r5, r0
 8006498:	001f      	movs	r7, r3
 800649a:	2b0c      	cmp	r3, #12
 800649c:	d234      	bcs.n	8006508 <_malloc_r+0x7c>
 800649e:	270c      	movs	r7, #12
 80064a0:	42b9      	cmp	r1, r7
 80064a2:	d833      	bhi.n	800650c <_malloc_r+0x80>
 80064a4:	0028      	movs	r0, r5
 80064a6:	f000 f871 	bl	800658c <__malloc_lock>
 80064aa:	4e37      	ldr	r6, [pc, #220]	@ (8006588 <_malloc_r+0xfc>)
 80064ac:	6833      	ldr	r3, [r6, #0]
 80064ae:	001c      	movs	r4, r3
 80064b0:	2c00      	cmp	r4, #0
 80064b2:	d12f      	bne.n	8006514 <_malloc_r+0x88>
 80064b4:	0039      	movs	r1, r7
 80064b6:	0028      	movs	r0, r5
 80064b8:	f7ff ffc6 	bl	8006448 <sbrk_aligned>
 80064bc:	0004      	movs	r4, r0
 80064be:	1c43      	adds	r3, r0, #1
 80064c0:	d15f      	bne.n	8006582 <_malloc_r+0xf6>
 80064c2:	6834      	ldr	r4, [r6, #0]
 80064c4:	9400      	str	r4, [sp, #0]
 80064c6:	9b00      	ldr	r3, [sp, #0]
 80064c8:	2b00      	cmp	r3, #0
 80064ca:	d14a      	bne.n	8006562 <_malloc_r+0xd6>
 80064cc:	2c00      	cmp	r4, #0
 80064ce:	d052      	beq.n	8006576 <_malloc_r+0xea>
 80064d0:	6823      	ldr	r3, [r4, #0]
 80064d2:	0028      	movs	r0, r5
 80064d4:	18e3      	adds	r3, r4, r3
 80064d6:	9900      	ldr	r1, [sp, #0]
 80064d8:	9301      	str	r3, [sp, #4]
 80064da:	f000 f8d7 	bl	800668c <_sbrk_r>
 80064de:	9b01      	ldr	r3, [sp, #4]
 80064e0:	4283      	cmp	r3, r0
 80064e2:	d148      	bne.n	8006576 <_malloc_r+0xea>
 80064e4:	6823      	ldr	r3, [r4, #0]
 80064e6:	0028      	movs	r0, r5
 80064e8:	1aff      	subs	r7, r7, r3
 80064ea:	0039      	movs	r1, r7
 80064ec:	f7ff ffac 	bl	8006448 <sbrk_aligned>
 80064f0:	3001      	adds	r0, #1
 80064f2:	d040      	beq.n	8006576 <_malloc_r+0xea>
 80064f4:	6823      	ldr	r3, [r4, #0]
 80064f6:	19db      	adds	r3, r3, r7
 80064f8:	6023      	str	r3, [r4, #0]
 80064fa:	6833      	ldr	r3, [r6, #0]
 80064fc:	685a      	ldr	r2, [r3, #4]
 80064fe:	2a00      	cmp	r2, #0
 8006500:	d133      	bne.n	800656a <_malloc_r+0xde>
 8006502:	9b00      	ldr	r3, [sp, #0]
 8006504:	6033      	str	r3, [r6, #0]
 8006506:	e019      	b.n	800653c <_malloc_r+0xb0>
 8006508:	2b00      	cmp	r3, #0
 800650a:	dac9      	bge.n	80064a0 <_malloc_r+0x14>
 800650c:	230c      	movs	r3, #12
 800650e:	602b      	str	r3, [r5, #0]
 8006510:	2000      	movs	r0, #0
 8006512:	bdfe      	pop	{r1, r2, r3, r4, r5, r6, r7, pc}
 8006514:	6821      	ldr	r1, [r4, #0]
 8006516:	1bc9      	subs	r1, r1, r7
 8006518:	d420      	bmi.n	800655c <_malloc_r+0xd0>
 800651a:	290b      	cmp	r1, #11
 800651c:	d90a      	bls.n	8006534 <_malloc_r+0xa8>
 800651e:	19e2      	adds	r2, r4, r7
 8006520:	6027      	str	r7, [r4, #0]
 8006522:	42a3      	cmp	r3, r4
 8006524:	d104      	bne.n	8006530 <_malloc_r+0xa4>
 8006526:	6032      	str	r2, [r6, #0]
 8006528:	6863      	ldr	r3, [r4, #4]
 800652a:	6011      	str	r1, [r2, #0]
 800652c:	6053      	str	r3, [r2, #4]
 800652e:	e005      	b.n	800653c <_malloc_r+0xb0>
 8006530:	605a      	str	r2, [r3, #4]
 8006532:	e7f9      	b.n	8006528 <_malloc_r+0x9c>
 8006534:	6862      	ldr	r2, [r4, #4]
 8006536:	42a3      	cmp	r3, r4
 8006538:	d10e      	bne.n	8006558 <_malloc_r+0xcc>
 800653a:	6032      	str	r2, [r6, #0]
 800653c:	0028      	movs	r0, r5
 800653e:	f000 f82d 	bl	800659c <__malloc_unlock>
 8006542:	0020      	movs	r0, r4
 8006544:	2207      	movs	r2, #7
 8006546:	300b      	adds	r0, #11
 8006548:	1d23      	adds	r3, r4, #4
 800654a:	4390      	bics	r0, r2
 800654c:	1ac2      	subs	r2, r0, r3
 800654e:	4298      	cmp	r0, r3
 8006550:	d0df      	beq.n	8006512 <_malloc_r+0x86>
 8006552:	1a1b      	subs	r3, r3, r0
 8006554:	50a3      	str	r3, [r4, r2]
 8006556:	e7dc      	b.n	8006512 <_malloc_r+0x86>
 8006558:	605a      	str	r2, [r3, #4]
 800655a:	e7ef      	b.n	800653c <_malloc_r+0xb0>
 800655c:	0023      	movs	r3, r4
 800655e:	6864      	ldr	r4, [r4, #4]
 8006560:	e7a6      	b.n	80064b0 <_malloc_r+0x24>
 8006562:	9c00      	ldr	r4, [sp, #0]
 8006564:	6863      	ldr	r3, [r4, #4]
 8006566:	9300      	str	r3, [sp, #0]
 8006568:	e7ad      	b.n	80064c6 <_malloc_r+0x3a>
 800656a:	001a      	movs	r2, r3
 800656c:	685b      	ldr	r3, [r3, #4]
 800656e:	42a3      	cmp	r3, r4
 8006570:	d1fb      	bne.n	800656a <_malloc_r+0xde>
 8006572:	2300      	movs	r3, #0
 8006574:	e7da      	b.n	800652c <_malloc_r+0xa0>
 8006576:	230c      	movs	r3, #12
 8006578:	0028      	movs	r0, r5
 800657a:	602b      	str	r3, [r5, #0]
 800657c:	f000 f80e 	bl	800659c <__malloc_unlock>
 8006580:	e7c6      	b.n	8006510 <_malloc_r+0x84>
 8006582:	6007      	str	r7, [r0, #0]
 8006584:	e7da      	b.n	800653c <_malloc_r+0xb0>
 8006586:	46c0      	nop			@ (mov r8, r8)
 8006588:	20000408 	.word	0x20000408

0800658c <__malloc_lock>:
 800658c:	b510      	push	{r4, lr}
 800658e:	4802      	ldr	r0, [pc, #8]	@ (8006598 <__malloc_lock+0xc>)
 8006590:	f000 f8b8 	bl	8006704 <__retarget_lock_acquire_recursive>
 8006594:	bd10      	pop	{r4, pc}
 8006596:	46c0      	nop			@ (mov r8, r8)
 8006598:	20000548 	.word	0x20000548

0800659c <__malloc_unlock>:
 800659c:	b510      	push	{r4, lr}
 800659e:	4802      	ldr	r0, [pc, #8]	@ (80065a8 <__malloc_unlock+0xc>)
 80065a0:	f000 f8b1 	bl	8006706 <__retarget_lock_release_recursive>
 80065a4:	bd10      	pop	{r4, pc}
 80065a6:	46c0      	nop			@ (mov r8, r8)
 80065a8:	20000548 	.word	0x20000548

080065ac <realloc>:
 80065ac:	b510      	push	{r4, lr}
 80065ae:	4b03      	ldr	r3, [pc, #12]	@ (80065bc <realloc+0x10>)
 80065b0:	000a      	movs	r2, r1
 80065b2:	0001      	movs	r1, r0
 80065b4:	6818      	ldr	r0, [r3, #0]
 80065b6:	f000 f803 	bl	80065c0 <_realloc_r>
 80065ba:	bd10      	pop	{r4, pc}
 80065bc:	200000a4 	.word	0x200000a4

080065c0 <_realloc_r>:
 80065c0:	b5f7      	push	{r0, r1, r2, r4, r5, r6, r7, lr}
 80065c2:	0006      	movs	r6, r0
 80065c4:	000c      	movs	r4, r1
 80065c6:	0015      	movs	r5, r2
 80065c8:	2900      	cmp	r1, #0
 80065ca:	d105      	bne.n	80065d8 <_realloc_r+0x18>
 80065cc:	0011      	movs	r1, r2
 80065ce:	f7ff ff5d 	bl	800648c <_malloc_r>
 80065d2:	0004      	movs	r4, r0
 80065d4:	0020      	movs	r0, r4
 80065d6:	bdfe      	pop	{r1, r2, r3, r4, r5, r6, r7, pc}
 80065d8:	2a00      	cmp	r2, #0
 80065da:	d103      	bne.n	80065e4 <_realloc_r+0x24>
 80065dc:	f000 f89e 	bl	800671c <_free_r>
 80065e0:	2400      	movs	r4, #0
 80065e2:	e7f7      	b.n	80065d4 <_realloc_r+0x14>
 80065e4:	f000 f8e4 	bl	80067b0 <_malloc_usable_size_r>
 80065e8:	0007      	movs	r7, r0
 80065ea:	4285      	cmp	r5, r0
 80065ec:	d802      	bhi.n	80065f4 <_realloc_r+0x34>
 80065ee:	0843      	lsrs	r3, r0, #1
 80065f0:	42ab      	cmp	r3, r5
 80065f2:	d3ef      	bcc.n	80065d4 <_realloc_r+0x14>
 80065f4:	0029      	movs	r1, r5
 80065f6:	0030      	movs	r0, r6
 80065f8:	f7ff ff48 	bl	800648c <_malloc_r>
 80065fc:	9001      	str	r0, [sp, #4]
 80065fe:	2800      	cmp	r0, #0
 8006600:	d0ee      	beq.n	80065e0 <_realloc_r+0x20>
 8006602:	002a      	movs	r2, r5
 8006604:	42bd      	cmp	r5, r7
 8006606:	d900      	bls.n	800660a <_realloc_r+0x4a>
 8006608:	003a      	movs	r2, r7
 800660a:	0021      	movs	r1, r4
 800660c:	9801      	ldr	r0, [sp, #4]
 800660e:	f000 f87b 	bl	8006708 <memcpy>
 8006612:	0021      	movs	r1, r4
 8006614:	0030      	movs	r0, r6
 8006616:	f000 f881 	bl	800671c <_free_r>
 800661a:	9c01      	ldr	r4, [sp, #4]
 800661c:	e7da      	b.n	80065d4 <_realloc_r+0x14>

0800661e <memcmp>:
 800661e:	b530      	push	{r4, r5, lr}
 8006620:	2400      	movs	r4, #0
 8006622:	3901      	subs	r1, #1
 8006624:	42a2      	cmp	r2, r4
 8006626:	d101      	bne.n	800662c <memcmp+0xe>
 8006628:	2000      	movs	r0, #0
 800662a:	e005      	b.n	8006638 <memcmp+0x1a>
 800662c:	5d03      	ldrb	r3, [r0, r4]
 800662e:	3401      	adds	r4, #1
 8006630:	5d0d      	ldrb	r5, [r1, r4]
 8006632:	42ab      	cmp	r3, r5
 8006634:	d0f6      	beq.n	8006624 <memcmp+0x6>
 8006636:	1b58      	subs	r0, r3, r5
 8006638:	bd30      	pop	{r4, r5, pc}

0800663a <memmove>:
 800663a:	b510      	push	{r4, lr}
 800663c:	4288      	cmp	r0, r1
 800663e:	d806      	bhi.n	800664e <memmove+0x14>
 8006640:	2300      	movs	r3, #0
 8006642:	429a      	cmp	r2, r3
 8006644:	d008      	beq.n	8006658 <memmove+0x1e>
 8006646:	5ccc      	ldrb	r4, [r1, r3]
 8006648:	54c4      	strb	r4, [r0, r3]
 800664a:	3301      	adds	r3, #1
 800664c:	e7f9      	b.n	8006642 <memmove+0x8>
 800664e:	188b      	adds	r3, r1, r2
 8006650:	4298      	cmp	r0, r3
 8006652:	d2f5      	bcs.n	8006640 <memmove+0x6>
 8006654:	3a01      	subs	r2, #1
 8006656:	d200      	bcs.n	800665a <memmove+0x20>
 8006658:	bd10      	pop	{r4, pc}
 800665a:	5c8b      	ldrb	r3, [r1, r2]
 800665c:	5483      	strb	r3, [r0, r2]
 800665e:	e7f9      	b.n	8006654 <memmove+0x1a>

08006660 <memset>:
 8006660:	0003      	movs	r3, r0
 8006662:	1882      	adds	r2, r0, r2
 8006664:	4293      	cmp	r3, r2
 8006666:	d100      	bne.n	800666a <memset+0xa>
 8006668:	4770      	bx	lr
 800666a:	7019      	strb	r1, [r3, #0]
 800666c:	3301      	adds	r3, #1
 800666e:	e7f9      	b.n	8006664 <memset+0x4>

08006670 <strchr>:
 8006670:	b2c9      	uxtb	r1, r1
 8006672:	7803      	ldrb	r3, [r0, #0]
 8006674:	2b00      	cmp	r3, #0
 8006676:	d004      	beq.n	8006682 <strchr+0x12>
 8006678:	428b      	cmp	r3, r1
 800667a:	d100      	bne.n	800667e <strchr+0xe>
 800667c:	4770      	bx	lr
 800667e:	3001      	adds	r0, #1
 8006680:	e7f7      	b.n	8006672 <strchr+0x2>
 8006682:	424b      	negs	r3, r1
 8006684:	4159      	adcs	r1, r3
 8006686:	4249      	negs	r1, r1
 8006688:	4008      	ands	r0, r1
 800668a:	e7f7      	b.n	800667c <strchr+0xc>

0800668c <_sbrk_r>:
 800668c:	2300      	movs	r3, #0
 800668e:	b570      	push	{r4, r5, r6, lr}
 8006690:	4d06      	ldr	r5, [pc, #24]	@ (80066ac <_sbrk_r+0x20>)
 8006692:	0004      	movs	r4, r0
 8006694:	0008      	movs	r0, r1
 8006696:	602b      	str	r3, [r5, #0]
 8006698:	f7fb f8f4 	bl	8001884 <_sbrk>
 800669c:	1c43      	adds	r3, r0, #1
 800669e:	d103      	bne.n	80066a8 <_sbrk_r+0x1c>
 80066a0:	682b      	ldr	r3, [r5, #0]
 80066a2:	2b00      	cmp	r3, #0
 80066a4:	d000      	beq.n	80066a8 <_sbrk_r+0x1c>
 80066a6:	6023      	str	r3, [r4, #0]
 80066a8:	bd70      	pop	{r4, r5, r6, pc}
 80066aa:	46c0      	nop			@ (mov r8, r8)
 80066ac:	20000544 	.word	0x20000544

080066b0 <__errno>:
 80066b0:	4b01      	ldr	r3, [pc, #4]	@ (80066b8 <__errno+0x8>)
 80066b2:	6818      	ldr	r0, [r3, #0]
 80066b4:	4770      	bx	lr
 80066b6:	46c0      	nop			@ (mov r8, r8)
 80066b8:	200000a4 	.word	0x200000a4

080066bc <__libc_init_array>:
 80066bc:	b570      	push	{r4, r5, r6, lr}
 80066be:	2600      	movs	r6, #0
 80066c0:	4c0c      	ldr	r4, [pc, #48]	@ (80066f4 <__libc_init_array+0x38>)
 80066c2:	4d0d      	ldr	r5, [pc, #52]	@ (80066f8 <__libc_init_array+0x3c>)
 80066c4:	1b64      	subs	r4, r4, r5
 80066c6:	10a4      	asrs	r4, r4, #2
 80066c8:	42a6      	cmp	r6, r4
 80066ca:	d109      	bne.n	80066e0 <__libc_init_array+0x24>
 80066cc:	2600      	movs	r6, #0
 80066ce:	f000 f877 	bl	80067c0 <_init>
 80066d2:	4c0a      	ldr	r4, [pc, #40]	@ (80066fc <__libc_init_array+0x40>)
 80066d4:	4d0a      	ldr	r5, [pc, #40]	@ (8006700 <__libc_init_array+0x44>)
 80066d6:	1b64      	subs	r4, r4, r5
 80066d8:	10a4      	asrs	r4, r4, #2
 80066da:	42a6      	cmp	r6, r4
 80066dc:	d105      	bne.n	80066ea <__libc_init_array+0x2e>
 80066de:	bd70      	pop	{r4, r5, r6, pc}
 80066e0:	00b3      	lsls	r3, r6, #2
 80066e2:	58eb      	ldr	r3, [r5, r3]
 80066e4:	4798      	blx	r3
 80066e6:	3601      	adds	r6, #1
 80066e8:	e7ee      	b.n	80066c8 <__libc_init_array+0xc>
 80066ea:	00b3      	lsls	r3, r6, #2
 80066ec:	58eb      	ldr	r3, [r5, r3]
 80066ee:	4798      	blx	r3
 80066f0:	3601      	adds	r6, #1
 80066f2:	e7f2      	b.n	80066da <__libc_init_array+0x1e>
 80066f4:	08007be0 	.word	0x08007be0
 80066f8:	08007be0 	.word	0x08007be0
 80066fc:	08007be4 	.word	0x08007be4
 8006700:	08007be0 	.word	0x08007be0

08006704 <__retarget_lock_acquire_recursive>:
 8006704:	4770      	bx	lr

08006706 <__retarget_lock_release_recursive>:
 8006706:	4770      	bx	lr

08006708 <memcpy>:
 8006708:	2300      	movs	r3, #0
 800670a:	b510      	push	{r4, lr}
 800670c:	429a      	cmp	r2, r3
 800670e:	d100      	bne.n	8006712 <memcpy+0xa>
 8006710:	bd10      	pop	{r4, pc}
 8006712:	5ccc      	ldrb	r4, [r1, r3]
 8006714:	54c4      	strb	r4, [r0, r3]
 8006716:	3301      	adds	r3, #1
 8006718:	e7f8      	b.n	800670c <memcpy+0x4>
	...

0800671c <_free_r>:
 800671c:	b570      	push	{r4, r5, r6, lr}
 800671e:	0005      	movs	r5, r0
 8006720:	1e0c      	subs	r4, r1, #0
 8006722:	d010      	beq.n	8006746 <_free_r+0x2a>
 8006724:	3c04      	subs	r4, #4
 8006726:	6823      	ldr	r3, [r4, #0]
 8006728:	2b00      	cmp	r3, #0
 800672a:	da00      	bge.n	800672e <_free_r+0x12>
 800672c:	18e4      	adds	r4, r4, r3
 800672e:	0028      	movs	r0, r5
 8006730:	f7ff ff2c 	bl	800658c <__malloc_lock>
 8006734:	4a1d      	ldr	r2, [pc, #116]	@ (80067ac <_free_r+0x90>)
 8006736:	6813      	ldr	r3, [r2, #0]
 8006738:	2b00      	cmp	r3, #0
 800673a:	d105      	bne.n	8006748 <_free_r+0x2c>
 800673c:	6063      	str	r3, [r4, #4]
 800673e:	6014      	str	r4, [r2, #0]
 8006740:	0028      	movs	r0, r5
 8006742:	f7ff ff2b 	bl	800659c <__malloc_unlock>
 8006746:	bd70      	pop	{r4, r5, r6, pc}
 8006748:	42a3      	cmp	r3, r4
 800674a:	d908      	bls.n	800675e <_free_r+0x42>
 800674c:	6820      	ldr	r0, [r4, #0]
 800674e:	1821      	adds	r1, r4, r0
 8006750:	428b      	cmp	r3, r1
 8006752:	d1f3      	bne.n	800673c <_free_r+0x20>
 8006754:	6819      	ldr	r1, [r3, #0]
 8006756:	685b      	ldr	r3, [r3, #4]
 8006758:	1809      	adds	r1, r1, r0
 800675a:	6021      	str	r1, [r4, #0]
 800675c:	e7ee      	b.n	800673c <_free_r+0x20>
 800675e:	001a      	movs	r2, r3
 8006760:	685b      	ldr	r3, [r3, #4]
 8006762:	2b00      	cmp	r3, #0
 8006764:	d001      	beq.n	800676a <_free_r+0x4e>
 8006766:	42a3      	cmp	r3, r4
 8006768:	d9f9      	bls.n	800675e <_free_r+0x42>
 800676a:	6811      	ldr	r1, [r2, #0]
 800676c:	1850      	adds	r0, r2, r1
 800676e:	42a0      	cmp	r0, r4
 8006770:	d10b      	bne.n	800678a <_free_r+0x6e>
 8006772:	6820      	ldr	r0, [r4, #0]
 8006774:	1809      	adds	r1, r1, r0
 8006776:	1850      	adds	r0, r2, r1
 8006778:	6011      	str	r1, [r2, #0]
 800677a:	4283      	cmp	r3, r0
 800677c:	d1e0      	bne.n	8006740 <_free_r+0x24>
 800677e:	6818      	ldr	r0, [r3, #0]
 8006780:	685b      	ldr	r3, [r3, #4]
 8006782:	1841      	adds	r1, r0, r1
 8006784:	6011      	str	r1, [r2, #0]
 8006786:	6053      	str	r3, [r2, #4]
 8006788:	e7da      	b.n	8006740 <_free_r+0x24>
 800678a:	42a0      	cmp	r0, r4
 800678c:	d902      	bls.n	8006794 <_free_r+0x78>
 800678e:	230c      	movs	r3, #12
 8006790:	602b      	str	r3, [r5, #0]
 8006792:	e7d5      	b.n	8006740 <_free_r+0x24>
 8006794:	6820      	ldr	r0, [r4, #0]
 8006796:	1821      	adds	r1, r4, r0
 8006798:	428b      	cmp	r3, r1
 800679a:	d103      	bne.n	80067a4 <_free_r+0x88>
 800679c:	6819      	ldr	r1, [r3, #0]
 800679e:	685b      	ldr	r3, [r3, #4]
 80067a0:	1809      	adds	r1, r1, r0
 80067a2:	6021      	str	r1, [r4, #0]
 80067a4:	6063      	str	r3, [r4, #4]
 80067a6:	6054      	str	r4, [r2, #4]
 80067a8:	e7ca      	b.n	8006740 <_free_r+0x24>
 80067aa:	46c0      	nop			@ (mov r8, r8)
 80067ac:	20000408 	.word	0x20000408

080067b0 <_malloc_usable_size_r>:
 80067b0:	1f0b      	subs	r3, r1, #4
 80067b2:	681b      	ldr	r3, [r3, #0]
 80067b4:	1f18      	subs	r0, r3, #4
 80067b6:	2b00      	cmp	r3, #0
 80067b8:	da01      	bge.n	80067be <_malloc_usable_size_r+0xe>
 80067ba:	580b      	ldr	r3, [r1, r0]
 80067bc:	18c0      	adds	r0, r0, r3
 80067be:	4770      	bx	lr

080067c0 <_init>:
 80067c0:	b5f8      	push	{r3, r4, r5, r6, r7, lr}
 80067c2:	46c0      	nop			@ (mov r8, r8)
 80067c4:	bcf8      	pop	{r3, r4, r5, r6, r7}
 80067c6:	bc08      	pop	{r3}
 80067c8:	469e      	mov	lr, r3
 80067ca:	4770      	bx	lr

080067cc <_fini>:
 80067cc:	b5f8      	push	{r3, r4, r5, r6, r7, lr}
 80067ce:	46c0      	nop			@ (mov r8, r8)
 80067d0:	bcf8      	pop	{r3, r4, r5, r6, r7}
 80067d2:	bc08      	pop	{r3}
 80067d4:	469e      	mov	lr, r3
 80067d6:	4770      	bx	lr
